	.section	__TEXT,__text,regular,pure_instructions
	.build_version macos, 11, 0	sdk_version 12, 0
	.globl	__Z3addR7Student                ## -- Begin function _Z3addR7Student
	.p2align	4, 0x90
__Z3addR7Student:                       ## @_Z3addR7Student
	.cfi_startproc
## %bb.0:
	pushq	%rbp
	.cfi_def_cfa_offset 16
	.cfi_offset %rbp, -16
	movq	%rsp, %rbp
	.cfi_def_cfa_register %rbp
	movq	%rdi, -8(%rbp)
	movl	__ZN7Student3sumE(%rip), %eax
	movq	-8(%rbp), %rcx
	addl	28(%rcx), %eax
	movl	%eax, __ZN7Student3sumE(%rip)
	popq	%rbp
	retq
	.cfi_endproc
                                        ## -- End function
	.globl	_main                           ## -- Begin function main
	.p2align	4, 0x90
_main:                                  ## @main
Lfunc_begin0:
	.cfi_startproc
	.cfi_personality 155, ___gxx_personality_v0
	.cfi_lsda 16, Lexception0
## %bb.0:
	pushq	%rbp
	.cfi_def_cfa_offset 16
	.cfi_offset %rbp, -16
	movq	%rsp, %rbp
	.cfi_def_cfa_register %rbp
	subq	$448, %rsp                      ## imm = 0x1C0
	movq	___stack_chk_guard@GOTPCREL(%rip), %rax
	movq	(%rax), %rax
	movq	%rax, -8(%rbp)
	movl	$0, -12(%rbp)
	movq	__ZNSt3__14coutE@GOTPCREL(%rip), %rdi
	leaq	L_.str(%rip), %rsi
	callq	__ZNSt3__1lsINS_11char_traitsIcEEEERNS_13basic_ostreamIcT_EES6_PKc
	movq	__ZNSt3__13cinE@GOTPCREL(%rip), %rdi
	leaq	-16(%rbp), %rsi
	callq	__ZNSt3__113basic_istreamIcNS_11char_traitsIcEEErsERi
	movl	-16(%rbp), %eax
                                        ## kill: def $rax killed $eax
	movq	%rax, -96(%rbp)                 ## 8-byte Spill
	movq	%rsp, %rcx
	movq	%rcx, -32(%rbp)
	shlq	$5, %rax
	callq	____chkstk_darwin
	addq	$15, %rax
	andq	$-16, %rax
	subq	%rax, %rsp
	movq	-96(%rbp), %rax                 ## 8-byte Reload
	movq	%rsp, %rcx
	movq	%rcx, -88(%rbp)                 ## 8-byte Spill
	movq	%rax, -40(%rbp)
	cmpq	$0, %rax
	je	LBB1_4
## %bb.1:
	movq	-88(%rbp), %rax                 ## 8-byte Reload
	movq	-96(%rbp), %rdx                 ## 8-byte Reload
	shlq	$5, %rdx
	movq	%rax, %rcx
	addq	%rdx, %rcx
	movq	%rcx, -112(%rbp)                ## 8-byte Spill
	movq	%rax, -104(%rbp)                ## 8-byte Spill
LBB1_2:                                 ## =>This Inner Loop Header: Depth=1
Ltmp0:
	movq	-104(%rbp), %rdi                ## 8-byte Reload
	movq	%rdi, -120(%rbp)                ## 8-byte Spill
	callq	__ZN7StudentC1Ev
Ltmp1:
	jmp	LBB1_3
LBB1_3:                                 ##   in Loop: Header=BB1_2 Depth=1
	movq	-112(%rbp), %rcx                ## 8-byte Reload
	movq	-120(%rbp), %rax                ## 8-byte Reload
	addq	$32, %rax
	cmpq	%rcx, %rax
	movq	%rax, -104(%rbp)                ## 8-byte Spill
	jne	LBB1_2
LBB1_4:
Ltmp5:
	movq	__ZNSt3__14coutE@GOTPCREL(%rip), %rdi
	leaq	L_.str.1(%rip), %rsi
	callq	__ZNSt3__1lsINS_11char_traitsIcEEEERNS_13basic_ostreamIcT_EES6_PKc
	movq	%rax, %rcx
Ltmp6:
	movq	%rcx, -128(%rbp)                ## 8-byte Spill
	jmp	LBB1_5
LBB1_5:
	movq	-128(%rbp), %rdi                ## 8-byte Reload
	movl	-16(%rbp), %esi
Ltmp7:
	callq	__ZNSt3__113basic_ostreamIcNS_11char_traitsIcEEElsEi
	movq	%rax, %rcx
Ltmp8:
	movq	%rcx, -136(%rbp)                ## 8-byte Spill
	jmp	LBB1_6
LBB1_6:
Ltmp9:
	movq	-136(%rbp), %rdi                ## 8-byte Reload
	leaq	L_.str.2(%rip), %rsi
	callq	__ZNSt3__1lsINS_11char_traitsIcEEEERNS_13basic_ostreamIcT_EES6_PKc
	movq	%rax, %rcx
Ltmp10:
	movq	%rcx, -144(%rbp)                ## 8-byte Spill
	jmp	LBB1_7
LBB1_7:
Ltmp11:
	movq	-144(%rbp), %rdi                ## 8-byte Reload
	movq	__ZNSt3__14endlIcNS_11char_traitsIcEEEERNS_13basic_ostreamIT_T0_EES7_@GOTPCREL(%rip), %rsi
	callq	__ZNSt3__113basic_ostreamIcNS_11char_traitsIcEEElsEPFRS3_S4_E
                                        ## kill: def $rcx killed $rax
Ltmp12:
	jmp	LBB1_8
LBB1_8:
	movl	$1, -20(%rbp)
LBB1_9:                                 ## =>This Inner Loop Header: Depth=1
	movl	-20(%rbp), %eax
	cmpl	-16(%rbp), %eax
	jg	LBB1_30
## %bb.10:                              ##   in Loop: Header=BB1_9 Depth=1
Ltmp85:
	movq	__ZNSt3__14coutE@GOTPCREL(%rip), %rdi
	leaq	L_.str.3(%rip), %rsi
	callq	__ZNSt3__1lsINS_11char_traitsIcEEEERNS_13basic_ostreamIcT_EES6_PKc
	movq	%rax, %rcx
Ltmp86:
	movq	%rcx, -152(%rbp)                ## 8-byte Spill
	jmp	LBB1_11
LBB1_11:                                ##   in Loop: Header=BB1_9 Depth=1
	movq	-152(%rbp), %rdi                ## 8-byte Reload
	movl	-20(%rbp), %esi
Ltmp87:
	callq	__ZNSt3__113basic_ostreamIcNS_11char_traitsIcEEElsEi
	movq	%rax, %rcx
Ltmp88:
	movq	%rcx, -160(%rbp)                ## 8-byte Spill
	jmp	LBB1_12
LBB1_12:                                ##   in Loop: Header=BB1_9 Depth=1
Ltmp89:
	movq	-160(%rbp), %rdi                ## 8-byte Reload
	leaq	L_.str.4(%rip), %rsi
	callq	__ZNSt3__1lsINS_11char_traitsIcEEEERNS_13basic_ostreamIcT_EES6_PKc
                                        ## kill: def $rcx killed $rax
Ltmp90:
	jmp	LBB1_13
LBB1_13:                                ##   in Loop: Header=BB1_9 Depth=1
	movq	-88(%rbp), %rsi                 ## 8-byte Reload
	movslq	-20(%rbp), %rcx
	shlq	$5, %rcx
	addq	%rcx, %rsi
Ltmp91:
	movq	%rsi, %rdi
	callq	__ZN7Student7setnameERS_
Ltmp92:
	jmp	LBB1_14
LBB1_14:                                ##   in Loop: Header=BB1_9 Depth=1
Ltmp93:
	movq	__ZNSt3__14coutE@GOTPCREL(%rip), %rdi
	leaq	L_.str.5(%rip), %rsi
	callq	__ZNSt3__1lsINS_11char_traitsIcEEEERNS_13basic_ostreamIcT_EES6_PKc
	movq	%rax, %rcx
Ltmp94:
	movq	%rcx, -168(%rbp)                ## 8-byte Spill
	jmp	LBB1_15
LBB1_15:                                ##   in Loop: Header=BB1_9 Depth=1
	movq	-168(%rbp), %rdi                ## 8-byte Reload
	movl	-20(%rbp), %esi
Ltmp95:
	callq	__ZNSt3__113basic_ostreamIcNS_11char_traitsIcEEElsEi
	movq	%rax, %rcx
Ltmp96:
	movq	%rcx, -176(%rbp)                ## 8-byte Spill
	jmp	LBB1_16
LBB1_16:                                ##   in Loop: Header=BB1_9 Depth=1
Ltmp97:
	movq	-176(%rbp), %rdi                ## 8-byte Reload
	leaq	L_.str.4(%rip), %rsi
	callq	__ZNSt3__1lsINS_11char_traitsIcEEEERNS_13basic_ostreamIcT_EES6_PKc
                                        ## kill: def $rcx killed $rax
Ltmp98:
	jmp	LBB1_17
LBB1_17:                                ##   in Loop: Header=BB1_9 Depth=1
	movq	-88(%rbp), %rsi                 ## 8-byte Reload
	movslq	-20(%rbp), %rcx
	shlq	$5, %rcx
	addq	%rcx, %rsi
Ltmp99:
	movq	%rsi, %rdi
	callq	__ZN7Student6setageERS_
Ltmp100:
	jmp	LBB1_18
LBB1_18:                                ##   in Loop: Header=BB1_9 Depth=1
Ltmp101:
	movq	__ZNSt3__14coutE@GOTPCREL(%rip), %rdi
	leaq	L_.str.6(%rip), %rsi
	callq	__ZNSt3__1lsINS_11char_traitsIcEEEERNS_13basic_ostreamIcT_EES6_PKc
	movq	%rax, %rcx
Ltmp102:
	movq	%rcx, -184(%rbp)                ## 8-byte Spill
	jmp	LBB1_19
LBB1_19:                                ##   in Loop: Header=BB1_9 Depth=1
	movq	-184(%rbp), %rdi                ## 8-byte Reload
	movl	-20(%rbp), %esi
Ltmp103:
	callq	__ZNSt3__113basic_ostreamIcNS_11char_traitsIcEEElsEi
	movq	%rax, %rcx
Ltmp104:
	movq	%rcx, -192(%rbp)                ## 8-byte Spill
	jmp	LBB1_20
LBB1_20:                                ##   in Loop: Header=BB1_9 Depth=1
Ltmp105:
	movq	-192(%rbp), %rdi                ## 8-byte Reload
	leaq	L_.str.4(%rip), %rsi
	callq	__ZNSt3__1lsINS_11char_traitsIcEEEERNS_13basic_ostreamIcT_EES6_PKc
                                        ## kill: def $rcx killed $rax
Ltmp106:
	jmp	LBB1_21
LBB1_21:                                ##   in Loop: Header=BB1_9 Depth=1
	movq	-88(%rbp), %rsi                 ## 8-byte Reload
	movslq	-20(%rbp), %rcx
	shlq	$5, %rcx
	addq	%rcx, %rsi
Ltmp107:
	movq	%rsi, %rdi
	callq	__ZN7Student8setmarksERS_
Ltmp108:
	jmp	LBB1_22
LBB1_22:                                ##   in Loop: Header=BB1_9 Depth=1
Ltmp109:
	movq	__ZNSt3__14coutE@GOTPCREL(%rip), %rdi
	movq	__ZNSt3__14endlIcNS_11char_traitsIcEEEERNS_13basic_ostreamIT_T0_EES7_@GOTPCREL(%rip), %rsi
	callq	__ZNSt3__113basic_ostreamIcNS_11char_traitsIcEEElsEPFRS3_S4_E
                                        ## kill: def $rcx killed $rax
Ltmp110:
	jmp	LBB1_23
LBB1_23:                                ##   in Loop: Header=BB1_9 Depth=1
	movq	-88(%rbp), %rdi                 ## 8-byte Reload
	movslq	-20(%rbp), %rax
	shlq	$5, %rax
	addq	%rax, %rdi
	callq	__Z3addR7Student
## %bb.24:                              ##   in Loop: Header=BB1_9 Depth=1
	movl	-20(%rbp), %eax
	addl	$1, %eax
	movl	%eax, -20(%rbp)
	jmp	LBB1_9
LBB1_25:
Ltmp2:
	movq	-88(%rbp), %rcx                 ## 8-byte Reload
	movq	%rax, %rsi
	movq	-120(%rbp), %rax                ## 8-byte Reload
                                        ## kill: def $edx killed $edx killed $rdx
	movq	%rsi, -48(%rbp)
	movl	%edx, -52(%rbp)
	cmpq	%rax, %rcx
	movq	%rax, -200(%rbp)                ## 8-byte Spill
	je	LBB1_28
LBB1_26:                                ## =>This Inner Loop Header: Depth=1
	movq	-200(%rbp), %rdi                ## 8-byte Reload
	addq	$-32, %rdi
	movq	%rdi, -208(%rbp)                ## 8-byte Spill
Ltmp3:
	callq	__ZN7StudentD1Ev
Ltmp4:
	jmp	LBB1_27
LBB1_27:                                ##   in Loop: Header=BB1_26 Depth=1
	movq	-208(%rbp), %rax                ## 8-byte Reload
	movq	-88(%rbp), %rcx                 ## 8-byte Reload
	cmpq	%rcx, %rax
	movq	%rax, -200(%rbp)                ## 8-byte Spill
	jne	LBB1_26
LBB1_28:
	jmp	LBB1_81
LBB1_29:
Ltmp111:
	movq	%rax, %rcx
	movl	%edx, %eax
	movq	%rcx, -48(%rbp)
	movl	%eax, -52(%rbp)
	jmp	LBB1_77
LBB1_30:
Ltmp13:
	movq	__ZNSt3__14coutE@GOTPCREL(%rip), %rdi
	movq	__ZNSt3__14endlIcNS_11char_traitsIcEEEERNS_13basic_ostreamIT_T0_EES7_@GOTPCREL(%rip), %rsi
	callq	__ZNSt3__113basic_ostreamIcNS_11char_traitsIcEEElsEPFRS3_S4_E
                                        ## kill: def $rcx killed $rax
Ltmp14:
	jmp	LBB1_31
LBB1_31:
Ltmp15:
	movq	__ZNSt3__14coutE@GOTPCREL(%rip), %rdi
	leaq	L_.str.7(%rip), %rsi
	callq	__ZNSt3__1lsINS_11char_traitsIcEEEERNS_13basic_ostreamIcT_EES6_PKc
	movq	%rax, %rcx
Ltmp16:
	movq	%rcx, -216(%rbp)                ## 8-byte Spill
	jmp	LBB1_32
LBB1_32:
	movq	-216(%rbp), %rdi                ## 8-byte Reload
	movl	-16(%rbp), %esi
Ltmp17:
	callq	__ZNSt3__113basic_ostreamIcNS_11char_traitsIcEEElsEi
	movq	%rax, %rcx
Ltmp18:
	movq	%rcx, -224(%rbp)                ## 8-byte Spill
	jmp	LBB1_33
LBB1_33:
Ltmp19:
	movq	-224(%rbp), %rdi                ## 8-byte Reload
	leaq	L_.str.8(%rip), %rsi
	callq	__ZNSt3__1lsINS_11char_traitsIcEEEERNS_13basic_ostreamIcT_EES6_PKc
	movq	%rax, %rcx
Ltmp20:
	movq	%rcx, -232(%rbp)                ## 8-byte Spill
	jmp	LBB1_34
LBB1_34:
Ltmp21:
	movq	-232(%rbp), %rdi                ## 8-byte Reload
	movq	__ZNSt3__14endlIcNS_11char_traitsIcEEEERNS_13basic_ostreamIT_T0_EES7_@GOTPCREL(%rip), %rsi
	callq	__ZNSt3__113basic_ostreamIcNS_11char_traitsIcEEElsEPFRS3_S4_E
                                        ## kill: def $rcx killed $rax
Ltmp22:
	jmp	LBB1_35
LBB1_35:
	movl	$1, -20(%rbp)
LBB1_36:                                ## =>This Inner Loop Header: Depth=1
	movl	-20(%rbp), %eax
	cmpl	-16(%rbp), %eax
	jg	LBB1_61
## %bb.37:                              ##   in Loop: Header=BB1_36 Depth=1
Ltmp42:
	movq	__ZNSt3__14coutE@GOTPCREL(%rip), %rdi
	leaq	L_.str.9(%rip), %rsi
	callq	__ZNSt3__1lsINS_11char_traitsIcEEEERNS_13basic_ostreamIcT_EES6_PKc
	movq	%rax, %rcx
Ltmp43:
	movq	%rcx, -240(%rbp)                ## 8-byte Spill
	jmp	LBB1_38
LBB1_38:                                ##   in Loop: Header=BB1_36 Depth=1
	movq	-240(%rbp), %rdi                ## 8-byte Reload
	movl	-20(%rbp), %esi
Ltmp44:
	callq	__ZNSt3__113basic_ostreamIcNS_11char_traitsIcEEElsEi
	movq	%rax, %rcx
Ltmp45:
	movq	%rcx, -248(%rbp)                ## 8-byte Spill
	jmp	LBB1_39
LBB1_39:                                ##   in Loop: Header=BB1_36 Depth=1
Ltmp46:
	movq	-248(%rbp), %rdi                ## 8-byte Reload
	leaq	L_.str.10(%rip), %rsi
	callq	__ZNSt3__1lsINS_11char_traitsIcEEEERNS_13basic_ostreamIcT_EES6_PKc
	movq	%rax, %rcx
Ltmp47:
	movq	%rcx, -256(%rbp)                ## 8-byte Spill
	jmp	LBB1_40
LBB1_40:                                ##   in Loop: Header=BB1_36 Depth=1
	movq	-88(%rbp), %rdx                 ## 8-byte Reload
	movslq	-20(%rbp), %rcx
	shlq	$5, %rcx
	addq	%rcx, %rdx
Ltmp48:
	leaq	-80(%rbp), %rdi
	movq	%rdx, %rsi
	callq	__ZN7Student7getnameERS_
Ltmp49:
	jmp	LBB1_41
LBB1_41:                                ##   in Loop: Header=BB1_36 Depth=1
Ltmp50:
	movq	-256(%rbp), %rdi                ## 8-byte Reload
	leaq	-80(%rbp), %rsi
	callq	__ZNSt3__1lsIcNS_11char_traitsIcEENS_9allocatorIcEEEERNS_13basic_ostreamIT_T0_EES9_RKNS_12basic_stringIS6_S7_T1_EE
	movq	%rax, %rcx
Ltmp51:
	movq	%rcx, -264(%rbp)                ## 8-byte Spill
	jmp	LBB1_42
LBB1_42:                                ##   in Loop: Header=BB1_36 Depth=1
Ltmp52:
	movq	-264(%rbp), %rdi                ## 8-byte Reload
	movq	__ZNSt3__14endlIcNS_11char_traitsIcEEEERNS_13basic_ostreamIT_T0_EES7_@GOTPCREL(%rip), %rsi
	callq	__ZNSt3__113basic_ostreamIcNS_11char_traitsIcEEElsEPFRS3_S4_E
                                        ## kill: def $rcx killed $rax
Ltmp53:
	jmp	LBB1_43
LBB1_43:                                ##   in Loop: Header=BB1_36 Depth=1
Ltmp57:
	leaq	-80(%rbp), %rdi
	callq	__ZNSt3__112basic_stringIcNS_11char_traitsIcEENS_9allocatorIcEEED1Ev
Ltmp58:
	jmp	LBB1_44
LBB1_44:                                ##   in Loop: Header=BB1_36 Depth=1
Ltmp59:
	movq	__ZNSt3__14coutE@GOTPCREL(%rip), %rdi
	leaq	L_.str.11(%rip), %rsi
	callq	__ZNSt3__1lsINS_11char_traitsIcEEEERNS_13basic_ostreamIcT_EES6_PKc
	movq	%rax, %rcx
Ltmp60:
	movq	%rcx, -272(%rbp)                ## 8-byte Spill
	jmp	LBB1_45
LBB1_45:                                ##   in Loop: Header=BB1_36 Depth=1
	movq	-272(%rbp), %rdi                ## 8-byte Reload
	movl	-20(%rbp), %esi
Ltmp61:
	callq	__ZNSt3__113basic_ostreamIcNS_11char_traitsIcEEElsEi
	movq	%rax, %rcx
Ltmp62:
	movq	%rcx, -280(%rbp)                ## 8-byte Spill
	jmp	LBB1_46
LBB1_46:                                ##   in Loop: Header=BB1_36 Depth=1
Ltmp63:
	movq	-280(%rbp), %rdi                ## 8-byte Reload
	leaq	L_.str.10(%rip), %rsi
	callq	__ZNSt3__1lsINS_11char_traitsIcEEEERNS_13basic_ostreamIcT_EES6_PKc
	movq	%rax, %rcx
Ltmp64:
	movq	%rcx, -288(%rbp)                ## 8-byte Spill
	jmp	LBB1_47
LBB1_47:                                ##   in Loop: Header=BB1_36 Depth=1
	movq	-88(%rbp), %rsi                 ## 8-byte Reload
	movslq	-20(%rbp), %rax
	shlq	$5, %rax
	addq	%rax, %rsi
Ltmp65:
	movq	%rsi, %rdi
	callq	__ZN7Student6getageERS_
	movl	%eax, %ecx
Ltmp66:
	movl	%ecx, -292(%rbp)                ## 4-byte Spill
	jmp	LBB1_48
LBB1_48:                                ##   in Loop: Header=BB1_36 Depth=1
Ltmp67:
	movl	-292(%rbp), %esi                ## 4-byte Reload
	movq	-288(%rbp), %rdi                ## 8-byte Reload
	callq	__ZNSt3__113basic_ostreamIcNS_11char_traitsIcEEElsEi
	movq	%rax, %rcx
Ltmp68:
	movq	%rcx, -304(%rbp)                ## 8-byte Spill
	jmp	LBB1_49
LBB1_49:                                ##   in Loop: Header=BB1_36 Depth=1
Ltmp69:
	movq	-304(%rbp), %rdi                ## 8-byte Reload
	movq	__ZNSt3__14endlIcNS_11char_traitsIcEEEERNS_13basic_ostreamIT_T0_EES7_@GOTPCREL(%rip), %rsi
	callq	__ZNSt3__113basic_ostreamIcNS_11char_traitsIcEEElsEPFRS3_S4_E
                                        ## kill: def $rcx killed $rax
Ltmp70:
	jmp	LBB1_50
LBB1_50:                                ##   in Loop: Header=BB1_36 Depth=1
Ltmp71:
	movq	__ZNSt3__14coutE@GOTPCREL(%rip), %rdi
	leaq	L_.str.12(%rip), %rsi
	callq	__ZNSt3__1lsINS_11char_traitsIcEEEERNS_13basic_ostreamIcT_EES6_PKc
	movq	%rax, %rcx
Ltmp72:
	movq	%rcx, -312(%rbp)                ## 8-byte Spill
	jmp	LBB1_51
LBB1_51:                                ##   in Loop: Header=BB1_36 Depth=1
	movq	-312(%rbp), %rdi                ## 8-byte Reload
	movl	-20(%rbp), %esi
Ltmp73:
	callq	__ZNSt3__113basic_ostreamIcNS_11char_traitsIcEEElsEi
	movq	%rax, %rcx
Ltmp74:
	movq	%rcx, -320(%rbp)                ## 8-byte Spill
	jmp	LBB1_52
LBB1_52:                                ##   in Loop: Header=BB1_36 Depth=1
Ltmp75:
	movq	-320(%rbp), %rdi                ## 8-byte Reload
	leaq	L_.str.10(%rip), %rsi
	callq	__ZNSt3__1lsINS_11char_traitsIcEEEERNS_13basic_ostreamIcT_EES6_PKc
	movq	%rax, %rcx
Ltmp76:
	movq	%rcx, -328(%rbp)                ## 8-byte Spill
	jmp	LBB1_53
LBB1_53:                                ##   in Loop: Header=BB1_36 Depth=1
	movq	-88(%rbp), %rsi                 ## 8-byte Reload
	movslq	-20(%rbp), %rax
	shlq	$5, %rax
	addq	%rax, %rsi
Ltmp77:
	movq	%rsi, %rdi
	callq	__ZN7Student8getmarksERS_
	movl	%eax, %ecx
Ltmp78:
	movl	%ecx, -332(%rbp)                ## 4-byte Spill
	jmp	LBB1_54
LBB1_54:                                ##   in Loop: Header=BB1_36 Depth=1
Ltmp79:
	movl	-332(%rbp), %esi                ## 4-byte Reload
	movq	-328(%rbp), %rdi                ## 8-byte Reload
	callq	__ZNSt3__113basic_ostreamIcNS_11char_traitsIcEEElsEi
	movq	%rax, %rcx
Ltmp80:
	movq	%rcx, -344(%rbp)                ## 8-byte Spill
	jmp	LBB1_55
LBB1_55:                                ##   in Loop: Header=BB1_36 Depth=1
Ltmp81:
	movq	-344(%rbp), %rdi                ## 8-byte Reload
	movq	__ZNSt3__14endlIcNS_11char_traitsIcEEEERNS_13basic_ostreamIT_T0_EES7_@GOTPCREL(%rip), %rsi
	callq	__ZNSt3__113basic_ostreamIcNS_11char_traitsIcEEElsEPFRS3_S4_E
                                        ## kill: def $rcx killed $rax
Ltmp82:
	jmp	LBB1_56
LBB1_56:                                ##   in Loop: Header=BB1_36 Depth=1
Ltmp83:
	movq	__ZNSt3__14coutE@GOTPCREL(%rip), %rdi
	movq	__ZNSt3__14endlIcNS_11char_traitsIcEEEERNS_13basic_ostreamIT_T0_EES7_@GOTPCREL(%rip), %rsi
	callq	__ZNSt3__113basic_ostreamIcNS_11char_traitsIcEEElsEPFRS3_S4_E
                                        ## kill: def $rcx killed $rax
Ltmp84:
	jmp	LBB1_57
LBB1_57:                                ##   in Loop: Header=BB1_36 Depth=1
	jmp	LBB1_58
LBB1_58:                                ##   in Loop: Header=BB1_36 Depth=1
	movl	-20(%rbp), %eax
	addl	$1, %eax
	movl	%eax, -20(%rbp)
	jmp	LBB1_36
LBB1_59:
Ltmp54:
	movq	%rdx, %rcx
	movq	%rax, %rsi
                                        ## kill: def $ecx killed $ecx killed $rcx
	movq	%rsi, -48(%rbp)
	movl	%ecx, -52(%rbp)
Ltmp55:
	leaq	-80(%rbp), %rdi
	callq	__ZNSt3__112basic_stringIcNS_11char_traitsIcEENS_9allocatorIcEEED1Ev
Ltmp56:
	jmp	LBB1_60
LBB1_60:
	jmp	LBB1_77
LBB1_61:
Ltmp23:
	movq	__ZNSt3__14coutE@GOTPCREL(%rip), %rdi
	movq	__ZNSt3__14endlIcNS_11char_traitsIcEEEERNS_13basic_ostreamIT_T0_EES7_@GOTPCREL(%rip), %rsi
	callq	__ZNSt3__113basic_ostreamIcNS_11char_traitsIcEEElsEPFRS3_S4_E
                                        ## kill: def $rcx killed $rax
Ltmp24:
	jmp	LBB1_62
LBB1_62:
Ltmp25:
	movq	__ZNSt3__14coutE@GOTPCREL(%rip), %rdi
	leaq	L_.str.13(%rip), %rsi
	callq	__ZNSt3__1lsINS_11char_traitsIcEEEERNS_13basic_ostreamIcT_EES6_PKc
	movq	%rax, %rcx
Ltmp26:
	movq	%rcx, -352(%rbp)                ## 8-byte Spill
	jmp	LBB1_63
LBB1_63:
	movq	-352(%rbp), %rdi                ## 8-byte Reload
	movl	-16(%rbp), %esi
Ltmp27:
	callq	__ZNSt3__113basic_ostreamIcNS_11char_traitsIcEEElsEi
	movq	%rax, %rcx
Ltmp28:
	movq	%rcx, -360(%rbp)                ## 8-byte Spill
	jmp	LBB1_64
LBB1_64:
Ltmp29:
	movq	-360(%rbp), %rdi                ## 8-byte Reload
	leaq	L_.str.14(%rip), %rsi
	callq	__ZNSt3__1lsINS_11char_traitsIcEEEERNS_13basic_ostreamIcT_EES6_PKc
	movq	%rax, %rcx
Ltmp30:
	movq	%rcx, -368(%rbp)                ## 8-byte Spill
	jmp	LBB1_65
LBB1_65:
	movq	-88(%rbp), %rsi                 ## 8-byte Reload
	movslq	-20(%rbp), %rax
	shlq	$5, %rax
	addq	%rax, %rsi
Ltmp31:
	movq	%rsi, %rdi
	callq	__ZN7Student6getsumERS_
	movl	%eax, %ecx
Ltmp32:
	movl	%ecx, -372(%rbp)                ## 4-byte Spill
	jmp	LBB1_66
LBB1_66:
Ltmp33:
	movl	-372(%rbp), %esi                ## 4-byte Reload
	movq	-368(%rbp), %rdi                ## 8-byte Reload
	callq	__ZNSt3__113basic_ostreamIcNS_11char_traitsIcEEElsEi
	movq	%rax, %rcx
Ltmp34:
	movq	%rcx, -384(%rbp)                ## 8-byte Spill
	jmp	LBB1_67
LBB1_67:
Ltmp35:
	movq	-384(%rbp), %rdi                ## 8-byte Reload
	movq	__ZNSt3__14endlIcNS_11char_traitsIcEEEERNS_13basic_ostreamIT_T0_EES7_@GOTPCREL(%rip), %rsi
	callq	__ZNSt3__113basic_ostreamIcNS_11char_traitsIcEEElsEPFRS3_S4_E
                                        ## kill: def $rcx killed $rax
Ltmp36:
	jmp	LBB1_68
LBB1_68:
	movq	-88(%rbp), %rcx                 ## 8-byte Reload
	movq	-96(%rbp), %rdx                 ## 8-byte Reload
	movl	$0, -12(%rbp)
	shlq	$5, %rdx
	movq	%rcx, %rax
	addq	%rdx, %rax
	cmpq	%rax, %rcx
	movq	%rax, -392(%rbp)                ## 8-byte Spill
	je	LBB1_71
LBB1_69:                                ## =>This Inner Loop Header: Depth=1
	movq	-392(%rbp), %rdi                ## 8-byte Reload
	addq	$-32, %rdi
	movq	%rdi, -400(%rbp)                ## 8-byte Spill
Ltmp37:
	callq	__ZN7StudentD1Ev
Ltmp38:
	jmp	LBB1_70
LBB1_70:                                ##   in Loop: Header=BB1_69 Depth=1
	movq	-400(%rbp), %rax                ## 8-byte Reload
	movq	-88(%rbp), %rcx                 ## 8-byte Reload
	cmpq	%rcx, %rax
	movq	%rax, -392(%rbp)                ## 8-byte Spill
	jne	LBB1_69
LBB1_71:
	movq	-32(%rbp), %rax
	movq	%rax, %rsp
	movl	-12(%rbp), %eax
	movl	%eax, -404(%rbp)                ## 4-byte Spill
	movq	___stack_chk_guard@GOTPCREL(%rip), %rax
	movq	(%rax), %rax
	movq	-8(%rbp), %rcx
	cmpq	%rcx, %rax
	jne	LBB1_83
## %bb.72:
	movl	-404(%rbp), %eax                ## 4-byte Reload
	movq	%rbp, %rsp
	popq	%rbp
	retq
LBB1_73:
Ltmp39:
	movq	-88(%rbp), %rcx                 ## 8-byte Reload
	movq	%rax, %rsi
	movq	-400(%rbp), %rax                ## 8-byte Reload
                                        ## kill: def $edx killed $edx killed $rdx
	movq	%rsi, -48(%rbp)
	movl	%edx, -52(%rbp)
	cmpq	%rax, %rcx
	movq	%rax, -416(%rbp)                ## 8-byte Spill
	je	LBB1_76
LBB1_74:                                ## =>This Inner Loop Header: Depth=1
	movq	-416(%rbp), %rdi                ## 8-byte Reload
	addq	$-32, %rdi
	movq	%rdi, -424(%rbp)                ## 8-byte Spill
Ltmp40:
	callq	__ZN7StudentD1Ev
Ltmp41:
	jmp	LBB1_75
LBB1_75:                                ##   in Loop: Header=BB1_74 Depth=1
	movq	-424(%rbp), %rax                ## 8-byte Reload
	movq	-88(%rbp), %rcx                 ## 8-byte Reload
	cmpq	%rcx, %rax
	movq	%rax, -416(%rbp)                ## 8-byte Spill
	jne	LBB1_74
LBB1_76:
	jmp	LBB1_81
LBB1_77:
	movq	-88(%rbp), %rcx                 ## 8-byte Reload
	movq	-96(%rbp), %rdx                 ## 8-byte Reload
	shlq	$5, %rdx
	movq	%rcx, %rax
	addq	%rdx, %rax
	cmpq	%rax, %rcx
	movq	%rax, -432(%rbp)                ## 8-byte Spill
	je	LBB1_80
LBB1_78:                                ## =>This Inner Loop Header: Depth=1
	movq	-432(%rbp), %rdi                ## 8-byte Reload
	addq	$-32, %rdi
	movq	%rdi, -440(%rbp)                ## 8-byte Spill
Ltmp112:
	callq	__ZN7StudentD1Ev
Ltmp113:
	jmp	LBB1_79
LBB1_79:                                ##   in Loop: Header=BB1_78 Depth=1
	movq	-440(%rbp), %rax                ## 8-byte Reload
	movq	-88(%rbp), %rcx                 ## 8-byte Reload
	cmpq	%rcx, %rax
	movq	%rax, -432(%rbp)                ## 8-byte Spill
	jne	LBB1_78
LBB1_80:
	jmp	LBB1_81
LBB1_81:
	movq	-48(%rbp), %rdi
	callq	__Unwind_Resume
LBB1_82:
Ltmp114:
	movq	%rax, %rdi
	callq	___clang_call_terminate
LBB1_83:
	callq	___stack_chk_fail
	ud2
Lfunc_end0:
	.cfi_endproc
	.section	__TEXT,__gcc_except_tab
	.p2align	2
GCC_except_table1:
Lexception0:
	.byte	255                             ## @LPStart Encoding = omit
	.byte	155                             ## @TType Encoding = indirect pcrel sdata4
	.uleb128 Lttbase0-Lttbaseref0
Lttbaseref0:
	.byte	1                               ## Call site Encoding = uleb128
	.uleb128 Lcst_end0-Lcst_begin0
Lcst_begin0:
	.uleb128 Lfunc_begin0-Lfunc_begin0      ## >> Call Site 1 <<
	.uleb128 Ltmp0-Lfunc_begin0             ##   Call between Lfunc_begin0 and Ltmp0
	.byte	0                               ##     has no landing pad
	.byte	0                               ##   On action: cleanup
	.uleb128 Ltmp0-Lfunc_begin0             ## >> Call Site 2 <<
	.uleb128 Ltmp1-Ltmp0                    ##   Call between Ltmp0 and Ltmp1
	.uleb128 Ltmp2-Lfunc_begin0             ##     jumps to Ltmp2
	.byte	0                               ##   On action: cleanup
	.uleb128 Ltmp5-Lfunc_begin0             ## >> Call Site 3 <<
	.uleb128 Ltmp110-Ltmp5                  ##   Call between Ltmp5 and Ltmp110
	.uleb128 Ltmp111-Lfunc_begin0           ##     jumps to Ltmp111
	.byte	0                               ##   On action: cleanup
	.uleb128 Ltmp3-Lfunc_begin0             ## >> Call Site 4 <<
	.uleb128 Ltmp4-Ltmp3                    ##   Call between Ltmp3 and Ltmp4
	.uleb128 Ltmp114-Lfunc_begin0           ##     jumps to Ltmp114
	.byte	1                               ##   On action: 1
	.uleb128 Ltmp13-Lfunc_begin0            ## >> Call Site 5 <<
	.uleb128 Ltmp49-Ltmp13                  ##   Call between Ltmp13 and Ltmp49
	.uleb128 Ltmp111-Lfunc_begin0           ##     jumps to Ltmp111
	.byte	0                               ##   On action: cleanup
	.uleb128 Ltmp50-Lfunc_begin0            ## >> Call Site 6 <<
	.uleb128 Ltmp53-Ltmp50                  ##   Call between Ltmp50 and Ltmp53
	.uleb128 Ltmp54-Lfunc_begin0            ##     jumps to Ltmp54
	.byte	0                               ##   On action: cleanup
	.uleb128 Ltmp57-Lfunc_begin0            ## >> Call Site 7 <<
	.uleb128 Ltmp84-Ltmp57                  ##   Call between Ltmp57 and Ltmp84
	.uleb128 Ltmp111-Lfunc_begin0           ##     jumps to Ltmp111
	.byte	0                               ##   On action: cleanup
	.uleb128 Ltmp55-Lfunc_begin0            ## >> Call Site 8 <<
	.uleb128 Ltmp56-Ltmp55                  ##   Call between Ltmp55 and Ltmp56
	.uleb128 Ltmp114-Lfunc_begin0           ##     jumps to Ltmp114
	.byte	1                               ##   On action: 1
	.uleb128 Ltmp23-Lfunc_begin0            ## >> Call Site 9 <<
	.uleb128 Ltmp36-Ltmp23                  ##   Call between Ltmp23 and Ltmp36
	.uleb128 Ltmp111-Lfunc_begin0           ##     jumps to Ltmp111
	.byte	0                               ##   On action: cleanup
	.uleb128 Ltmp37-Lfunc_begin0            ## >> Call Site 10 <<
	.uleb128 Ltmp38-Ltmp37                  ##   Call between Ltmp37 and Ltmp38
	.uleb128 Ltmp39-Lfunc_begin0            ##     jumps to Ltmp39
	.byte	0                               ##   On action: cleanup
	.uleb128 Ltmp40-Lfunc_begin0            ## >> Call Site 11 <<
	.uleb128 Ltmp113-Ltmp40                 ##   Call between Ltmp40 and Ltmp113
	.uleb128 Ltmp114-Lfunc_begin0           ##     jumps to Ltmp114
	.byte	1                               ##   On action: 1
	.uleb128 Ltmp113-Lfunc_begin0           ## >> Call Site 12 <<
	.uleb128 Lfunc_end0-Ltmp113             ##   Call between Ltmp113 and Lfunc_end0
	.byte	0                               ##     has no landing pad
	.byte	0                               ##   On action: cleanup
Lcst_end0:
	.byte	1                               ## >> Action Record 1 <<
                                        ##   Catch TypeInfo 1
	.byte	0                               ##   No further actions
	.p2align	2
                                        ## >> Catch TypeInfos <<
	.long	0                               ## TypeInfo 1
Lttbase0:
	.p2align	2
                                        ## -- End function
	.section	__TEXT,__text,regular,pure_instructions
	.globl	__ZNSt3__1lsINS_11char_traitsIcEEEERNS_13basic_ostreamIcT_EES6_PKc ## -- Begin function _ZNSt3__1lsINS_11char_traitsIcEEEERNS_13basic_ostreamIcT_EES6_PKc
	.weak_definition	__ZNSt3__1lsINS_11char_traitsIcEEEERNS_13basic_ostreamIcT_EES6_PKc
	.p2align	4, 0x90
__ZNSt3__1lsINS_11char_traitsIcEEEERNS_13basic_ostreamIcT_EES6_PKc: ## @_ZNSt3__1lsINS_11char_traitsIcEEEERNS_13basic_ostreamIcT_EES6_PKc
	.cfi_startproc
## %bb.0:
	pushq	%rbp
	.cfi_def_cfa_offset 16
	.cfi_offset %rbp, -16
	movq	%rsp, %rbp
	.cfi_def_cfa_register %rbp
	subq	$32, %rsp
	movq	%rdi, -8(%rbp)
	movq	%rsi, -16(%rbp)
	movq	-8(%rbp), %rax
	movq	%rax, -32(%rbp)                 ## 8-byte Spill
	movq	-16(%rbp), %rax
	movq	%rax, -24(%rbp)                 ## 8-byte Spill
	movq	-16(%rbp), %rdi
	callq	__ZNSt3__111char_traitsIcE6lengthEPKc
	movq	-32(%rbp), %rdi                 ## 8-byte Reload
	movq	-24(%rbp), %rsi                 ## 8-byte Reload
	movq	%rax, %rdx
	callq	__ZNSt3__124__put_character_sequenceIcNS_11char_traitsIcEEEERNS_13basic_ostreamIT_T0_EES7_PKS4_m
	addq	$32, %rsp
	popq	%rbp
	retq
	.cfi_endproc
                                        ## -- End function
	.globl	__ZN7StudentC1Ev                ## -- Begin function _ZN7StudentC1Ev
	.weak_def_can_be_hidden	__ZN7StudentC1Ev
	.p2align	4, 0x90
__ZN7StudentC1Ev:                       ## @_ZN7StudentC1Ev
	.cfi_startproc
## %bb.0:
	pushq	%rbp
	.cfi_def_cfa_offset 16
	.cfi_offset %rbp, -16
	movq	%rsp, %rbp
	.cfi_def_cfa_register %rbp
	subq	$16, %rsp
	movq	%rdi, -8(%rbp)
	movq	-8(%rbp), %rdi
	callq	__ZN7StudentC2Ev
	addq	$16, %rsp
	popq	%rbp
	retq
	.cfi_endproc
                                        ## -- End function
	.globl	__ZN7StudentD1Ev                ## -- Begin function _ZN7StudentD1Ev
	.weak_def_can_be_hidden	__ZN7StudentD1Ev
	.p2align	4, 0x90
__ZN7StudentD1Ev:                       ## @_ZN7StudentD1Ev
	.cfi_startproc
## %bb.0:
	pushq	%rbp
	.cfi_def_cfa_offset 16
	.cfi_offset %rbp, -16
	movq	%rsp, %rbp
	.cfi_def_cfa_register %rbp
	subq	$16, %rsp
	movq	%rdi, -8(%rbp)
	movq	-8(%rbp), %rdi
	callq	__ZN7StudentD2Ev
	addq	$16, %rsp
	popq	%rbp
	retq
	.cfi_endproc
                                        ## -- End function
	.private_extern	___clang_call_terminate ## -- Begin function __clang_call_terminate
	.globl	___clang_call_terminate
	.weak_definition	___clang_call_terminate
	.p2align	4, 0x90
___clang_call_terminate:                ## @__clang_call_terminate
## %bb.0:
	pushq	%rax
	callq	___cxa_begin_catch
	callq	__ZSt9terminatev
                                        ## -- End function
	.p2align	4, 0x90                         ## -- Begin function _ZNSt3__113basic_ostreamIcNS_11char_traitsIcEEElsEPFRS3_S4_E
__ZNSt3__113basic_ostreamIcNS_11char_traitsIcEEElsEPFRS3_S4_E: ## @_ZNSt3__113basic_ostreamIcNS_11char_traitsIcEEElsEPFRS3_S4_E
	.cfi_startproc
## %bb.0:
	pushq	%rbp
	.cfi_def_cfa_offset 16
	.cfi_offset %rbp, -16
	movq	%rsp, %rbp
	.cfi_def_cfa_register %rbp
	subq	$16, %rsp
	movq	%rdi, -8(%rbp)
	movq	%rsi, -16(%rbp)
	movq	-8(%rbp), %rdi
	callq	*-16(%rbp)
	addq	$16, %rsp
	popq	%rbp
	retq
	.cfi_endproc
                                        ## -- End function
	.globl	__ZNSt3__14endlIcNS_11char_traitsIcEEEERNS_13basic_ostreamIT_T0_EES7_ ## -- Begin function _ZNSt3__14endlIcNS_11char_traitsIcEEEERNS_13basic_ostreamIT_T0_EES7_
	.weak_definition	__ZNSt3__14endlIcNS_11char_traitsIcEEEERNS_13basic_ostreamIT_T0_EES7_
	.p2align	4, 0x90
__ZNSt3__14endlIcNS_11char_traitsIcEEEERNS_13basic_ostreamIT_T0_EES7_: ## @_ZNSt3__14endlIcNS_11char_traitsIcEEEERNS_13basic_ostreamIT_T0_EES7_
	.cfi_startproc
## %bb.0:
	pushq	%rbp
	.cfi_def_cfa_offset 16
	.cfi_offset %rbp, -16
	movq	%rsp, %rbp
	.cfi_def_cfa_register %rbp
	subq	$16, %rsp
	movq	%rdi, -8(%rbp)
	movq	-8(%rbp), %rax
	movq	%rax, -16(%rbp)                 ## 8-byte Spill
	movq	-8(%rbp), %rdi
	movq	(%rdi), %rax
	movq	-24(%rax), %rax
	addq	%rax, %rdi
	movl	$10, %esi
	callq	__ZNKSt3__19basic_iosIcNS_11char_traitsIcEEE5widenEc
	movq	-16(%rbp), %rdi                 ## 8-byte Reload
	movsbl	%al, %esi
	callq	__ZNSt3__113basic_ostreamIcNS_11char_traitsIcEEE3putEc
	movq	-8(%rbp), %rdi
	callq	__ZNSt3__113basic_ostreamIcNS_11char_traitsIcEEE5flushEv
	movq	-8(%rbp), %rax
	addq	$16, %rsp
	popq	%rbp
	retq
	.cfi_endproc
                                        ## -- End function
	.globl	__ZN7Student7setnameERS_        ## -- Begin function _ZN7Student7setnameERS_
	.weak_definition	__ZN7Student7setnameERS_
	.p2align	4, 0x90
__ZN7Student7setnameERS_:               ## @_ZN7Student7setnameERS_
	.cfi_startproc
## %bb.0:
	pushq	%rbp
	.cfi_def_cfa_offset 16
	.cfi_offset %rbp, -16
	movq	%rsp, %rbp
	.cfi_def_cfa_register %rbp
	subq	$16, %rsp
	movq	___stdinp@GOTPCREL(%rip), %rax
	movq	%rdi, -8(%rbp)
	movq	%rsi, -16(%rbp)
	movq	(%rax), %rdi
	callq	_fflush
	movq	__ZNSt3__13cinE@GOTPCREL(%rip), %rdi
	movq	-16(%rbp), %rsi
	callq	__ZNSt3__1L7getlineIcNS_11char_traitsIcEENS_9allocatorIcEEEERNS_13basic_istreamIT_T0_EES9_RNS_12basic_stringIS6_S7_T1_EE
	addq	$16, %rsp
	popq	%rbp
	retq
	.cfi_endproc
                                        ## -- End function
	.globl	__ZN7Student6setageERS_         ## -- Begin function _ZN7Student6setageERS_
	.weak_definition	__ZN7Student6setageERS_
	.p2align	4, 0x90
__ZN7Student6setageERS_:                ## @_ZN7Student6setageERS_
	.cfi_startproc
## %bb.0:
	pushq	%rbp
	.cfi_def_cfa_offset 16
	.cfi_offset %rbp, -16
	movq	%rsp, %rbp
	.cfi_def_cfa_register %rbp
	subq	$16, %rsp
	movq	%rdi, %rax
	movq	__ZNSt3__13cinE@GOTPCREL(%rip), %rdi
	movq	%rax, -8(%rbp)
	movq	%rsi, -16(%rbp)
	movq	-16(%rbp), %rsi
	addq	$24, %rsi
	callq	__ZNSt3__113basic_istreamIcNS_11char_traitsIcEEErsERi
	addq	$16, %rsp
	popq	%rbp
	retq
	.cfi_endproc
                                        ## -- End function
	.globl	__ZN7Student8setmarksERS_       ## -- Begin function _ZN7Student8setmarksERS_
	.weak_definition	__ZN7Student8setmarksERS_
	.p2align	4, 0x90
__ZN7Student8setmarksERS_:              ## @_ZN7Student8setmarksERS_
	.cfi_startproc
## %bb.0:
	pushq	%rbp
	.cfi_def_cfa_offset 16
	.cfi_offset %rbp, -16
	movq	%rsp, %rbp
	.cfi_def_cfa_register %rbp
	subq	$16, %rsp
	movq	%rdi, %rax
	movq	__ZNSt3__13cinE@GOTPCREL(%rip), %rdi
	movq	%rax, -8(%rbp)
	movq	%rsi, -16(%rbp)
	movq	-16(%rbp), %rsi
	addq	$28, %rsi
	callq	__ZNSt3__113basic_istreamIcNS_11char_traitsIcEEErsERi
	addq	$16, %rsp
	popq	%rbp
	retq
	.cfi_endproc
                                        ## -- End function
	.globl	__ZNSt3__1lsIcNS_11char_traitsIcEENS_9allocatorIcEEEERNS_13basic_ostreamIT_T0_EES9_RKNS_12basic_stringIS6_S7_T1_EE ## -- Begin function _ZNSt3__1lsIcNS_11char_traitsIcEENS_9allocatorIcEEEERNS_13basic_ostreamIT_T0_EES9_RKNS_12basic_stringIS6_S7_T1_EE
	.weak_definition	__ZNSt3__1lsIcNS_11char_traitsIcEENS_9allocatorIcEEEERNS_13basic_ostreamIT_T0_EES9_RKNS_12basic_stringIS6_S7_T1_EE
	.p2align	4, 0x90
__ZNSt3__1lsIcNS_11char_traitsIcEENS_9allocatorIcEEEERNS_13basic_ostreamIT_T0_EES9_RKNS_12basic_stringIS6_S7_T1_EE: ## @_ZNSt3__1lsIcNS_11char_traitsIcEENS_9allocatorIcEEEERNS_13basic_ostreamIT_T0_EES9_RKNS_12basic_stringIS6_S7_T1_EE
	.cfi_startproc
## %bb.0:
	pushq	%rbp
	.cfi_def_cfa_offset 16
	.cfi_offset %rbp, -16
	movq	%rsp, %rbp
	.cfi_def_cfa_register %rbp
	subq	$32, %rsp
	movq	%rdi, -8(%rbp)
	movq	%rsi, -16(%rbp)
	movq	-8(%rbp), %rax
	movq	%rax, -32(%rbp)                 ## 8-byte Spill
	movq	-16(%rbp), %rdi
	callq	__ZNKSt3__112basic_stringIcNS_11char_traitsIcEENS_9allocatorIcEEE4dataEv
	movq	%rax, -24(%rbp)                 ## 8-byte Spill
	movq	-16(%rbp), %rdi
	callq	__ZNKSt3__112basic_stringIcNS_11char_traitsIcEENS_9allocatorIcEEE4sizeEv
	movq	-32(%rbp), %rdi                 ## 8-byte Reload
	movq	-24(%rbp), %rsi                 ## 8-byte Reload
	movq	%rax, %rdx
	callq	__ZNSt3__124__put_character_sequenceIcNS_11char_traitsIcEEEERNS_13basic_ostreamIT_T0_EES7_PKS4_m
	addq	$32, %rsp
	popq	%rbp
	retq
	.cfi_endproc
                                        ## -- End function
	.globl	__ZN7Student7getnameERS_        ## -- Begin function _ZN7Student7getnameERS_
	.weak_definition	__ZN7Student7getnameERS_
	.p2align	4, 0x90
__ZN7Student7getnameERS_:               ## @_ZN7Student7getnameERS_
	.cfi_startproc
## %bb.0:
	pushq	%rbp
	.cfi_def_cfa_offset 16
	.cfi_offset %rbp, -16
	movq	%rsp, %rbp
	.cfi_def_cfa_register %rbp
	subq	$32, %rsp
	movq	%rdi, %rax
	movq	%rax, -32(%rbp)                 ## 8-byte Spill
	movq	%rdi, %rax
	movq	%rax, -8(%rbp)
	movq	%rsi, -16(%rbp)
	movq	%rdx, -24(%rbp)
	movq	-24(%rbp), %rsi
	callq	__ZNSt3__112basic_stringIcNS_11char_traitsIcEENS_9allocatorIcEEEC1ERKS5_
	movq	-32(%rbp), %rax                 ## 8-byte Reload
	addq	$32, %rsp
	popq	%rbp
	retq
	.cfi_endproc
                                        ## -- End function
	.globl	__ZN7Student6getageERS_         ## -- Begin function _ZN7Student6getageERS_
	.weak_definition	__ZN7Student6getageERS_
	.p2align	4, 0x90
__ZN7Student6getageERS_:                ## @_ZN7Student6getageERS_
	.cfi_startproc
## %bb.0:
	pushq	%rbp
	.cfi_def_cfa_offset 16
	.cfi_offset %rbp, -16
	movq	%rsp, %rbp
	.cfi_def_cfa_register %rbp
	movq	%rdi, -8(%rbp)
	movq	%rsi, -16(%rbp)
	movq	-16(%rbp), %rax
	movl	24(%rax), %eax
	popq	%rbp
	retq
	.cfi_endproc
                                        ## -- End function
	.globl	__ZN7Student8getmarksERS_       ## -- Begin function _ZN7Student8getmarksERS_
	.weak_definition	__ZN7Student8getmarksERS_
	.p2align	4, 0x90
__ZN7Student8getmarksERS_:              ## @_ZN7Student8getmarksERS_
	.cfi_startproc
## %bb.0:
	pushq	%rbp
	.cfi_def_cfa_offset 16
	.cfi_offset %rbp, -16
	movq	%rsp, %rbp
	.cfi_def_cfa_register %rbp
	movq	%rdi, -8(%rbp)
	movq	%rsi, -16(%rbp)
	movq	-16(%rbp), %rax
	movl	28(%rax), %eax
	popq	%rbp
	retq
	.cfi_endproc
                                        ## -- End function
	.globl	__ZN7Student6getsumERS_         ## -- Begin function _ZN7Student6getsumERS_
	.weak_definition	__ZN7Student6getsumERS_
	.p2align	4, 0x90
__ZN7Student6getsumERS_:                ## @_ZN7Student6getsumERS_
	.cfi_startproc
## %bb.0:
	pushq	%rbp
	.cfi_def_cfa_offset 16
	.cfi_offset %rbp, -16
	movq	%rsp, %rbp
	.cfi_def_cfa_register %rbp
	movq	%rdi, -8(%rbp)
	movq	%rsi, -16(%rbp)
	movl	__ZN7Student3sumE(%rip), %eax
	popq	%rbp
	retq
	.cfi_endproc
                                        ## -- End function
	.globl	__ZN7StudentC2Ev                ## -- Begin function _ZN7StudentC2Ev
	.weak_def_can_be_hidden	__ZN7StudentC2Ev
	.p2align	4, 0x90
__ZN7StudentC2Ev:                       ## @_ZN7StudentC2Ev
	.cfi_startproc
## %bb.0:
	pushq	%rbp
	.cfi_def_cfa_offset 16
	.cfi_offset %rbp, -16
	movq	%rsp, %rbp
	.cfi_def_cfa_register %rbp
	subq	$16, %rsp
	movq	%rdi, -8(%rbp)
	movq	-8(%rbp), %rdi
	callq	__ZNSt3__112basic_stringIcNS_11char_traitsIcEENS_9allocatorIcEEEC1Ev
	addq	$16, %rsp
	popq	%rbp
	retq
	.cfi_endproc
                                        ## -- End function
	.p2align	4, 0x90                         ## -- Begin function _ZNSt3__112basic_stringIcNS_11char_traitsIcEENS_9allocatorIcEEEC1Ev
__ZNSt3__112basic_stringIcNS_11char_traitsIcEENS_9allocatorIcEEEC1Ev: ## @_ZNSt3__112basic_stringIcNS_11char_traitsIcEENS_9allocatorIcEEEC1Ev
	.cfi_startproc
## %bb.0:
	pushq	%rbp
	.cfi_def_cfa_offset 16
	.cfi_offset %rbp, -16
	movq	%rsp, %rbp
	.cfi_def_cfa_register %rbp
	subq	$16, %rsp
	movq	%rdi, -8(%rbp)
	movq	-8(%rbp), %rdi
	callq	__ZNSt3__112basic_stringIcNS_11char_traitsIcEENS_9allocatorIcEEEC2Ev
	addq	$16, %rsp
	popq	%rbp
	retq
	.cfi_endproc
                                        ## -- End function
	.p2align	4, 0x90                         ## -- Begin function _ZNSt3__112basic_stringIcNS_11char_traitsIcEENS_9allocatorIcEEEC2Ev
__ZNSt3__112basic_stringIcNS_11char_traitsIcEENS_9allocatorIcEEEC2Ev: ## @_ZNSt3__112basic_stringIcNS_11char_traitsIcEENS_9allocatorIcEEEC2Ev
	.cfi_startproc
## %bb.0:
	pushq	%rbp
	.cfi_def_cfa_offset 16
	.cfi_offset %rbp, -16
	movq	%rsp, %rbp
	.cfi_def_cfa_register %rbp
	subq	$32, %rsp
	movq	%rdi, -8(%rbp)
	movq	-8(%rbp), %rdi
	movq	%rdi, -32(%rbp)                 ## 8-byte Spill
	leaq	-16(%rbp), %rsi
	leaq	-24(%rbp), %rdx
	callq	__ZNSt3__117__compressed_pairINS_12basic_stringIcNS_11char_traitsIcEENS_9allocatorIcEEE5__repES5_EC1INS_18__default_init_tagESA_EEOT_OT0_
	movq	-32(%rbp), %rdi                 ## 8-byte Reload
	callq	__ZNSt3__112basic_stringIcNS_11char_traitsIcEENS_9allocatorIcEEE6__zeroEv
	addq	$32, %rsp
	popq	%rbp
	retq
	.cfi_endproc
                                        ## -- End function
	.p2align	4, 0x90                         ## -- Begin function _ZNSt3__117__compressed_pairINS_12basic_stringIcNS_11char_traitsIcEENS_9allocatorIcEEE5__repES5_EC1INS_18__default_init_tagESA_EEOT_OT0_
__ZNSt3__117__compressed_pairINS_12basic_stringIcNS_11char_traitsIcEENS_9allocatorIcEEE5__repES5_EC1INS_18__default_init_tagESA_EEOT_OT0_: ## @_ZNSt3__117__compressed_pairINS_12basic_stringIcNS_11char_traitsIcEENS_9allocatorIcEEE5__repES5_EC1INS_18__default_init_tagESA_EEOT_OT0_
	.cfi_startproc
## %bb.0:
	pushq	%rbp
	.cfi_def_cfa_offset 16
	.cfi_offset %rbp, -16
	movq	%rsp, %rbp
	.cfi_def_cfa_register %rbp
	subq	$32, %rsp
	movq	%rdi, -8(%rbp)
	movq	%rsi, -16(%rbp)
	movq	%rdx, -24(%rbp)
	movq	-8(%rbp), %rdi
	movq	-16(%rbp), %rsi
	movq	-24(%rbp), %rdx
	callq	__ZNSt3__117__compressed_pairINS_12basic_stringIcNS_11char_traitsIcEENS_9allocatorIcEEE5__repES5_EC2INS_18__default_init_tagESA_EEOT_OT0_
	addq	$32, %rsp
	popq	%rbp
	retq
	.cfi_endproc
                                        ## -- End function
	.p2align	4, 0x90                         ## -- Begin function _ZNSt3__112basic_stringIcNS_11char_traitsIcEENS_9allocatorIcEEE6__zeroEv
__ZNSt3__112basic_stringIcNS_11char_traitsIcEENS_9allocatorIcEEE6__zeroEv: ## @_ZNSt3__112basic_stringIcNS_11char_traitsIcEENS_9allocatorIcEEE6__zeroEv
	.cfi_startproc
## %bb.0:
	pushq	%rbp
	.cfi_def_cfa_offset 16
	.cfi_offset %rbp, -16
	movq	%rsp, %rbp
	.cfi_def_cfa_register %rbp
	subq	$32, %rsp
	movq	%rdi, -8(%rbp)
	movq	-8(%rbp), %rdi
	callq	__ZNSt3__117__compressed_pairINS_12basic_stringIcNS_11char_traitsIcEENS_9allocatorIcEEE5__repES5_E5firstEv
	movq	%rax, -16(%rbp)
	movl	$0, -20(%rbp)
LBB20_1:                                ## =>This Inner Loop Header: Depth=1
	cmpl	$3, -20(%rbp)
	jae	LBB20_4
## %bb.2:                               ##   in Loop: Header=BB20_1 Depth=1
	movq	-16(%rbp), %rax
	movl	-20(%rbp), %ecx
                                        ## kill: def $rcx killed $ecx
	movq	$0, (%rax,%rcx,8)
## %bb.3:                               ##   in Loop: Header=BB20_1 Depth=1
	movl	-20(%rbp), %eax
	addl	$1, %eax
	movl	%eax, -20(%rbp)
	jmp	LBB20_1
LBB20_4:
	addq	$32, %rsp
	popq	%rbp
	retq
	.cfi_endproc
                                        ## -- End function
	.p2align	4, 0x90                         ## -- Begin function _ZNSt3__117__compressed_pairINS_12basic_stringIcNS_11char_traitsIcEENS_9allocatorIcEEE5__repES5_EC2INS_18__default_init_tagESA_EEOT_OT0_
__ZNSt3__117__compressed_pairINS_12basic_stringIcNS_11char_traitsIcEENS_9allocatorIcEEE5__repES5_EC2INS_18__default_init_tagESA_EEOT_OT0_: ## @_ZNSt3__117__compressed_pairINS_12basic_stringIcNS_11char_traitsIcEENS_9allocatorIcEEE5__repES5_EC2INS_18__default_init_tagESA_EEOT_OT0_
	.cfi_startproc
## %bb.0:
	pushq	%rbp
	.cfi_def_cfa_offset 16
	.cfi_offset %rbp, -16
	movq	%rsp, %rbp
	.cfi_def_cfa_register %rbp
	subq	$64, %rsp
	movq	%rdi, -8(%rbp)
	movq	%rsi, -16(%rbp)
	movq	%rdx, -24(%rbp)
	movq	-8(%rbp), %rax
	movq	%rax, -56(%rbp)                 ## 8-byte Spill
	movq	%rax, -64(%rbp)                 ## 8-byte Spill
	movq	-16(%rbp), %rdi
	callq	__ZNSt3__1L7forwardINS_18__default_init_tagEEEOT_RNS_16remove_referenceIS2_E4typeE
	movq	-64(%rbp), %rdi                 ## 8-byte Reload
	callq	__ZNSt3__122__compressed_pair_elemINS_12basic_stringIcNS_11char_traitsIcEENS_9allocatorIcEEE5__repELi0ELb0EEC2ENS_18__default_init_tagE
	movq	-56(%rbp), %rax                 ## 8-byte Reload
	movq	%rax, -48(%rbp)                 ## 8-byte Spill
	movq	-24(%rbp), %rdi
	callq	__ZNSt3__1L7forwardINS_18__default_init_tagEEEOT_RNS_16remove_referenceIS2_E4typeE
	movq	-48(%rbp), %rdi                 ## 8-byte Reload
	callq	__ZNSt3__122__compressed_pair_elemINS_9allocatorIcEELi1ELb1EEC2ENS_18__default_init_tagE
	addq	$64, %rsp
	popq	%rbp
	retq
	.cfi_endproc
                                        ## -- End function
	.p2align	4, 0x90                         ## -- Begin function _ZNSt3__1L7forwardINS_18__default_init_tagEEEOT_RNS_16remove_referenceIS2_E4typeE
__ZNSt3__1L7forwardINS_18__default_init_tagEEEOT_RNS_16remove_referenceIS2_E4typeE: ## @_ZNSt3__1L7forwardINS_18__default_init_tagEEEOT_RNS_16remove_referenceIS2_E4typeE
	.cfi_startproc
## %bb.0:
	pushq	%rbp
	.cfi_def_cfa_offset 16
	.cfi_offset %rbp, -16
	movq	%rsp, %rbp
	.cfi_def_cfa_register %rbp
	movq	%rdi, -8(%rbp)
	movq	-8(%rbp), %rax
	popq	%rbp
	retq
	.cfi_endproc
                                        ## -- End function
	.p2align	4, 0x90                         ## -- Begin function _ZNSt3__122__compressed_pair_elemINS_12basic_stringIcNS_11char_traitsIcEENS_9allocatorIcEEE5__repELi0ELb0EEC2ENS_18__default_init_tagE
__ZNSt3__122__compressed_pair_elemINS_12basic_stringIcNS_11char_traitsIcEENS_9allocatorIcEEE5__repELi0ELb0EEC2ENS_18__default_init_tagE: ## @_ZNSt3__122__compressed_pair_elemINS_12basic_stringIcNS_11char_traitsIcEENS_9allocatorIcEEE5__repELi0ELb0EEC2ENS_18__default_init_tagE
	.cfi_startproc
## %bb.0:
	pushq	%rbp
	.cfi_def_cfa_offset 16
	.cfi_offset %rbp, -16
	movq	%rsp, %rbp
	.cfi_def_cfa_register %rbp
	movq	%rdi, -16(%rbp)
	popq	%rbp
	retq
	.cfi_endproc
                                        ## -- End function
	.p2align	4, 0x90                         ## -- Begin function _ZNSt3__122__compressed_pair_elemINS_9allocatorIcEELi1ELb1EEC2ENS_18__default_init_tagE
__ZNSt3__122__compressed_pair_elemINS_9allocatorIcEELi1ELb1EEC2ENS_18__default_init_tagE: ## @_ZNSt3__122__compressed_pair_elemINS_9allocatorIcEELi1ELb1EEC2ENS_18__default_init_tagE
	.cfi_startproc
## %bb.0:
	pushq	%rbp
	.cfi_def_cfa_offset 16
	.cfi_offset %rbp, -16
	movq	%rsp, %rbp
	.cfi_def_cfa_register %rbp
	subq	$16, %rsp
	movq	%rdi, -16(%rbp)
	movq	-16(%rbp), %rdi
	callq	__ZNSt3__19allocatorIcEC2Ev
	addq	$16, %rsp
	popq	%rbp
	retq
	.cfi_endproc
                                        ## -- End function
	.p2align	4, 0x90                         ## -- Begin function _ZNSt3__19allocatorIcEC2Ev
__ZNSt3__19allocatorIcEC2Ev:            ## @_ZNSt3__19allocatorIcEC2Ev
	.cfi_startproc
## %bb.0:
	pushq	%rbp
	.cfi_def_cfa_offset 16
	.cfi_offset %rbp, -16
	movq	%rsp, %rbp
	.cfi_def_cfa_register %rbp
	subq	$16, %rsp
	movq	%rdi, -8(%rbp)
	movq	-8(%rbp), %rdi
	callq	__ZNSt3__116__non_trivial_ifILb1ENS_9allocatorIcEEEC2Ev
	addq	$16, %rsp
	popq	%rbp
	retq
	.cfi_endproc
                                        ## -- End function
	.p2align	4, 0x90                         ## -- Begin function _ZNSt3__116__non_trivial_ifILb1ENS_9allocatorIcEEEC2Ev
__ZNSt3__116__non_trivial_ifILb1ENS_9allocatorIcEEEC2Ev: ## @_ZNSt3__116__non_trivial_ifILb1ENS_9allocatorIcEEEC2Ev
	.cfi_startproc
## %bb.0:
	pushq	%rbp
	.cfi_def_cfa_offset 16
	.cfi_offset %rbp, -16
	movq	%rsp, %rbp
	.cfi_def_cfa_register %rbp
	movq	%rdi, -8(%rbp)
	popq	%rbp
	retq
	.cfi_endproc
                                        ## -- End function
	.p2align	4, 0x90                         ## -- Begin function _ZNSt3__117__compressed_pairINS_12basic_stringIcNS_11char_traitsIcEENS_9allocatorIcEEE5__repES5_E5firstEv
__ZNSt3__117__compressed_pairINS_12basic_stringIcNS_11char_traitsIcEENS_9allocatorIcEEE5__repES5_E5firstEv: ## @_ZNSt3__117__compressed_pairINS_12basic_stringIcNS_11char_traitsIcEENS_9allocatorIcEEE5__repES5_E5firstEv
	.cfi_startproc
## %bb.0:
	pushq	%rbp
	.cfi_def_cfa_offset 16
	.cfi_offset %rbp, -16
	movq	%rsp, %rbp
	.cfi_def_cfa_register %rbp
	subq	$16, %rsp
	movq	%rdi, -8(%rbp)
	movq	-8(%rbp), %rdi
	callq	__ZNSt3__122__compressed_pair_elemINS_12basic_stringIcNS_11char_traitsIcEENS_9allocatorIcEEE5__repELi0ELb0EE5__getEv
	addq	$16, %rsp
	popq	%rbp
	retq
	.cfi_endproc
                                        ## -- End function
	.p2align	4, 0x90                         ## -- Begin function _ZNSt3__122__compressed_pair_elemINS_12basic_stringIcNS_11char_traitsIcEENS_9allocatorIcEEE5__repELi0ELb0EE5__getEv
__ZNSt3__122__compressed_pair_elemINS_12basic_stringIcNS_11char_traitsIcEENS_9allocatorIcEEE5__repELi0ELb0EE5__getEv: ## @_ZNSt3__122__compressed_pair_elemINS_12basic_stringIcNS_11char_traitsIcEENS_9allocatorIcEEE5__repELi0ELb0EE5__getEv
	.cfi_startproc
## %bb.0:
	pushq	%rbp
	.cfi_def_cfa_offset 16
	.cfi_offset %rbp, -16
	movq	%rsp, %rbp
	.cfi_def_cfa_register %rbp
	movq	%rdi, -8(%rbp)
	movq	-8(%rbp), %rax
	popq	%rbp
	retq
	.cfi_endproc
                                        ## -- End function
	.globl	__ZN7StudentD2Ev                ## -- Begin function _ZN7StudentD2Ev
	.weak_def_can_be_hidden	__ZN7StudentD2Ev
	.p2align	4, 0x90
__ZN7StudentD2Ev:                       ## @_ZN7StudentD2Ev
	.cfi_startproc
## %bb.0:
	pushq	%rbp
	.cfi_def_cfa_offset 16
	.cfi_offset %rbp, -16
	movq	%rsp, %rbp
	.cfi_def_cfa_register %rbp
	subq	$16, %rsp
	movq	%rdi, -8(%rbp)
	movq	-8(%rbp), %rdi
	callq	__ZNSt3__112basic_stringIcNS_11char_traitsIcEENS_9allocatorIcEEED1Ev
	addq	$16, %rsp
	popq	%rbp
	retq
	.cfi_endproc
                                        ## -- End function
	.p2align	4, 0x90                         ## -- Begin function _ZNSt3__1L7getlineIcNS_11char_traitsIcEENS_9allocatorIcEEEERNS_13basic_istreamIT_T0_EES9_RNS_12basic_stringIS6_S7_T1_EE
__ZNSt3__1L7getlineIcNS_11char_traitsIcEENS_9allocatorIcEEEERNS_13basic_istreamIT_T0_EES9_RNS_12basic_stringIS6_S7_T1_EE: ## @_ZNSt3__1L7getlineIcNS_11char_traitsIcEENS_9allocatorIcEEEERNS_13basic_istreamIT_T0_EES9_RNS_12basic_stringIS6_S7_T1_EE
	.cfi_startproc
## %bb.0:
	pushq	%rbp
	.cfi_def_cfa_offset 16
	.cfi_offset %rbp, -16
	movq	%rsp, %rbp
	.cfi_def_cfa_register %rbp
	subq	$32, %rsp
	movq	%rdi, -8(%rbp)
	movq	%rsi, -16(%rbp)
	movq	-8(%rbp), %rax
	movq	%rax, -32(%rbp)                 ## 8-byte Spill
	movq	-16(%rbp), %rax
	movq	%rax, -24(%rbp)                 ## 8-byte Spill
	movq	-8(%rbp), %rdi
	movq	(%rdi), %rax
	movq	-24(%rax), %rax
	addq	%rax, %rdi
	movl	$10, %esi
	callq	__ZNKSt3__19basic_iosIcNS_11char_traitsIcEEE5widenEc
	movq	-32(%rbp), %rdi                 ## 8-byte Reload
	movq	-24(%rbp), %rsi                 ## 8-byte Reload
	movsbl	%al, %edx
	callq	__ZNSt3__17getlineIcNS_11char_traitsIcEENS_9allocatorIcEEEERNS_13basic_istreamIT_T0_EES9_RNS_12basic_stringIS6_S7_T1_EES6_
	addq	$32, %rsp
	popq	%rbp
	retq
	.cfi_endproc
                                        ## -- End function
	.globl	__ZNSt3__17getlineIcNS_11char_traitsIcEENS_9allocatorIcEEEERNS_13basic_istreamIT_T0_EES9_RNS_12basic_stringIS6_S7_T1_EES6_ ## -- Begin function _ZNSt3__17getlineIcNS_11char_traitsIcEENS_9allocatorIcEEEERNS_13basic_istreamIT_T0_EES9_RNS_12basic_stringIS6_S7_T1_EES6_
	.weak_definition	__ZNSt3__17getlineIcNS_11char_traitsIcEENS_9allocatorIcEEEERNS_13basic_istreamIT_T0_EES9_RNS_12basic_stringIS6_S7_T1_EES6_
	.p2align	4, 0x90
__ZNSt3__17getlineIcNS_11char_traitsIcEENS_9allocatorIcEEEERNS_13basic_istreamIT_T0_EES9_RNS_12basic_stringIS6_S7_T1_EES6_: ## @_ZNSt3__17getlineIcNS_11char_traitsIcEENS_9allocatorIcEEEERNS_13basic_istreamIT_T0_EES9_RNS_12basic_stringIS6_S7_T1_EES6_
Lfunc_begin1:
	.cfi_startproc
	.cfi_personality 155, ___gxx_personality_v0
	.cfi_lsda 16, Lexception1
## %bb.0:
	pushq	%rbp
	.cfi_def_cfa_offset 16
	.cfi_offset %rbp, -16
	movq	%rsp, %rbp
	.cfi_def_cfa_register %rbp
	subq	$96, %rsp
	movb	%dl, %al
	movq	%rdi, -8(%rbp)
	movq	%rsi, -16(%rbp)
	movb	%al, -17(%rbp)
	movl	$0, -24(%rbp)
	movq	-8(%rbp), %rsi
	leaq	-32(%rbp), %rdi
	movl	$1, %edx
	callq	__ZNSt3__113basic_istreamIcNS_11char_traitsIcEEE6sentryC1ERS3_b
	leaq	-32(%rbp), %rdi
	callq	__ZNKSt3__113basic_istreamIcNS_11char_traitsIcEEE6sentrycvbEv
	testb	$1, %al
	jne	LBB31_1
	jmp	LBB31_25
LBB31_1:
	movq	-16(%rbp), %rdi
	callq	__ZNSt3__112basic_stringIcNS_11char_traitsIcEENS_9allocatorIcEEE5clearEv
	movq	$0, -40(%rbp)
LBB31_2:                                ## =>This Inner Loop Header: Depth=1
	jmp	LBB31_3
LBB31_3:                                ##   in Loop: Header=BB31_2 Depth=1
	movq	-8(%rbp), %rdi
	movq	(%rdi), %rax
	movq	-24(%rax), %rax
	addq	%rax, %rdi
Ltmp115:
	callq	__ZNKSt3__19basic_iosIcNS_11char_traitsIcEEE5rdbufEv
	movq	%rax, %rcx
Ltmp116:
	movq	%rcx, -72(%rbp)                 ## 8-byte Spill
	jmp	LBB31_4
LBB31_4:                                ##   in Loop: Header=BB31_2 Depth=1
Ltmp117:
	movq	-72(%rbp), %rdi                 ## 8-byte Reload
	callq	__ZNSt3__115basic_streambufIcNS_11char_traitsIcEEE6sbumpcEv
	movl	%eax, %ecx
Ltmp118:
	movl	%ecx, -76(%rbp)                 ## 4-byte Spill
	jmp	LBB31_5
LBB31_5:                                ##   in Loop: Header=BB31_2 Depth=1
	movl	-76(%rbp), %eax                 ## 4-byte Reload
	movl	%eax, -44(%rbp)
	movl	-44(%rbp), %eax
	movl	%eax, -80(%rbp)                 ## 4-byte Spill
	callq	__ZNSt3__111char_traitsIcE3eofEv
	movl	-80(%rbp), %edi                 ## 4-byte Reload
	movl	%eax, %esi
	callq	__ZNSt3__111char_traitsIcE11eq_int_typeEii
	testb	$1, %al
	jne	LBB31_6
	jmp	LBB31_12
LBB31_6:
	movl	-24(%rbp), %eax
	orl	$2, %eax
	movl	%eax, -24(%rbp)
	jmp	LBB31_18
LBB31_7:
Ltmp121:
	movq	%rax, %rcx
	movl	%edx, %eax
	movq	%rcx, -56(%rbp)
	movl	%eax, -60(%rbp)
## %bb.8:
	movq	-56(%rbp), %rdi
	callq	___cxa_begin_catch
                                        ## kill: def $rcx killed $rax
	movb	-24(%rbp), %cl
	orb	$1, %cl
	movb	%cl, -24(%rbp)
	movq	-8(%rbp), %rdi
	movq	(%rdi), %rcx
	movq	-24(%rcx), %rcx
	addq	%rcx, %rdi
	movl	-24(%rbp), %esi
Ltmp122:
	callq	__ZNSt3__18ios_base18__setstate_nothrowEj
Ltmp123:
	jmp	LBB31_9
LBB31_9:
	movq	-8(%rbp), %rdi
	movq	(%rdi), %rax
	movq	-24(%rax), %rax
	addq	%rax, %rdi
Ltmp124:
	callq	__ZNKSt3__19basic_iosIcNS_11char_traitsIcEEE10exceptionsEv
	movl	%eax, %ecx
Ltmp125:
	movl	%ecx, -84(%rbp)                 ## 4-byte Spill
	jmp	LBB31_10
LBB31_10:
	movl	-84(%rbp), %eax                 ## 4-byte Reload
	andl	$1, %eax
	cmpl	$0, %eax
	je	LBB31_22
## %bb.11:
Ltmp126:
	callq	___cxa_rethrow
Ltmp127:
	jmp	LBB31_28
LBB31_12:                               ##   in Loop: Header=BB31_2 Depth=1
	movq	-40(%rbp), %rax
	addq	$1, %rax
	movq	%rax, -40(%rbp)
	movl	-44(%rbp), %edi
	callq	__ZNSt3__111char_traitsIcE12to_char_typeEi
	movb	%al, -61(%rbp)
	movb	-61(%rbp), %al
	movsbl	%al, %edi
	movsbl	-17(%rbp), %esi
	callq	__ZNSt3__111char_traitsIcE2eqEcc
	testb	$1, %al
	jne	LBB31_13
	jmp	LBB31_14
LBB31_13:
	jmp	LBB31_18
LBB31_14:                               ##   in Loop: Header=BB31_2 Depth=1
	movq	-16(%rbp), %rdi
	movsbl	-61(%rbp), %esi
Ltmp119:
	callq	__ZNSt3__112basic_stringIcNS_11char_traitsIcEENS_9allocatorIcEEE9push_backEc
Ltmp120:
	jmp	LBB31_15
LBB31_15:                               ##   in Loop: Header=BB31_2 Depth=1
	movq	-16(%rbp), %rdi
	callq	__ZNKSt3__112basic_stringIcNS_11char_traitsIcEENS_9allocatorIcEEE4sizeEv
	movq	%rax, -96(%rbp)                 ## 8-byte Spill
	movq	-16(%rbp), %rdi
	callq	__ZNKSt3__112basic_stringIcNS_11char_traitsIcEENS_9allocatorIcEEE8max_sizeEv
	movq	%rax, %rcx
	movq	-96(%rbp), %rax                 ## 8-byte Reload
	cmpq	%rcx, %rax
	jne	LBB31_17
## %bb.16:
	movl	-24(%rbp), %eax
	orl	$4, %eax
	movl	%eax, -24(%rbp)
	jmp	LBB31_18
LBB31_17:                               ##   in Loop: Header=BB31_2 Depth=1
	jmp	LBB31_2
LBB31_18:
	cmpq	$0, -40(%rbp)
	jne	LBB31_20
## %bb.19:
	movl	-24(%rbp), %eax
	orl	$4, %eax
	movl	%eax, -24(%rbp)
LBB31_20:
	jmp	LBB31_23
LBB31_21:
Ltmp128:
	movq	%rdx, %rcx
	movq	%rax, %rsi
                                        ## kill: def $ecx killed $ecx killed $rcx
	movq	%rsi, -56(%rbp)
	movl	%ecx, -60(%rbp)
Ltmp129:
	callq	___cxa_end_catch
Ltmp130:
	jmp	LBB31_24
LBB31_22:
	callq	___cxa_end_catch
LBB31_23:
	movq	-8(%rbp), %rdi
	movq	(%rdi), %rax
	movq	-24(%rax), %rax
	addq	%rax, %rdi
	movl	-24(%rbp), %esi
	callq	__ZNSt3__19basic_iosIcNS_11char_traitsIcEEE8setstateEj
	jmp	LBB31_25
LBB31_24:
	jmp	LBB31_26
LBB31_25:
	movq	-8(%rbp), %rax
	addq	$96, %rsp
	popq	%rbp
	retq
LBB31_26:
	movq	-56(%rbp), %rdi
	callq	__Unwind_Resume
LBB31_27:
Ltmp131:
	movq	%rax, %rdi
	callq	___clang_call_terminate
LBB31_28:
	ud2
Lfunc_end1:
	.cfi_endproc
	.section	__TEXT,__gcc_except_tab
	.p2align	2
GCC_except_table31:
Lexception1:
	.byte	255                             ## @LPStart Encoding = omit
	.byte	155                             ## @TType Encoding = indirect pcrel sdata4
	.uleb128 Lttbase1-Lttbaseref1
Lttbaseref1:
	.byte	1                               ## Call site Encoding = uleb128
	.uleb128 Lcst_end1-Lcst_begin1
Lcst_begin1:
	.uleb128 Lfunc_begin1-Lfunc_begin1      ## >> Call Site 1 <<
	.uleb128 Ltmp115-Lfunc_begin1           ##   Call between Lfunc_begin1 and Ltmp115
	.byte	0                               ##     has no landing pad
	.byte	0                               ##   On action: cleanup
	.uleb128 Ltmp115-Lfunc_begin1           ## >> Call Site 2 <<
	.uleb128 Ltmp118-Ltmp115                ##   Call between Ltmp115 and Ltmp118
	.uleb128 Ltmp121-Lfunc_begin1           ##     jumps to Ltmp121
	.byte	1                               ##   On action: 1
	.uleb128 Ltmp118-Lfunc_begin1           ## >> Call Site 3 <<
	.uleb128 Ltmp122-Ltmp118                ##   Call between Ltmp118 and Ltmp122
	.byte	0                               ##     has no landing pad
	.byte	0                               ##   On action: cleanup
	.uleb128 Ltmp122-Lfunc_begin1           ## >> Call Site 4 <<
	.uleb128 Ltmp127-Ltmp122                ##   Call between Ltmp122 and Ltmp127
	.uleb128 Ltmp128-Lfunc_begin1           ##     jumps to Ltmp128
	.byte	0                               ##   On action: cleanup
	.uleb128 Ltmp119-Lfunc_begin1           ## >> Call Site 5 <<
	.uleb128 Ltmp120-Ltmp119                ##   Call between Ltmp119 and Ltmp120
	.uleb128 Ltmp121-Lfunc_begin1           ##     jumps to Ltmp121
	.byte	1                               ##   On action: 1
	.uleb128 Ltmp129-Lfunc_begin1           ## >> Call Site 6 <<
	.uleb128 Ltmp130-Ltmp129                ##   Call between Ltmp129 and Ltmp130
	.uleb128 Ltmp131-Lfunc_begin1           ##     jumps to Ltmp131
	.byte	1                               ##   On action: 1
	.uleb128 Ltmp130-Lfunc_begin1           ## >> Call Site 7 <<
	.uleb128 Lfunc_end1-Ltmp130             ##   Call between Ltmp130 and Lfunc_end1
	.byte	0                               ##     has no landing pad
	.byte	0                               ##   On action: cleanup
Lcst_end1:
	.byte	1                               ## >> Action Record 1 <<
                                        ##   Catch TypeInfo 1
	.byte	0                               ##   No further actions
	.p2align	2
                                        ## >> Catch TypeInfos <<
	.long	0                               ## TypeInfo 1
Lttbase1:
	.p2align	2
                                        ## -- End function
	.section	__TEXT,__text,regular,pure_instructions
	.p2align	4, 0x90                         ## -- Begin function _ZNKSt3__19basic_iosIcNS_11char_traitsIcEEE5widenEc
__ZNKSt3__19basic_iosIcNS_11char_traitsIcEEE5widenEc: ## @_ZNKSt3__19basic_iosIcNS_11char_traitsIcEEE5widenEc
Lfunc_begin2:
	.cfi_startproc
	.cfi_personality 155, ___gxx_personality_v0
	.cfi_lsda 16, Lexception2
## %bb.0:
	pushq	%rbp
	.cfi_def_cfa_offset 16
	.cfi_offset %rbp, -16
	movq	%rsp, %rbp
	.cfi_def_cfa_register %rbp
	subq	$64, %rsp
	movb	%sil, %al
	movq	%rdi, -8(%rbp)
	movb	%al, -9(%rbp)
	movq	-8(%rbp), %rsi
	leaq	-24(%rbp), %rdi
	movq	%rdi, -56(%rbp)                 ## 8-byte Spill
	callq	__ZNKSt3__18ios_base6getlocEv
	movq	-56(%rbp), %rdi                 ## 8-byte Reload
Ltmp132:
	callq	__ZNSt3__1L9use_facetINS_5ctypeIcEEEERKT_RKNS_6localeE
	movq	%rax, %rcx
Ltmp133:
	movq	%rcx, -48(%rbp)                 ## 8-byte Spill
	jmp	LBB32_1
LBB32_1:
	movq	-48(%rbp), %rdi                 ## 8-byte Reload
	movsbl	-9(%rbp), %esi
Ltmp134:
	callq	__ZNKSt3__15ctypeIcE5widenEc
	movb	%al, %cl
Ltmp135:
	movb	%cl, -57(%rbp)                  ## 1-byte Spill
	jmp	LBB32_2
LBB32_2:
	leaq	-24(%rbp), %rdi
	callq	__ZNSt3__16localeD1Ev
	movb	-57(%rbp), %al                  ## 1-byte Reload
	movsbl	%al, %eax
	addq	$64, %rsp
	popq	%rbp
	retq
LBB32_3:
Ltmp136:
	movq	%rdx, %rcx
	movq	%rax, %rsi
                                        ## kill: def $ecx killed $ecx killed $rcx
	movq	%rsi, -32(%rbp)
	movl	%ecx, -36(%rbp)
Ltmp137:
	leaq	-24(%rbp), %rdi
	callq	__ZNSt3__16localeD1Ev
Ltmp138:
	jmp	LBB32_4
LBB32_4:
	jmp	LBB32_5
LBB32_5:
	movq	-32(%rbp), %rdi
	callq	__Unwind_Resume
LBB32_6:
Ltmp139:
	movq	%rax, %rdi
	callq	___clang_call_terminate
Lfunc_end2:
	.cfi_endproc
	.section	__TEXT,__gcc_except_tab
	.p2align	2
GCC_except_table32:
Lexception2:
	.byte	255                             ## @LPStart Encoding = omit
	.byte	155                             ## @TType Encoding = indirect pcrel sdata4
	.uleb128 Lttbase2-Lttbaseref2
Lttbaseref2:
	.byte	1                               ## Call site Encoding = uleb128
	.uleb128 Lcst_end2-Lcst_begin2
Lcst_begin2:
	.uleb128 Lfunc_begin2-Lfunc_begin2      ## >> Call Site 1 <<
	.uleb128 Ltmp132-Lfunc_begin2           ##   Call between Lfunc_begin2 and Ltmp132
	.byte	0                               ##     has no landing pad
	.byte	0                               ##   On action: cleanup
	.uleb128 Ltmp132-Lfunc_begin2           ## >> Call Site 2 <<
	.uleb128 Ltmp135-Ltmp132                ##   Call between Ltmp132 and Ltmp135
	.uleb128 Ltmp136-Lfunc_begin2           ##     jumps to Ltmp136
	.byte	0                               ##   On action: cleanup
	.uleb128 Ltmp135-Lfunc_begin2           ## >> Call Site 3 <<
	.uleb128 Ltmp137-Ltmp135                ##   Call between Ltmp135 and Ltmp137
	.byte	0                               ##     has no landing pad
	.byte	0                               ##   On action: cleanup
	.uleb128 Ltmp137-Lfunc_begin2           ## >> Call Site 4 <<
	.uleb128 Ltmp138-Ltmp137                ##   Call between Ltmp137 and Ltmp138
	.uleb128 Ltmp139-Lfunc_begin2           ##     jumps to Ltmp139
	.byte	1                               ##   On action: 1
	.uleb128 Ltmp138-Lfunc_begin2           ## >> Call Site 5 <<
	.uleb128 Lfunc_end2-Ltmp138             ##   Call between Ltmp138 and Lfunc_end2
	.byte	0                               ##     has no landing pad
	.byte	0                               ##   On action: cleanup
Lcst_end2:
	.byte	1                               ## >> Action Record 1 <<
                                        ##   Catch TypeInfo 1
	.byte	0                               ##   No further actions
	.p2align	2
                                        ## >> Catch TypeInfos <<
	.long	0                               ## TypeInfo 1
Lttbase2:
	.p2align	2
                                        ## -- End function
	.section	__TEXT,__text,regular,pure_instructions
	.p2align	4, 0x90                         ## -- Begin function _ZNKSt3__113basic_istreamIcNS_11char_traitsIcEEE6sentrycvbEv
__ZNKSt3__113basic_istreamIcNS_11char_traitsIcEEE6sentrycvbEv: ## @_ZNKSt3__113basic_istreamIcNS_11char_traitsIcEEE6sentrycvbEv
	.cfi_startproc
## %bb.0:
	pushq	%rbp
	.cfi_def_cfa_offset 16
	.cfi_offset %rbp, -16
	movq	%rsp, %rbp
	.cfi_def_cfa_register %rbp
	movq	%rdi, -8(%rbp)
	movq	-8(%rbp), %rax
	movb	(%rax), %al
	andb	$1, %al
	movzbl	%al, %eax
	popq	%rbp
	retq
	.cfi_endproc
                                        ## -- End function
	.p2align	4, 0x90                         ## -- Begin function _ZNSt3__112basic_stringIcNS_11char_traitsIcEENS_9allocatorIcEEE5clearEv
__ZNSt3__112basic_stringIcNS_11char_traitsIcEENS_9allocatorIcEEE5clearEv: ## @_ZNSt3__112basic_stringIcNS_11char_traitsIcEENS_9allocatorIcEEE5clearEv
Lfunc_begin3:
	.cfi_startproc
	.cfi_personality 155, ___gxx_personality_v0
	.cfi_lsda 16, Lexception3
## %bb.0:
	pushq	%rbp
	.cfi_def_cfa_offset 16
	.cfi_offset %rbp, -16
	movq	%rsp, %rbp
	.cfi_def_cfa_register %rbp
	subq	$32, %rsp
	movq	%rdi, -8(%rbp)
	movq	-8(%rbp), %rdi
	movq	%rdi, -32(%rbp)                 ## 8-byte Spill
Ltmp140:
	callq	__ZNSt3__112basic_stringIcNS_11char_traitsIcEENS_9allocatorIcEEE26__invalidate_all_iteratorsEv
Ltmp141:
	jmp	LBB34_1
LBB34_1:
	movq	-32(%rbp), %rdi                 ## 8-byte Reload
	callq	__ZNKSt3__112basic_stringIcNS_11char_traitsIcEENS_9allocatorIcEEE9__is_longEv
	testb	$1, %al
	jne	LBB34_2
	jmp	LBB34_5
LBB34_2:
	movq	-32(%rbp), %rdi                 ## 8-byte Reload
	callq	__ZNSt3__112basic_stringIcNS_11char_traitsIcEENS_9allocatorIcEEE18__get_long_pointerEv
	movq	%rax, %rdi
	movb	$0, -21(%rbp)
	leaq	-21(%rbp), %rsi
	callq	__ZNSt3__111char_traitsIcE6assignERcRKc
	movq	-32(%rbp), %rdi                 ## 8-byte Reload
	xorl	%eax, %eax
	movl	%eax, %esi
	callq	__ZNSt3__112basic_stringIcNS_11char_traitsIcEENS_9allocatorIcEEE15__set_long_sizeEm
	jmp	LBB34_6
LBB34_3:
Ltmp142:
	movq	%rax, %rcx
	movl	%edx, %eax
	movq	%rcx, -16(%rbp)
	movl	%eax, -20(%rbp)
## %bb.4:
	movq	-16(%rbp), %rdi
	callq	___cxa_call_unexpected
LBB34_5:
	movq	-32(%rbp), %rdi                 ## 8-byte Reload
	callq	__ZNSt3__112basic_stringIcNS_11char_traitsIcEENS_9allocatorIcEEE19__get_short_pointerEv
	movq	%rax, %rdi
	movb	$0, -22(%rbp)
	leaq	-22(%rbp), %rsi
	callq	__ZNSt3__111char_traitsIcE6assignERcRKc
	movq	-32(%rbp), %rdi                 ## 8-byte Reload
	xorl	%eax, %eax
	movl	%eax, %esi
	callq	__ZNSt3__112basic_stringIcNS_11char_traitsIcEENS_9allocatorIcEEE16__set_short_sizeEm
LBB34_6:
	addq	$32, %rsp
	popq	%rbp
	retq
Lfunc_end3:
	.cfi_endproc
	.section	__TEXT,__gcc_except_tab
	.p2align	2
GCC_except_table34:
Lexception3:
	.byte	255                             ## @LPStart Encoding = omit
	.byte	155                             ## @TType Encoding = indirect pcrel sdata4
	.uleb128 Lttbase3-Lttbaseref3
Lttbaseref3:
	.byte	1                               ## Call site Encoding = uleb128
	.uleb128 Lcst_end3-Lcst_begin3
Lcst_begin3:
	.uleb128 Ltmp140-Lfunc_begin3           ## >> Call Site 1 <<
	.uleb128 Ltmp141-Ltmp140                ##   Call between Ltmp140 and Ltmp141
	.uleb128 Ltmp142-Lfunc_begin3           ##     jumps to Ltmp142
	.byte	1                               ##   On action: 1
	.uleb128 Ltmp141-Lfunc_begin3           ## >> Call Site 2 <<
	.uleb128 Lfunc_end3-Ltmp141             ##   Call between Ltmp141 and Lfunc_end3
	.byte	0                               ##     has no landing pad
	.byte	0                               ##   On action: cleanup
Lcst_end3:
	.byte	127                             ## >> Action Record 1 <<
                                        ##   Filter TypeInfo -1
	.byte	0                               ##   No further actions
	.p2align	2
Lttbase3:
                                        ## >> Filter TypeInfos <<
	.byte	0
	.p2align	2
                                        ## -- End function
	.section	__TEXT,__text,regular,pure_instructions
	.p2align	4, 0x90                         ## -- Begin function _ZNKSt3__19basic_iosIcNS_11char_traitsIcEEE5rdbufEv
__ZNKSt3__19basic_iosIcNS_11char_traitsIcEEE5rdbufEv: ## @_ZNKSt3__19basic_iosIcNS_11char_traitsIcEEE5rdbufEv
	.cfi_startproc
## %bb.0:
	pushq	%rbp
	.cfi_def_cfa_offset 16
	.cfi_offset %rbp, -16
	movq	%rsp, %rbp
	.cfi_def_cfa_register %rbp
	subq	$16, %rsp
	movq	%rdi, -8(%rbp)
	movq	-8(%rbp), %rdi
	callq	__ZNKSt3__18ios_base5rdbufEv
	addq	$16, %rsp
	popq	%rbp
	retq
	.cfi_endproc
                                        ## -- End function
	.p2align	4, 0x90                         ## -- Begin function _ZNSt3__115basic_streambufIcNS_11char_traitsIcEEE6sbumpcEv
__ZNSt3__115basic_streambufIcNS_11char_traitsIcEEE6sbumpcEv: ## @_ZNSt3__115basic_streambufIcNS_11char_traitsIcEEE6sbumpcEv
	.cfi_startproc
## %bb.0:
	pushq	%rbp
	.cfi_def_cfa_offset 16
	.cfi_offset %rbp, -16
	movq	%rsp, %rbp
	.cfi_def_cfa_register %rbp
	subq	$32, %rsp
	movq	%rdi, -16(%rbp)
	movq	-16(%rbp), %rcx
	movq	%rcx, -24(%rbp)                 ## 8-byte Spill
	movq	24(%rcx), %rax
	cmpq	32(%rcx), %rax
	jne	LBB36_2
## %bb.1:
	movq	-24(%rbp), %rdi                 ## 8-byte Reload
	movq	(%rdi), %rax
	callq	*80(%rax)
	movl	%eax, -4(%rbp)
	jmp	LBB36_3
LBB36_2:
	movq	-24(%rbp), %rcx                 ## 8-byte Reload
	movq	24(%rcx), %rax
	movq	%rax, %rdx
	addq	$1, %rdx
	movq	%rdx, 24(%rcx)
	movsbl	(%rax), %edi
	callq	__ZNSt3__111char_traitsIcE11to_int_typeEc
	movl	%eax, -4(%rbp)
LBB36_3:
	movl	-4(%rbp), %eax
	addq	$32, %rsp
	popq	%rbp
	retq
	.cfi_endproc
                                        ## -- End function
	.globl	__ZNSt3__111char_traitsIcE11eq_int_typeEii ## -- Begin function _ZNSt3__111char_traitsIcE11eq_int_typeEii
	.weak_definition	__ZNSt3__111char_traitsIcE11eq_int_typeEii
	.p2align	4, 0x90
__ZNSt3__111char_traitsIcE11eq_int_typeEii: ## @_ZNSt3__111char_traitsIcE11eq_int_typeEii
	.cfi_startproc
## %bb.0:
	pushq	%rbp
	.cfi_def_cfa_offset 16
	.cfi_offset %rbp, -16
	movq	%rsp, %rbp
	.cfi_def_cfa_register %rbp
	movl	%edi, -4(%rbp)
	movl	%esi, -8(%rbp)
	movl	-4(%rbp), %eax
	cmpl	-8(%rbp), %eax
	sete	%al
	andb	$1, %al
	movzbl	%al, %eax
	popq	%rbp
	retq
	.cfi_endproc
                                        ## -- End function
	.globl	__ZNSt3__111char_traitsIcE3eofEv ## -- Begin function _ZNSt3__111char_traitsIcE3eofEv
	.weak_definition	__ZNSt3__111char_traitsIcE3eofEv
	.p2align	4, 0x90
__ZNSt3__111char_traitsIcE3eofEv:       ## @_ZNSt3__111char_traitsIcE3eofEv
	.cfi_startproc
## %bb.0:
	pushq	%rbp
	.cfi_def_cfa_offset 16
	.cfi_offset %rbp, -16
	movq	%rsp, %rbp
	.cfi_def_cfa_register %rbp
	movl	$4294967295, %eax               ## imm = 0xFFFFFFFF
	popq	%rbp
	retq
	.cfi_endproc
                                        ## -- End function
	.globl	__ZNSt3__111char_traitsIcE12to_char_typeEi ## -- Begin function _ZNSt3__111char_traitsIcE12to_char_typeEi
	.weak_definition	__ZNSt3__111char_traitsIcE12to_char_typeEi
	.p2align	4, 0x90
__ZNSt3__111char_traitsIcE12to_char_typeEi: ## @_ZNSt3__111char_traitsIcE12to_char_typeEi
	.cfi_startproc
## %bb.0:
	pushq	%rbp
	.cfi_def_cfa_offset 16
	.cfi_offset %rbp, -16
	movq	%rsp, %rbp
	.cfi_def_cfa_register %rbp
	movl	%edi, -4(%rbp)
	movl	-4(%rbp), %eax
                                        ## kill: def $al killed $al killed $eax
	movsbl	%al, %eax
	popq	%rbp
	retq
	.cfi_endproc
                                        ## -- End function
	.globl	__ZNSt3__111char_traitsIcE2eqEcc ## -- Begin function _ZNSt3__111char_traitsIcE2eqEcc
	.weak_definition	__ZNSt3__111char_traitsIcE2eqEcc
	.p2align	4, 0x90
__ZNSt3__111char_traitsIcE2eqEcc:       ## @_ZNSt3__111char_traitsIcE2eqEcc
	.cfi_startproc
## %bb.0:
	pushq	%rbp
	.cfi_def_cfa_offset 16
	.cfi_offset %rbp, -16
	movq	%rsp, %rbp
	.cfi_def_cfa_register %rbp
	movb	%sil, %al
	movb	%dil, %cl
	movb	%cl, -1(%rbp)
	movb	%al, -2(%rbp)
	movsbl	-1(%rbp), %eax
	movsbl	-2(%rbp), %ecx
	cmpl	%ecx, %eax
	sete	%al
	andb	$1, %al
	movzbl	%al, %eax
	popq	%rbp
	retq
	.cfi_endproc
                                        ## -- End function
	.p2align	4, 0x90                         ## -- Begin function _ZNKSt3__112basic_stringIcNS_11char_traitsIcEENS_9allocatorIcEEE4sizeEv
__ZNKSt3__112basic_stringIcNS_11char_traitsIcEENS_9allocatorIcEEE4sizeEv: ## @_ZNKSt3__112basic_stringIcNS_11char_traitsIcEENS_9allocatorIcEEE4sizeEv
	.cfi_startproc
## %bb.0:
	pushq	%rbp
	.cfi_def_cfa_offset 16
	.cfi_offset %rbp, -16
	movq	%rsp, %rbp
	.cfi_def_cfa_register %rbp
	subq	$32, %rsp
	movq	%rdi, -8(%rbp)
	movq	-8(%rbp), %rdi
	movq	%rdi, -16(%rbp)                 ## 8-byte Spill
	callq	__ZNKSt3__112basic_stringIcNS_11char_traitsIcEENS_9allocatorIcEEE9__is_longEv
	testb	$1, %al
	jne	LBB41_1
	jmp	LBB41_2
LBB41_1:
	movq	-16(%rbp), %rdi                 ## 8-byte Reload
	callq	__ZNKSt3__112basic_stringIcNS_11char_traitsIcEENS_9allocatorIcEEE15__get_long_sizeEv
	movq	%rax, -24(%rbp)                 ## 8-byte Spill
	jmp	LBB41_3
LBB41_2:
	movq	-16(%rbp), %rdi                 ## 8-byte Reload
	callq	__ZNKSt3__112basic_stringIcNS_11char_traitsIcEENS_9allocatorIcEEE16__get_short_sizeEv
	movq	%rax, -24(%rbp)                 ## 8-byte Spill
LBB41_3:
	movq	-24(%rbp), %rax                 ## 8-byte Reload
	addq	$32, %rsp
	popq	%rbp
	retq
	.cfi_endproc
                                        ## -- End function
	.p2align	4, 0x90                         ## -- Begin function _ZNKSt3__112basic_stringIcNS_11char_traitsIcEENS_9allocatorIcEEE8max_sizeEv
__ZNKSt3__112basic_stringIcNS_11char_traitsIcEENS_9allocatorIcEEE8max_sizeEv: ## @_ZNKSt3__112basic_stringIcNS_11char_traitsIcEENS_9allocatorIcEEE8max_sizeEv
	.cfi_startproc
## %bb.0:
	pushq	%rbp
	.cfi_def_cfa_offset 16
	.cfi_offset %rbp, -16
	movq	%rsp, %rbp
	.cfi_def_cfa_register %rbp
	subq	$16, %rsp
	movq	%rdi, -8(%rbp)
	movq	-8(%rbp), %rdi
	callq	__ZNKSt3__112basic_stringIcNS_11char_traitsIcEENS_9allocatorIcEEE7__allocEv
	movq	%rax, %rdi
	callq	__ZNSt3__116allocator_traitsINS_9allocatorIcEEE8max_sizeIS2_vEEmRKS2_
	movq	%rax, -16(%rbp)
	movq	-16(%rbp), %rax
	subq	$16, %rax
	addq	$16, %rsp
	popq	%rbp
	retq
	.cfi_endproc
                                        ## -- End function
	.p2align	4, 0x90                         ## -- Begin function _ZNSt3__18ios_base18__setstate_nothrowEj
__ZNSt3__18ios_base18__setstate_nothrowEj: ## @_ZNSt3__18ios_base18__setstate_nothrowEj
	.cfi_startproc
## %bb.0:
	pushq	%rbp
	.cfi_def_cfa_offset 16
	.cfi_offset %rbp, -16
	movq	%rsp, %rbp
	.cfi_def_cfa_register %rbp
	movq	%rdi, -8(%rbp)
	movl	%esi, -12(%rbp)
	movq	-8(%rbp), %rax
	movq	%rax, -24(%rbp)                 ## 8-byte Spill
	cmpq	$0, 40(%rax)
	je	LBB43_2
## %bb.1:
	movq	-24(%rbp), %rax                 ## 8-byte Reload
	movl	-12(%rbp), %ecx
	orl	32(%rax), %ecx
	movl	%ecx, 32(%rax)
	jmp	LBB43_3
LBB43_2:
	movq	-24(%rbp), %rax                 ## 8-byte Reload
	movl	-12(%rbp), %ecx
	orl	$1, %ecx
	orl	32(%rax), %ecx
	movl	%ecx, 32(%rax)
LBB43_3:
	popq	%rbp
	retq
	.cfi_endproc
                                        ## -- End function
	.p2align	4, 0x90                         ## -- Begin function _ZNKSt3__19basic_iosIcNS_11char_traitsIcEEE10exceptionsEv
__ZNKSt3__19basic_iosIcNS_11char_traitsIcEEE10exceptionsEv: ## @_ZNKSt3__19basic_iosIcNS_11char_traitsIcEEE10exceptionsEv
	.cfi_startproc
## %bb.0:
	pushq	%rbp
	.cfi_def_cfa_offset 16
	.cfi_offset %rbp, -16
	movq	%rsp, %rbp
	.cfi_def_cfa_register %rbp
	subq	$16, %rsp
	movq	%rdi, -8(%rbp)
	movq	-8(%rbp), %rdi
	callq	__ZNKSt3__18ios_base10exceptionsEv
	addq	$16, %rsp
	popq	%rbp
	retq
	.cfi_endproc
                                        ## -- End function
	.p2align	4, 0x90                         ## -- Begin function _ZNSt3__19basic_iosIcNS_11char_traitsIcEEE8setstateEj
__ZNSt3__19basic_iosIcNS_11char_traitsIcEEE8setstateEj: ## @_ZNSt3__19basic_iosIcNS_11char_traitsIcEEE8setstateEj
	.cfi_startproc
## %bb.0:
	pushq	%rbp
	.cfi_def_cfa_offset 16
	.cfi_offset %rbp, -16
	movq	%rsp, %rbp
	.cfi_def_cfa_register %rbp
	subq	$16, %rsp
	movq	%rdi, -8(%rbp)
	movl	%esi, -12(%rbp)
	movq	-8(%rbp), %rdi
	movl	-12(%rbp), %esi
	callq	__ZNSt3__18ios_base8setstateEj
	addq	$16, %rsp
	popq	%rbp
	retq
	.cfi_endproc
                                        ## -- End function
	.p2align	4, 0x90                         ## -- Begin function _ZNSt3__112basic_stringIcNS_11char_traitsIcEENS_9allocatorIcEEE26__invalidate_all_iteratorsEv
__ZNSt3__112basic_stringIcNS_11char_traitsIcEENS_9allocatorIcEEE26__invalidate_all_iteratorsEv: ## @_ZNSt3__112basic_stringIcNS_11char_traitsIcEENS_9allocatorIcEEE26__invalidate_all_iteratorsEv
	.cfi_startproc
## %bb.0:
	pushq	%rbp
	.cfi_def_cfa_offset 16
	.cfi_offset %rbp, -16
	movq	%rsp, %rbp
	.cfi_def_cfa_register %rbp
	movq	%rdi, -8(%rbp)
	popq	%rbp
	retq
	.cfi_endproc
                                        ## -- End function
	.p2align	4, 0x90                         ## -- Begin function _ZNKSt3__112basic_stringIcNS_11char_traitsIcEENS_9allocatorIcEEE9__is_longEv
__ZNKSt3__112basic_stringIcNS_11char_traitsIcEENS_9allocatorIcEEE9__is_longEv: ## @_ZNKSt3__112basic_stringIcNS_11char_traitsIcEENS_9allocatorIcEEE9__is_longEv
	.cfi_startproc
## %bb.0:
	pushq	%rbp
	.cfi_def_cfa_offset 16
	.cfi_offset %rbp, -16
	movq	%rsp, %rbp
	.cfi_def_cfa_register %rbp
	subq	$16, %rsp
	movq	%rdi, -8(%rbp)
	movq	-8(%rbp), %rdi
	callq	__ZNKSt3__117__compressed_pairINS_12basic_stringIcNS_11char_traitsIcEENS_9allocatorIcEEE5__repES5_E5firstEv
	movzbl	(%rax), %eax
                                        ## kill: def $rax killed $eax
	andq	$1, %rax
	cmpq	$0, %rax
	setne	%al
	andb	$1, %al
	movzbl	%al, %eax
	addq	$16, %rsp
	popq	%rbp
	retq
	.cfi_endproc
                                        ## -- End function
	.globl	__ZNSt3__111char_traitsIcE6assignERcRKc ## -- Begin function _ZNSt3__111char_traitsIcE6assignERcRKc
	.weak_definition	__ZNSt3__111char_traitsIcE6assignERcRKc
	.p2align	4, 0x90
__ZNSt3__111char_traitsIcE6assignERcRKc: ## @_ZNSt3__111char_traitsIcE6assignERcRKc
	.cfi_startproc
## %bb.0:
	pushq	%rbp
	.cfi_def_cfa_offset 16
	.cfi_offset %rbp, -16
	movq	%rsp, %rbp
	.cfi_def_cfa_register %rbp
	movq	%rdi, -8(%rbp)
	movq	%rsi, -16(%rbp)
	movq	-16(%rbp), %rax
	movb	(%rax), %cl
	movq	-8(%rbp), %rax
	movb	%cl, (%rax)
	popq	%rbp
	retq
	.cfi_endproc
                                        ## -- End function
	.p2align	4, 0x90                         ## -- Begin function _ZNSt3__112basic_stringIcNS_11char_traitsIcEENS_9allocatorIcEEE18__get_long_pointerEv
__ZNSt3__112basic_stringIcNS_11char_traitsIcEENS_9allocatorIcEEE18__get_long_pointerEv: ## @_ZNSt3__112basic_stringIcNS_11char_traitsIcEENS_9allocatorIcEEE18__get_long_pointerEv
	.cfi_startproc
## %bb.0:
	pushq	%rbp
	.cfi_def_cfa_offset 16
	.cfi_offset %rbp, -16
	movq	%rsp, %rbp
	.cfi_def_cfa_register %rbp
	subq	$16, %rsp
	movq	%rdi, -8(%rbp)
	movq	-8(%rbp), %rdi
	callq	__ZNSt3__117__compressed_pairINS_12basic_stringIcNS_11char_traitsIcEENS_9allocatorIcEEE5__repES5_E5firstEv
	movq	16(%rax), %rax
	addq	$16, %rsp
	popq	%rbp
	retq
	.cfi_endproc
                                        ## -- End function
	.p2align	4, 0x90                         ## -- Begin function _ZNSt3__112basic_stringIcNS_11char_traitsIcEENS_9allocatorIcEEE15__set_long_sizeEm
__ZNSt3__112basic_stringIcNS_11char_traitsIcEENS_9allocatorIcEEE15__set_long_sizeEm: ## @_ZNSt3__112basic_stringIcNS_11char_traitsIcEENS_9allocatorIcEEE15__set_long_sizeEm
	.cfi_startproc
## %bb.0:
	pushq	%rbp
	.cfi_def_cfa_offset 16
	.cfi_offset %rbp, -16
	movq	%rsp, %rbp
	.cfi_def_cfa_register %rbp
	subq	$32, %rsp
	movq	%rdi, -8(%rbp)
	movq	%rsi, -16(%rbp)
	movq	-8(%rbp), %rdi
	movq	-16(%rbp), %rax
	movq	%rax, -24(%rbp)                 ## 8-byte Spill
	callq	__ZNSt3__117__compressed_pairINS_12basic_stringIcNS_11char_traitsIcEENS_9allocatorIcEEE5__repES5_E5firstEv
	movq	-24(%rbp), %rcx                 ## 8-byte Reload
	movq	%rcx, 8(%rax)
	addq	$32, %rsp
	popq	%rbp
	retq
	.cfi_endproc
                                        ## -- End function
	.p2align	4, 0x90                         ## -- Begin function _ZNSt3__112basic_stringIcNS_11char_traitsIcEENS_9allocatorIcEEE19__get_short_pointerEv
__ZNSt3__112basic_stringIcNS_11char_traitsIcEENS_9allocatorIcEEE19__get_short_pointerEv: ## @_ZNSt3__112basic_stringIcNS_11char_traitsIcEENS_9allocatorIcEEE19__get_short_pointerEv
	.cfi_startproc
## %bb.0:
	pushq	%rbp
	.cfi_def_cfa_offset 16
	.cfi_offset %rbp, -16
	movq	%rsp, %rbp
	.cfi_def_cfa_register %rbp
	subq	$16, %rsp
	movq	%rdi, -8(%rbp)
	movq	-8(%rbp), %rdi
	callq	__ZNSt3__117__compressed_pairINS_12basic_stringIcNS_11char_traitsIcEENS_9allocatorIcEEE5__repES5_E5firstEv
	movq	%rax, %rdi
	addq	$1, %rdi
	callq	__ZNSt3__114pointer_traitsIPcE10pointer_toERc
	addq	$16, %rsp
	popq	%rbp
	retq
	.cfi_endproc
                                        ## -- End function
	.p2align	4, 0x90                         ## -- Begin function _ZNSt3__112basic_stringIcNS_11char_traitsIcEENS_9allocatorIcEEE16__set_short_sizeEm
__ZNSt3__112basic_stringIcNS_11char_traitsIcEENS_9allocatorIcEEE16__set_short_sizeEm: ## @_ZNSt3__112basic_stringIcNS_11char_traitsIcEENS_9allocatorIcEEE16__set_short_sizeEm
	.cfi_startproc
## %bb.0:
	pushq	%rbp
	.cfi_def_cfa_offset 16
	.cfi_offset %rbp, -16
	movq	%rsp, %rbp
	.cfi_def_cfa_register %rbp
	subq	$32, %rsp
	movq	%rdi, -8(%rbp)
	movq	%rsi, -16(%rbp)
	movq	-8(%rbp), %rdi
	movq	-16(%rbp), %rax
	shlq	$1, %rax
                                        ## kill: def $al killed $al killed $rax
	movb	%al, -17(%rbp)                  ## 1-byte Spill
	callq	__ZNSt3__117__compressed_pairINS_12basic_stringIcNS_11char_traitsIcEENS_9allocatorIcEEE5__repES5_E5firstEv
	movb	-17(%rbp), %cl                  ## 1-byte Reload
	movb	%cl, (%rax)
	addq	$32, %rsp
	popq	%rbp
	retq
	.cfi_endproc
                                        ## -- End function
	.p2align	4, 0x90                         ## -- Begin function _ZNKSt3__117__compressed_pairINS_12basic_stringIcNS_11char_traitsIcEENS_9allocatorIcEEE5__repES5_E5firstEv
__ZNKSt3__117__compressed_pairINS_12basic_stringIcNS_11char_traitsIcEENS_9allocatorIcEEE5__repES5_E5firstEv: ## @_ZNKSt3__117__compressed_pairINS_12basic_stringIcNS_11char_traitsIcEENS_9allocatorIcEEE5__repES5_E5firstEv
	.cfi_startproc
## %bb.0:
	pushq	%rbp
	.cfi_def_cfa_offset 16
	.cfi_offset %rbp, -16
	movq	%rsp, %rbp
	.cfi_def_cfa_register %rbp
	subq	$16, %rsp
	movq	%rdi, -8(%rbp)
	movq	-8(%rbp), %rdi
	callq	__ZNKSt3__122__compressed_pair_elemINS_12basic_stringIcNS_11char_traitsIcEENS_9allocatorIcEEE5__repELi0ELb0EE5__getEv
	addq	$16, %rsp
	popq	%rbp
	retq
	.cfi_endproc
                                        ## -- End function
	.p2align	4, 0x90                         ## -- Begin function _ZNKSt3__122__compressed_pair_elemINS_12basic_stringIcNS_11char_traitsIcEENS_9allocatorIcEEE5__repELi0ELb0EE5__getEv
__ZNKSt3__122__compressed_pair_elemINS_12basic_stringIcNS_11char_traitsIcEENS_9allocatorIcEEE5__repELi0ELb0EE5__getEv: ## @_ZNKSt3__122__compressed_pair_elemINS_12basic_stringIcNS_11char_traitsIcEENS_9allocatorIcEEE5__repELi0ELb0EE5__getEv
	.cfi_startproc
## %bb.0:
	pushq	%rbp
	.cfi_def_cfa_offset 16
	.cfi_offset %rbp, -16
	movq	%rsp, %rbp
	.cfi_def_cfa_register %rbp
	movq	%rdi, -8(%rbp)
	movq	-8(%rbp), %rax
	popq	%rbp
	retq
	.cfi_endproc
                                        ## -- End function
	.p2align	4, 0x90                         ## -- Begin function _ZNSt3__114pointer_traitsIPcE10pointer_toERc
__ZNSt3__114pointer_traitsIPcE10pointer_toERc: ## @_ZNSt3__114pointer_traitsIPcE10pointer_toERc
	.cfi_startproc
## %bb.0:
	pushq	%rbp
	.cfi_def_cfa_offset 16
	.cfi_offset %rbp, -16
	movq	%rsp, %rbp
	.cfi_def_cfa_register %rbp
	subq	$16, %rsp
	movq	%rdi, -8(%rbp)
	movq	-8(%rbp), %rdi
	callq	__ZNSt3__1L9addressofIcEEPT_RS1_
	addq	$16, %rsp
	popq	%rbp
	retq
	.cfi_endproc
                                        ## -- End function
	.p2align	4, 0x90                         ## -- Begin function _ZNSt3__1L9addressofIcEEPT_RS1_
__ZNSt3__1L9addressofIcEEPT_RS1_:       ## @_ZNSt3__1L9addressofIcEEPT_RS1_
	.cfi_startproc
## %bb.0:
	pushq	%rbp
	.cfi_def_cfa_offset 16
	.cfi_offset %rbp, -16
	movq	%rsp, %rbp
	.cfi_def_cfa_register %rbp
	movq	%rdi, -8(%rbp)
	movq	-8(%rbp), %rax
	popq	%rbp
	retq
	.cfi_endproc
                                        ## -- End function
	.p2align	4, 0x90                         ## -- Begin function _ZNKSt3__18ios_base5rdbufEv
__ZNKSt3__18ios_base5rdbufEv:           ## @_ZNKSt3__18ios_base5rdbufEv
	.cfi_startproc
## %bb.0:
	pushq	%rbp
	.cfi_def_cfa_offset 16
	.cfi_offset %rbp, -16
	movq	%rsp, %rbp
	.cfi_def_cfa_register %rbp
	movq	%rdi, -8(%rbp)
	movq	-8(%rbp), %rax
	movq	40(%rax), %rax
	popq	%rbp
	retq
	.cfi_endproc
                                        ## -- End function
	.globl	__ZNSt3__111char_traitsIcE11to_int_typeEc ## -- Begin function _ZNSt3__111char_traitsIcE11to_int_typeEc
	.weak_definition	__ZNSt3__111char_traitsIcE11to_int_typeEc
	.p2align	4, 0x90
__ZNSt3__111char_traitsIcE11to_int_typeEc: ## @_ZNSt3__111char_traitsIcE11to_int_typeEc
	.cfi_startproc
## %bb.0:
	pushq	%rbp
	.cfi_def_cfa_offset 16
	.cfi_offset %rbp, -16
	movq	%rsp, %rbp
	.cfi_def_cfa_register %rbp
	movb	%dil, %al
	movb	%al, -1(%rbp)
	movzbl	-1(%rbp), %eax
	popq	%rbp
	retq
	.cfi_endproc
                                        ## -- End function
	.p2align	4, 0x90                         ## -- Begin function _ZNKSt3__112basic_stringIcNS_11char_traitsIcEENS_9allocatorIcEEE15__get_long_sizeEv
__ZNKSt3__112basic_stringIcNS_11char_traitsIcEENS_9allocatorIcEEE15__get_long_sizeEv: ## @_ZNKSt3__112basic_stringIcNS_11char_traitsIcEENS_9allocatorIcEEE15__get_long_sizeEv
	.cfi_startproc
## %bb.0:
	pushq	%rbp
	.cfi_def_cfa_offset 16
	.cfi_offset %rbp, -16
	movq	%rsp, %rbp
	.cfi_def_cfa_register %rbp
	subq	$16, %rsp
	movq	%rdi, -8(%rbp)
	movq	-8(%rbp), %rdi
	callq	__ZNKSt3__117__compressed_pairINS_12basic_stringIcNS_11char_traitsIcEENS_9allocatorIcEEE5__repES5_E5firstEv
	movq	8(%rax), %rax
	addq	$16, %rsp
	popq	%rbp
	retq
	.cfi_endproc
                                        ## -- End function
	.p2align	4, 0x90                         ## -- Begin function _ZNKSt3__112basic_stringIcNS_11char_traitsIcEENS_9allocatorIcEEE16__get_short_sizeEv
__ZNKSt3__112basic_stringIcNS_11char_traitsIcEENS_9allocatorIcEEE16__get_short_sizeEv: ## @_ZNKSt3__112basic_stringIcNS_11char_traitsIcEENS_9allocatorIcEEE16__get_short_sizeEv
	.cfi_startproc
## %bb.0:
	pushq	%rbp
	.cfi_def_cfa_offset 16
	.cfi_offset %rbp, -16
	movq	%rsp, %rbp
	.cfi_def_cfa_register %rbp
	subq	$16, %rsp
	movq	%rdi, -8(%rbp)
	movq	-8(%rbp), %rdi
	callq	__ZNKSt3__117__compressed_pairINS_12basic_stringIcNS_11char_traitsIcEENS_9allocatorIcEEE5__repES5_E5firstEv
	movzbl	(%rax), %eax
	sarl	$1, %eax
	cltq
	addq	$16, %rsp
	popq	%rbp
	retq
	.cfi_endproc
                                        ## -- End function
	.p2align	4, 0x90                         ## -- Begin function _ZNSt3__116allocator_traitsINS_9allocatorIcEEE8max_sizeIS2_vEEmRKS2_
__ZNSt3__116allocator_traitsINS_9allocatorIcEEE8max_sizeIS2_vEEmRKS2_: ## @_ZNSt3__116allocator_traitsINS_9allocatorIcEEE8max_sizeIS2_vEEmRKS2_
	.cfi_startproc
## %bb.0:
	pushq	%rbp
	.cfi_def_cfa_offset 16
	.cfi_offset %rbp, -16
	movq	%rsp, %rbp
	.cfi_def_cfa_register %rbp
	subq	$16, %rsp
	movq	%rdi, -8(%rbp)
	movq	-8(%rbp), %rdi
	callq	__ZNKSt3__19allocatorIcE8max_sizeEv
	addq	$16, %rsp
	popq	%rbp
	retq
	.cfi_endproc
                                        ## -- End function
	.p2align	4, 0x90                         ## -- Begin function _ZNKSt3__112basic_stringIcNS_11char_traitsIcEENS_9allocatorIcEEE7__allocEv
__ZNKSt3__112basic_stringIcNS_11char_traitsIcEENS_9allocatorIcEEE7__allocEv: ## @_ZNKSt3__112basic_stringIcNS_11char_traitsIcEENS_9allocatorIcEEE7__allocEv
	.cfi_startproc
## %bb.0:
	pushq	%rbp
	.cfi_def_cfa_offset 16
	.cfi_offset %rbp, -16
	movq	%rsp, %rbp
	.cfi_def_cfa_register %rbp
	subq	$16, %rsp
	movq	%rdi, -8(%rbp)
	movq	-8(%rbp), %rdi
	callq	__ZNKSt3__117__compressed_pairINS_12basic_stringIcNS_11char_traitsIcEENS_9allocatorIcEEE5__repES5_E6secondEv
	addq	$16, %rsp
	popq	%rbp
	retq
	.cfi_endproc
                                        ## -- End function
	.p2align	4, 0x90                         ## -- Begin function _ZNKSt3__19allocatorIcE8max_sizeEv
__ZNKSt3__19allocatorIcE8max_sizeEv:    ## @_ZNKSt3__19allocatorIcE8max_sizeEv
	.cfi_startproc
## %bb.0:
	pushq	%rbp
	.cfi_def_cfa_offset 16
	.cfi_offset %rbp, -16
	movq	%rsp, %rbp
	.cfi_def_cfa_register %rbp
	movq	%rdi, -8(%rbp)
	movq	$-1, %rax
	popq	%rbp
	retq
	.cfi_endproc
                                        ## -- End function
	.p2align	4, 0x90                         ## -- Begin function _ZNKSt3__117__compressed_pairINS_12basic_stringIcNS_11char_traitsIcEENS_9allocatorIcEEE5__repES5_E6secondEv
__ZNKSt3__117__compressed_pairINS_12basic_stringIcNS_11char_traitsIcEENS_9allocatorIcEEE5__repES5_E6secondEv: ## @_ZNKSt3__117__compressed_pairINS_12basic_stringIcNS_11char_traitsIcEENS_9allocatorIcEEE5__repES5_E6secondEv
	.cfi_startproc
## %bb.0:
	pushq	%rbp
	.cfi_def_cfa_offset 16
	.cfi_offset %rbp, -16
	movq	%rsp, %rbp
	.cfi_def_cfa_register %rbp
	subq	$16, %rsp
	movq	%rdi, -8(%rbp)
	movq	-8(%rbp), %rdi
	callq	__ZNKSt3__122__compressed_pair_elemINS_9allocatorIcEELi1ELb1EE5__getEv
	addq	$16, %rsp
	popq	%rbp
	retq
	.cfi_endproc
                                        ## -- End function
	.p2align	4, 0x90                         ## -- Begin function _ZNKSt3__122__compressed_pair_elemINS_9allocatorIcEELi1ELb1EE5__getEv
__ZNKSt3__122__compressed_pair_elemINS_9allocatorIcEELi1ELb1EE5__getEv: ## @_ZNKSt3__122__compressed_pair_elemINS_9allocatorIcEELi1ELb1EE5__getEv
	.cfi_startproc
## %bb.0:
	pushq	%rbp
	.cfi_def_cfa_offset 16
	.cfi_offset %rbp, -16
	movq	%rsp, %rbp
	.cfi_def_cfa_register %rbp
	movq	%rdi, -8(%rbp)
	movq	-8(%rbp), %rax
	popq	%rbp
	retq
	.cfi_endproc
                                        ## -- End function
	.p2align	4, 0x90                         ## -- Begin function _ZNKSt3__18ios_base10exceptionsEv
__ZNKSt3__18ios_base10exceptionsEv:     ## @_ZNKSt3__18ios_base10exceptionsEv
	.cfi_startproc
## %bb.0:
	pushq	%rbp
	.cfi_def_cfa_offset 16
	.cfi_offset %rbp, -16
	movq	%rsp, %rbp
	.cfi_def_cfa_register %rbp
	movq	%rdi, -8(%rbp)
	movq	-8(%rbp), %rax
	movl	36(%rax), %eax
	popq	%rbp
	retq
	.cfi_endproc
                                        ## -- End function
	.p2align	4, 0x90                         ## -- Begin function _ZNSt3__18ios_base8setstateEj
__ZNSt3__18ios_base8setstateEj:         ## @_ZNSt3__18ios_base8setstateEj
	.cfi_startproc
## %bb.0:
	pushq	%rbp
	.cfi_def_cfa_offset 16
	.cfi_offset %rbp, -16
	movq	%rsp, %rbp
	.cfi_def_cfa_register %rbp
	subq	$16, %rsp
	movq	%rdi, -8(%rbp)
	movl	%esi, -12(%rbp)
	movq	-8(%rbp), %rdi
	movl	32(%rdi), %esi
	orl	-12(%rbp), %esi
	callq	__ZNSt3__18ios_base5clearEj
	addq	$16, %rsp
	popq	%rbp
	retq
	.cfi_endproc
                                        ## -- End function
	.p2align	4, 0x90                         ## -- Begin function _ZNSt3__1L9use_facetINS_5ctypeIcEEEERKT_RKNS_6localeE
__ZNSt3__1L9use_facetINS_5ctypeIcEEEERKT_RKNS_6localeE: ## @_ZNSt3__1L9use_facetINS_5ctypeIcEEEERKT_RKNS_6localeE
	.cfi_startproc
## %bb.0:
	pushq	%rbp
	.cfi_def_cfa_offset 16
	.cfi_offset %rbp, -16
	movq	%rsp, %rbp
	.cfi_def_cfa_register %rbp
	subq	$16, %rsp
	movq	__ZNSt3__15ctypeIcE2idE@GOTPCREL(%rip), %rsi
	movq	%rdi, -8(%rbp)
	movq	-8(%rbp), %rdi
	callq	__ZNKSt3__16locale9use_facetERNS0_2idE
	addq	$16, %rsp
	popq	%rbp
	retq
	.cfi_endproc
                                        ## -- End function
	.p2align	4, 0x90                         ## -- Begin function _ZNKSt3__15ctypeIcE5widenEc
__ZNKSt3__15ctypeIcE5widenEc:           ## @_ZNKSt3__15ctypeIcE5widenEc
	.cfi_startproc
## %bb.0:
	pushq	%rbp
	.cfi_def_cfa_offset 16
	.cfi_offset %rbp, -16
	movq	%rsp, %rbp
	.cfi_def_cfa_register %rbp
	subq	$16, %rsp
	movb	%sil, %al
	movq	%rdi, -8(%rbp)
	movb	%al, -9(%rbp)
	movq	-8(%rbp), %rdi
	movb	-9(%rbp), %cl
	movq	(%rdi), %rax
	movsbl	%cl, %esi
	callq	*56(%rax)
	movsbl	%al, %eax
	addq	$16, %rsp
	popq	%rbp
	retq
	.cfi_endproc
                                        ## -- End function
	.globl	__ZNSt3__124__put_character_sequenceIcNS_11char_traitsIcEEEERNS_13basic_ostreamIT_T0_EES7_PKS4_m ## -- Begin function _ZNSt3__124__put_character_sequenceIcNS_11char_traitsIcEEEERNS_13basic_ostreamIT_T0_EES7_PKS4_m
	.weak_definition	__ZNSt3__124__put_character_sequenceIcNS_11char_traitsIcEEEERNS_13basic_ostreamIT_T0_EES7_PKS4_m
	.p2align	4, 0x90
__ZNSt3__124__put_character_sequenceIcNS_11char_traitsIcEEEERNS_13basic_ostreamIT_T0_EES7_PKS4_m: ## @_ZNSt3__124__put_character_sequenceIcNS_11char_traitsIcEEEERNS_13basic_ostreamIT_T0_EES7_PKS4_m
Lfunc_begin4:
	.cfi_startproc
	.cfi_personality 155, ___gxx_personality_v0
	.cfi_lsda 16, Lexception4
## %bb.0:
	pushq	%rbp
	.cfi_def_cfa_offset 16
	.cfi_offset %rbp, -16
	movq	%rsp, %rbp
	.cfi_def_cfa_register %rbp
	subq	$144, %rsp
	movq	%rdx, %rcx
	movq	%rdi, -8(%rbp)
	movq	%rsi, -16(%rbp)
	movq	%rcx, -24(%rbp)
	movq	-8(%rbp), %rsi
Ltmp143:
	leaq	-40(%rbp), %rdi
	callq	__ZNSt3__113basic_ostreamIcNS_11char_traitsIcEEE6sentryC1ERS3_
Ltmp144:
	jmp	LBB70_1
LBB70_1:
Ltmp145:
	leaq	-40(%rbp), %rdi
	callq	__ZNKSt3__113basic_ostreamIcNS_11char_traitsIcEEE6sentrycvbEv
	movb	%al, %cl
Ltmp146:
	movb	%cl, -73(%rbp)                  ## 1-byte Spill
	jmp	LBB70_2
LBB70_2:
	movb	-73(%rbp), %al                  ## 1-byte Reload
	testb	$1, %al
	jne	LBB70_3
	jmp	LBB70_15
LBB70_3:
	movq	-8(%rbp), %rsi
	leaq	-72(%rbp), %rdi
	callq	__ZNSt3__119ostreambuf_iteratorIcNS_11char_traitsIcEEEC1ERNS_13basic_ostreamIcS2_EE
	movq	-16(%rbp), %rax
	movq	%rax, -88(%rbp)                 ## 8-byte Spill
	movq	-8(%rbp), %rdi
	movq	(%rdi), %rax
	movq	-24(%rax), %rax
	addq	%rax, %rdi
Ltmp147:
	callq	__ZNKSt3__18ios_base5flagsEv
	movl	%eax, %ecx
Ltmp148:
	movl	%ecx, -80(%rbp)                 ## 4-byte Spill
	jmp	LBB70_4
LBB70_4:
	movl	-80(%rbp), %eax                 ## 4-byte Reload
	andl	$176, %eax
	cmpl	$32, %eax
	jne	LBB70_6
## %bb.5:
	movq	-16(%rbp), %rax
	addq	-24(%rbp), %rax
	movq	%rax, -96(%rbp)                 ## 8-byte Spill
	jmp	LBB70_7
LBB70_6:
	movq	-16(%rbp), %rax
	movq	%rax, -96(%rbp)                 ## 8-byte Spill
LBB70_7:
	movq	-96(%rbp), %rcx                 ## 8-byte Reload
	movq	%rcx, -128(%rbp)                ## 8-byte Spill
	movq	-16(%rbp), %rcx
	movq	-24(%rbp), %rsi
	addq	%rsi, %rcx
	movq	%rcx, -120(%rbp)                ## 8-byte Spill
	movq	-8(%rbp), %rdi
	movq	(%rdi), %rcx
	movq	-24(%rcx), %rcx
	addq	%rcx, %rdi
	movq	%rdi, -112(%rbp)                ## 8-byte Spill
Ltmp149:
	callq	__ZNKSt3__19basic_iosIcNS_11char_traitsIcEEE4fillEv
	movb	%al, %cl
Ltmp150:
	movb	%cl, -97(%rbp)                  ## 1-byte Spill
	jmp	LBB70_8
LBB70_8:
	movq	-112(%rbp), %r8                 ## 8-byte Reload
	movq	-120(%rbp), %rcx                ## 8-byte Reload
	movq	-128(%rbp), %rdx                ## 8-byte Reload
	movq	-88(%rbp), %rsi                 ## 8-byte Reload
	movb	-97(%rbp), %al                  ## 1-byte Reload
	movq	-72(%rbp), %rdi
Ltmp151:
	movsbl	%al, %r9d
	callq	__ZNSt3__116__pad_and_outputIcNS_11char_traitsIcEEEENS_19ostreambuf_iteratorIT_T0_EES6_PKS4_S8_S8_RNS_8ios_baseES4_
	movq	%rax, %rcx
Ltmp152:
	movq	%rcx, -136(%rbp)                ## 8-byte Spill
	jmp	LBB70_9
LBB70_9:
	movq	-136(%rbp), %rax                ## 8-byte Reload
	movq	%rax, -64(%rbp)
	leaq	-64(%rbp), %rdi
	callq	__ZNKSt3__119ostreambuf_iteratorIcNS_11char_traitsIcEEE6failedEv
	testb	$1, %al
	jne	LBB70_10
	jmp	LBB70_14
LBB70_10:
	movq	-8(%rbp), %rdi
	movq	(%rdi), %rcx
	movq	-24(%rcx), %rcx
	addq	%rcx, %rdi
Ltmp153:
	movl	$5, %esi
	callq	__ZNSt3__19basic_iosIcNS_11char_traitsIcEEE8setstateEj
Ltmp154:
	jmp	LBB70_11
LBB70_11:
	jmp	LBB70_14
LBB70_12:
Ltmp160:
	movq	%rax, %rcx
	movl	%edx, %eax
	movq	%rcx, -48(%rbp)
	movl	%eax, -52(%rbp)
	jmp	LBB70_18
LBB70_13:
Ltmp155:
	movq	%rdx, %rcx
	movq	%rax, %rsi
                                        ## kill: def $ecx killed $ecx killed $rcx
	movq	%rsi, -48(%rbp)
	movl	%ecx, -52(%rbp)
Ltmp156:
	leaq	-40(%rbp), %rdi
	callq	__ZNSt3__113basic_ostreamIcNS_11char_traitsIcEEE6sentryD1Ev
Ltmp157:
	jmp	LBB70_17
LBB70_14:
	jmp	LBB70_15
LBB70_15:
Ltmp158:
	leaq	-40(%rbp), %rdi
	callq	__ZNSt3__113basic_ostreamIcNS_11char_traitsIcEEE6sentryD1Ev
Ltmp159:
	jmp	LBB70_16
LBB70_16:
	jmp	LBB70_20
LBB70_17:
	jmp	LBB70_18
LBB70_18:
	movq	-48(%rbp), %rdi
	callq	___cxa_begin_catch
                                        ## kill: def $rcx killed $rax
	movq	-8(%rbp), %rdi
	movq	(%rdi), %rcx
	movq	-24(%rcx), %rcx
	addq	%rcx, %rdi
Ltmp161:
	callq	__ZNSt3__18ios_base33__set_badbit_and_consider_rethrowEv
Ltmp162:
	jmp	LBB70_19
LBB70_19:
	callq	___cxa_end_catch
LBB70_20:
	movq	-8(%rbp), %rax
	addq	$144, %rsp
	popq	%rbp
	retq
LBB70_21:
Ltmp163:
	movq	%rdx, %rcx
	movq	%rax, %rsi
                                        ## kill: def $ecx killed $ecx killed $rcx
	movq	%rsi, -48(%rbp)
	movl	%ecx, -52(%rbp)
Ltmp164:
	callq	___cxa_end_catch
Ltmp165:
	jmp	LBB70_22
LBB70_22:
	jmp	LBB70_23
LBB70_23:
	movq	-48(%rbp), %rdi
	callq	__Unwind_Resume
LBB70_24:
Ltmp166:
	movq	%rax, %rdi
	callq	___clang_call_terminate
Lfunc_end4:
	.cfi_endproc
	.section	__TEXT,__gcc_except_tab
	.p2align	2
GCC_except_table70:
Lexception4:
	.byte	255                             ## @LPStart Encoding = omit
	.byte	155                             ## @TType Encoding = indirect pcrel sdata4
	.uleb128 Lttbase4-Lttbaseref4
Lttbaseref4:
	.byte	1                               ## Call site Encoding = uleb128
	.uleb128 Lcst_end4-Lcst_begin4
Lcst_begin4:
	.uleb128 Ltmp143-Lfunc_begin4           ## >> Call Site 1 <<
	.uleb128 Ltmp144-Ltmp143                ##   Call between Ltmp143 and Ltmp144
	.uleb128 Ltmp160-Lfunc_begin4           ##     jumps to Ltmp160
	.byte	1                               ##   On action: 1
	.uleb128 Ltmp145-Lfunc_begin4           ## >> Call Site 2 <<
	.uleb128 Ltmp154-Ltmp145                ##   Call between Ltmp145 and Ltmp154
	.uleb128 Ltmp155-Lfunc_begin4           ##     jumps to Ltmp155
	.byte	1                               ##   On action: 1
	.uleb128 Ltmp156-Lfunc_begin4           ## >> Call Site 3 <<
	.uleb128 Ltmp157-Ltmp156                ##   Call between Ltmp156 and Ltmp157
	.uleb128 Ltmp166-Lfunc_begin4           ##     jumps to Ltmp166
	.byte	1                               ##   On action: 1
	.uleb128 Ltmp158-Lfunc_begin4           ## >> Call Site 4 <<
	.uleb128 Ltmp159-Ltmp158                ##   Call between Ltmp158 and Ltmp159
	.uleb128 Ltmp160-Lfunc_begin4           ##     jumps to Ltmp160
	.byte	1                               ##   On action: 1
	.uleb128 Ltmp159-Lfunc_begin4           ## >> Call Site 5 <<
	.uleb128 Ltmp161-Ltmp159                ##   Call between Ltmp159 and Ltmp161
	.byte	0                               ##     has no landing pad
	.byte	0                               ##   On action: cleanup
	.uleb128 Ltmp161-Lfunc_begin4           ## >> Call Site 6 <<
	.uleb128 Ltmp162-Ltmp161                ##   Call between Ltmp161 and Ltmp162
	.uleb128 Ltmp163-Lfunc_begin4           ##     jumps to Ltmp163
	.byte	0                               ##   On action: cleanup
	.uleb128 Ltmp162-Lfunc_begin4           ## >> Call Site 7 <<
	.uleb128 Ltmp164-Ltmp162                ##   Call between Ltmp162 and Ltmp164
	.byte	0                               ##     has no landing pad
	.byte	0                               ##   On action: cleanup
	.uleb128 Ltmp164-Lfunc_begin4           ## >> Call Site 8 <<
	.uleb128 Ltmp165-Ltmp164                ##   Call between Ltmp164 and Ltmp165
	.uleb128 Ltmp166-Lfunc_begin4           ##     jumps to Ltmp166
	.byte	1                               ##   On action: 1
	.uleb128 Ltmp165-Lfunc_begin4           ## >> Call Site 9 <<
	.uleb128 Lfunc_end4-Ltmp165             ##   Call between Ltmp165 and Lfunc_end4
	.byte	0                               ##     has no landing pad
	.byte	0                               ##   On action: cleanup
Lcst_end4:
	.byte	1                               ## >> Action Record 1 <<
                                        ##   Catch TypeInfo 1
	.byte	0                               ##   No further actions
	.p2align	2
                                        ## >> Catch TypeInfos <<
	.long	0                               ## TypeInfo 1
Lttbase4:
	.p2align	2
                                        ## -- End function
	.section	__TEXT,__text,regular,pure_instructions
	.globl	__ZNSt3__111char_traitsIcE6lengthEPKc ## -- Begin function _ZNSt3__111char_traitsIcE6lengthEPKc
	.weak_definition	__ZNSt3__111char_traitsIcE6lengthEPKc
	.p2align	4, 0x90
__ZNSt3__111char_traitsIcE6lengthEPKc:  ## @_ZNSt3__111char_traitsIcE6lengthEPKc
	.cfi_startproc
## %bb.0:
	pushq	%rbp
	.cfi_def_cfa_offset 16
	.cfi_offset %rbp, -16
	movq	%rsp, %rbp
	.cfi_def_cfa_register %rbp
	subq	$16, %rsp
	movq	%rdi, -8(%rbp)
	movq	-8(%rbp), %rdi
	callq	_strlen
	addq	$16, %rsp
	popq	%rbp
	retq
	.cfi_endproc
                                        ## -- End function
	.p2align	4, 0x90                         ## -- Begin function _ZNKSt3__113basic_ostreamIcNS_11char_traitsIcEEE6sentrycvbEv
__ZNKSt3__113basic_ostreamIcNS_11char_traitsIcEEE6sentrycvbEv: ## @_ZNKSt3__113basic_ostreamIcNS_11char_traitsIcEEE6sentrycvbEv
	.cfi_startproc
## %bb.0:
	pushq	%rbp
	.cfi_def_cfa_offset 16
	.cfi_offset %rbp, -16
	movq	%rsp, %rbp
	.cfi_def_cfa_register %rbp
	movq	%rdi, -8(%rbp)
	movq	-8(%rbp), %rax
	movb	(%rax), %al
	andb	$1, %al
	movzbl	%al, %eax
	popq	%rbp
	retq
	.cfi_endproc
                                        ## -- End function
	.private_extern	__ZNSt3__116__pad_and_outputIcNS_11char_traitsIcEEEENS_19ostreambuf_iteratorIT_T0_EES6_PKS4_S8_S8_RNS_8ios_baseES4_ ## -- Begin function _ZNSt3__116__pad_and_outputIcNS_11char_traitsIcEEEENS_19ostreambuf_iteratorIT_T0_EES6_PKS4_S8_S8_RNS_8ios_baseES4_
	.globl	__ZNSt3__116__pad_and_outputIcNS_11char_traitsIcEEEENS_19ostreambuf_iteratorIT_T0_EES6_PKS4_S8_S8_RNS_8ios_baseES4_
	.weak_definition	__ZNSt3__116__pad_and_outputIcNS_11char_traitsIcEEEENS_19ostreambuf_iteratorIT_T0_EES6_PKS4_S8_S8_RNS_8ios_baseES4_
	.p2align	4, 0x90
__ZNSt3__116__pad_and_outputIcNS_11char_traitsIcEEEENS_19ostreambuf_iteratorIT_T0_EES6_PKS4_S8_S8_RNS_8ios_baseES4_: ## @_ZNSt3__116__pad_and_outputIcNS_11char_traitsIcEEEENS_19ostreambuf_iteratorIT_T0_EES6_PKS4_S8_S8_RNS_8ios_baseES4_
Lfunc_begin5:
	.cfi_startproc
	.cfi_personality 155, ___gxx_personality_v0
	.cfi_lsda 16, Lexception5
## %bb.0:
	pushq	%rbp
	.cfi_def_cfa_offset 16
	.cfi_offset %rbp, -16
	movq	%rsp, %rbp
	.cfi_def_cfa_register %rbp
	subq	$208, %rsp
	movb	%r9b, %al
	movq	%rdi, -16(%rbp)
	movq	%rsi, -24(%rbp)
	movq	%rdx, -32(%rbp)
	movq	%rcx, -40(%rbp)
	movq	%r8, -48(%rbp)
	movb	%al, -49(%rbp)
	movq	-16(%rbp), %rax
	movq	%rax, -168(%rbp)                ## 8-byte Spill
	callq	__ZNSt3__1L15__get_nullptr_tEv
	movq	%rax, -64(%rbp)
	leaq	-64(%rbp), %rdi
	callq	__ZNKSt3__19nullptr_tcvPT_INS_15basic_streambufIcNS_11char_traitsIcEEEEEEv
	movq	%rax, %rcx
	movq	-168(%rbp), %rax                ## 8-byte Reload
	cmpq	%rcx, %rax
	jne	LBB73_2
## %bb.1:
	movq	-16(%rbp), %rax
	movq	%rax, -8(%rbp)
	jmp	LBB73_25
LBB73_2:
	movq	-40(%rbp), %rax
	movq	-24(%rbp), %rcx
	subq	%rcx, %rax
	movq	%rax, -72(%rbp)
	movq	-48(%rbp), %rdi
	callq	__ZNKSt3__18ios_base5widthEv
	movq	%rax, -80(%rbp)
	movq	-80(%rbp), %rax
	cmpq	-72(%rbp), %rax
	jle	LBB73_4
## %bb.3:
	movq	-72(%rbp), %rcx
	movq	-80(%rbp), %rax
	subq	%rcx, %rax
	movq	%rax, -80(%rbp)
	jmp	LBB73_5
LBB73_4:
	movq	$0, -80(%rbp)
LBB73_5:
	movq	-32(%rbp), %rax
	movq	-24(%rbp), %rcx
	subq	%rcx, %rax
	movq	%rax, -88(%rbp)
	cmpq	$0, -88(%rbp)
	jle	LBB73_9
## %bb.6:
	movq	-16(%rbp), %rdi
	movq	-24(%rbp), %rsi
	movq	-88(%rbp), %rdx
	callq	__ZNSt3__115basic_streambufIcNS_11char_traitsIcEEE5sputnEPKcl
	cmpq	-88(%rbp), %rax
	je	LBB73_8
## %bb.7:
	callq	__ZNSt3__1L15__get_nullptr_tEv
	movq	%rax, -96(%rbp)
	leaq	-96(%rbp), %rdi
	callq	__ZNKSt3__19nullptr_tcvPT_INS_15basic_streambufIcNS_11char_traitsIcEEEEEEv
	movq	%rax, -16(%rbp)
	movq	-16(%rbp), %rax
	movq	%rax, -8(%rbp)
	jmp	LBB73_25
LBB73_8:
	jmp	LBB73_9
LBB73_9:
	cmpq	$0, -80(%rbp)
	jle	LBB73_20
## %bb.10:
	movq	-80(%rbp), %rsi
	movsbl	-49(%rbp), %edx
	leaq	-120(%rbp), %rdi
	movq	%rdi, -192(%rbp)                ## 8-byte Spill
	callq	__ZNSt3__112basic_stringIcNS_11char_traitsIcEENS_9allocatorIcEEEC1Emc
	movq	-192(%rbp), %rdi                ## 8-byte Reload
	movq	-16(%rbp), %rax
	movq	%rax, -184(%rbp)                ## 8-byte Spill
	callq	__ZNKSt3__112basic_stringIcNS_11char_traitsIcEENS_9allocatorIcEEE4dataEv
	movq	-184(%rbp), %rdi                ## 8-byte Reload
	movq	%rax, %rsi
	movq	-80(%rbp), %rdx
Ltmp167:
	callq	__ZNSt3__115basic_streambufIcNS_11char_traitsIcEEE5sputnEPKcl
	movq	%rax, %rcx
Ltmp168:
	movq	%rcx, -176(%rbp)                ## 8-byte Spill
	jmp	LBB73_11
LBB73_11:
	movq	-176(%rbp), %rax                ## 8-byte Reload
	cmpq	-80(%rbp), %rax
	je	LBB73_16
## %bb.12:
Ltmp169:
	callq	__ZNSt3__1L15__get_nullptr_tEv
	movq	%rax, %rcx
Ltmp170:
	movq	%rcx, -200(%rbp)                ## 8-byte Spill
	jmp	LBB73_13
LBB73_13:
	movq	-200(%rbp), %rax                ## 8-byte Reload
	movq	%rax, -144(%rbp)
Ltmp171:
	leaq	-144(%rbp), %rdi
	callq	__ZNKSt3__19nullptr_tcvPT_INS_15basic_streambufIcNS_11char_traitsIcEEEEEEv
	movq	%rax, %rcx
Ltmp172:
	movq	%rcx, -208(%rbp)                ## 8-byte Spill
	jmp	LBB73_14
LBB73_14:
	movq	-208(%rbp), %rax                ## 8-byte Reload
	movq	%rax, -16(%rbp)
	movq	-16(%rbp), %rax
	movq	%rax, -8(%rbp)
	movl	$1, -148(%rbp)
	jmp	LBB73_17
LBB73_15:
Ltmp173:
	movq	%rdx, %rcx
	movq	%rax, %rsi
                                        ## kill: def $ecx killed $ecx killed $rcx
	movq	%rsi, -128(%rbp)
	movl	%ecx, -132(%rbp)
Ltmp174:
	leaq	-120(%rbp), %rdi
	callq	__ZNSt3__112basic_stringIcNS_11char_traitsIcEENS_9allocatorIcEEED1Ev
Ltmp175:
	jmp	LBB73_19
LBB73_16:
	movl	$0, -148(%rbp)
LBB73_17:
	leaq	-120(%rbp), %rdi
	callq	__ZNSt3__112basic_stringIcNS_11char_traitsIcEENS_9allocatorIcEEED1Ev
	movl	-148(%rbp), %eax
	testl	%eax, %eax
	je	LBB73_18
	jmp	LBB73_29
LBB73_29:
	jmp	LBB73_25
LBB73_18:
	jmp	LBB73_20
LBB73_19:
	jmp	LBB73_26
LBB73_20:
	movq	-40(%rbp), %rax
	movq	-32(%rbp), %rcx
	subq	%rcx, %rax
	movq	%rax, -88(%rbp)
	cmpq	$0, -88(%rbp)
	jle	LBB73_24
## %bb.21:
	movq	-16(%rbp), %rdi
	movq	-32(%rbp), %rsi
	movq	-88(%rbp), %rdx
	callq	__ZNSt3__115basic_streambufIcNS_11char_traitsIcEEE5sputnEPKcl
	cmpq	-88(%rbp), %rax
	je	LBB73_23
## %bb.22:
	callq	__ZNSt3__1L15__get_nullptr_tEv
	movq	%rax, -160(%rbp)
	leaq	-160(%rbp), %rdi
	callq	__ZNKSt3__19nullptr_tcvPT_INS_15basic_streambufIcNS_11char_traitsIcEEEEEEv
	movq	%rax, -16(%rbp)
	movq	-16(%rbp), %rax
	movq	%rax, -8(%rbp)
	jmp	LBB73_25
LBB73_23:
	jmp	LBB73_24
LBB73_24:
	xorl	%eax, %eax
	movl	%eax, %esi
	movq	-48(%rbp), %rdi
	callq	__ZNSt3__18ios_base5widthEl
	movq	-16(%rbp), %rax
	movq	%rax, -8(%rbp)
LBB73_25:
	movq	-8(%rbp), %rax
	addq	$208, %rsp
	popq	%rbp
	retq
LBB73_26:
	movq	-128(%rbp), %rdi
	callq	__Unwind_Resume
LBB73_27:
Ltmp176:
	movq	%rax, %rdi
	callq	___clang_call_terminate
## %bb.28:
	ud2
Lfunc_end5:
	.cfi_endproc
	.section	__TEXT,__gcc_except_tab
	.p2align	2
GCC_except_table73:
Lexception5:
	.byte	255                             ## @LPStart Encoding = omit
	.byte	155                             ## @TType Encoding = indirect pcrel sdata4
	.uleb128 Lttbase5-Lttbaseref5
Lttbaseref5:
	.byte	1                               ## Call site Encoding = uleb128
	.uleb128 Lcst_end5-Lcst_begin5
Lcst_begin5:
	.uleb128 Lfunc_begin5-Lfunc_begin5      ## >> Call Site 1 <<
	.uleb128 Ltmp167-Lfunc_begin5           ##   Call between Lfunc_begin5 and Ltmp167
	.byte	0                               ##     has no landing pad
	.byte	0                               ##   On action: cleanup
	.uleb128 Ltmp167-Lfunc_begin5           ## >> Call Site 2 <<
	.uleb128 Ltmp172-Ltmp167                ##   Call between Ltmp167 and Ltmp172
	.uleb128 Ltmp173-Lfunc_begin5           ##     jumps to Ltmp173
	.byte	0                               ##   On action: cleanup
	.uleb128 Ltmp174-Lfunc_begin5           ## >> Call Site 3 <<
	.uleb128 Ltmp175-Ltmp174                ##   Call between Ltmp174 and Ltmp175
	.uleb128 Ltmp176-Lfunc_begin5           ##     jumps to Ltmp176
	.byte	1                               ##   On action: 1
	.uleb128 Ltmp175-Lfunc_begin5           ## >> Call Site 4 <<
	.uleb128 Lfunc_end5-Ltmp175             ##   Call between Ltmp175 and Lfunc_end5
	.byte	0                               ##     has no landing pad
	.byte	0                               ##   On action: cleanup
Lcst_end5:
	.byte	1                               ## >> Action Record 1 <<
                                        ##   Catch TypeInfo 1
	.byte	0                               ##   No further actions
	.p2align	2
                                        ## >> Catch TypeInfos <<
	.long	0                               ## TypeInfo 1
Lttbase5:
	.p2align	2
                                        ## -- End function
	.section	__TEXT,__text,regular,pure_instructions
	.p2align	4, 0x90                         ## -- Begin function _ZNSt3__119ostreambuf_iteratorIcNS_11char_traitsIcEEEC1ERNS_13basic_ostreamIcS2_EE
__ZNSt3__119ostreambuf_iteratorIcNS_11char_traitsIcEEEC1ERNS_13basic_ostreamIcS2_EE: ## @_ZNSt3__119ostreambuf_iteratorIcNS_11char_traitsIcEEEC1ERNS_13basic_ostreamIcS2_EE
	.cfi_startproc
## %bb.0:
	pushq	%rbp
	.cfi_def_cfa_offset 16
	.cfi_offset %rbp, -16
	movq	%rsp, %rbp
	.cfi_def_cfa_register %rbp
	subq	$16, %rsp
	movq	%rdi, -8(%rbp)
	movq	%rsi, -16(%rbp)
	movq	-8(%rbp), %rdi
	movq	-16(%rbp), %rsi
	callq	__ZNSt3__119ostreambuf_iteratorIcNS_11char_traitsIcEEEC2ERNS_13basic_ostreamIcS2_EE
	addq	$16, %rsp
	popq	%rbp
	retq
	.cfi_endproc
                                        ## -- End function
	.p2align	4, 0x90                         ## -- Begin function _ZNKSt3__18ios_base5flagsEv
__ZNKSt3__18ios_base5flagsEv:           ## @_ZNKSt3__18ios_base5flagsEv
	.cfi_startproc
## %bb.0:
	pushq	%rbp
	.cfi_def_cfa_offset 16
	.cfi_offset %rbp, -16
	movq	%rsp, %rbp
	.cfi_def_cfa_register %rbp
	movq	%rdi, -8(%rbp)
	movq	-8(%rbp), %rax
	movl	8(%rax), %eax
	popq	%rbp
	retq
	.cfi_endproc
                                        ## -- End function
	.p2align	4, 0x90                         ## -- Begin function _ZNKSt3__19basic_iosIcNS_11char_traitsIcEEE4fillEv
__ZNKSt3__19basic_iosIcNS_11char_traitsIcEEE4fillEv: ## @_ZNKSt3__19basic_iosIcNS_11char_traitsIcEEE4fillEv
	.cfi_startproc
## %bb.0:
	pushq	%rbp
	.cfi_def_cfa_offset 16
	.cfi_offset %rbp, -16
	movq	%rsp, %rbp
	.cfi_def_cfa_register %rbp
	subq	$16, %rsp
	movq	%rdi, -8(%rbp)
	movq	-8(%rbp), %rax
	movq	%rax, -16(%rbp)                 ## 8-byte Spill
	callq	__ZNSt3__111char_traitsIcE3eofEv
	movl	%eax, %edi
	movq	-16(%rbp), %rax                 ## 8-byte Reload
	movl	144(%rax), %esi
	callq	__ZNSt3__111char_traitsIcE11eq_int_typeEii
	testb	$1, %al
	jne	LBB76_1
	jmp	LBB76_2
LBB76_1:
	movq	-16(%rbp), %rdi                 ## 8-byte Reload
	movl	$32, %esi
	callq	__ZNKSt3__19basic_iosIcNS_11char_traitsIcEEE5widenEc
	movb	%al, %cl
	movq	-16(%rbp), %rax                 ## 8-byte Reload
	movsbl	%cl, %ecx
	movl	%ecx, 144(%rax)
LBB76_2:
	movq	-16(%rbp), %rax                 ## 8-byte Reload
	movl	144(%rax), %eax
                                        ## kill: def $al killed $al killed $eax
	movsbl	%al, %eax
	addq	$16, %rsp
	popq	%rbp
	retq
	.cfi_endproc
                                        ## -- End function
	.p2align	4, 0x90                         ## -- Begin function _ZNKSt3__119ostreambuf_iteratorIcNS_11char_traitsIcEEE6failedEv
__ZNKSt3__119ostreambuf_iteratorIcNS_11char_traitsIcEEE6failedEv: ## @_ZNKSt3__119ostreambuf_iteratorIcNS_11char_traitsIcEEE6failedEv
Lfunc_begin6:
	.cfi_startproc
	.cfi_personality 155, ___gxx_personality_v0
	.cfi_lsda 16, Lexception6
## %bb.0:
	pushq	%rbp
	.cfi_def_cfa_offset 16
	.cfi_offset %rbp, -16
	movq	%rsp, %rbp
	.cfi_def_cfa_register %rbp
	subq	$48, %rsp
	movq	%rdi, -8(%rbp)
	movq	-8(%rbp), %rax
	movq	(%rax), %rax
	movq	%rax, -48(%rbp)                 ## 8-byte Spill
Ltmp177:
	callq	__ZNSt3__1L15__get_nullptr_tEv
	movq	%rax, %rcx
Ltmp178:
	movq	%rcx, -40(%rbp)                 ## 8-byte Spill
	jmp	LBB77_1
LBB77_1:
	movq	-40(%rbp), %rax                 ## 8-byte Reload
	movq	%rax, -16(%rbp)
	leaq	-16(%rbp), %rdi
	callq	__ZNKSt3__19nullptr_tcvPT_INS_15basic_streambufIcNS_11char_traitsIcEEEEEEv
	movq	%rax, %rcx
	movq	-48(%rbp), %rax                 ## 8-byte Reload
	cmpq	%rcx, %rax
	sete	%al
	andb	$1, %al
	movzbl	%al, %eax
	addq	$48, %rsp
	popq	%rbp
	retq
LBB77_2:
Ltmp179:
	movq	%rax, %rcx
	movl	%edx, %eax
	movq	%rcx, -24(%rbp)
	movl	%eax, -28(%rbp)
## %bb.3:
	movq	-24(%rbp), %rdi
	callq	___cxa_call_unexpected
Lfunc_end6:
	.cfi_endproc
	.section	__TEXT,__gcc_except_tab
	.p2align	2
GCC_except_table77:
Lexception6:
	.byte	255                             ## @LPStart Encoding = omit
	.byte	155                             ## @TType Encoding = indirect pcrel sdata4
	.uleb128 Lttbase6-Lttbaseref6
Lttbaseref6:
	.byte	1                               ## Call site Encoding = uleb128
	.uleb128 Lcst_end6-Lcst_begin6
Lcst_begin6:
	.uleb128 Ltmp177-Lfunc_begin6           ## >> Call Site 1 <<
	.uleb128 Ltmp178-Ltmp177                ##   Call between Ltmp177 and Ltmp178
	.uleb128 Ltmp179-Lfunc_begin6           ##     jumps to Ltmp179
	.byte	1                               ##   On action: 1
	.uleb128 Ltmp178-Lfunc_begin6           ## >> Call Site 2 <<
	.uleb128 Lfunc_end6-Ltmp178             ##   Call between Ltmp178 and Lfunc_end6
	.byte	0                               ##     has no landing pad
	.byte	0                               ##   On action: cleanup
Lcst_end6:
	.byte	127                             ## >> Action Record 1 <<
                                        ##   Filter TypeInfo -1
	.byte	0                               ##   No further actions
	.p2align	2
Lttbase6:
                                        ## >> Filter TypeInfos <<
	.byte	0
	.p2align	2
                                        ## -- End function
	.section	__TEXT,__text,regular,pure_instructions
	.p2align	4, 0x90                         ## -- Begin function _ZNSt3__1L15__get_nullptr_tEv
__ZNSt3__1L15__get_nullptr_tEv:         ## @_ZNSt3__1L15__get_nullptr_tEv
	.cfi_startproc
## %bb.0:
	pushq	%rbp
	.cfi_def_cfa_offset 16
	.cfi_offset %rbp, -16
	movq	%rsp, %rbp
	.cfi_def_cfa_register %rbp
	subq	$16, %rsp
	leaq	-8(%rbp), %rdi
	movq	$-1, %rsi
	callq	__ZNSt3__19nullptr_tC1EMNS0_5__natEi
	movq	-8(%rbp), %rax
	addq	$16, %rsp
	popq	%rbp
	retq
	.cfi_endproc
                                        ## -- End function
	.p2align	4, 0x90                         ## -- Begin function _ZNKSt3__19nullptr_tcvPT_INS_15basic_streambufIcNS_11char_traitsIcEEEEEEv
__ZNKSt3__19nullptr_tcvPT_INS_15basic_streambufIcNS_11char_traitsIcEEEEEEv: ## @_ZNKSt3__19nullptr_tcvPT_INS_15basic_streambufIcNS_11char_traitsIcEEEEEEv
	.cfi_startproc
## %bb.0:
	pushq	%rbp
	.cfi_def_cfa_offset 16
	.cfi_offset %rbp, -16
	movq	%rsp, %rbp
	.cfi_def_cfa_register %rbp
	xorl	%eax, %eax
                                        ## kill: def $rax killed $eax
	movq	%rdi, -8(%rbp)
	popq	%rbp
	retq
	.cfi_endproc
                                        ## -- End function
	.p2align	4, 0x90                         ## -- Begin function _ZNKSt3__18ios_base5widthEv
__ZNKSt3__18ios_base5widthEv:           ## @_ZNKSt3__18ios_base5widthEv
	.cfi_startproc
## %bb.0:
	pushq	%rbp
	.cfi_def_cfa_offset 16
	.cfi_offset %rbp, -16
	movq	%rsp, %rbp
	.cfi_def_cfa_register %rbp
	movq	%rdi, -8(%rbp)
	movq	-8(%rbp), %rax
	movq	24(%rax), %rax
	popq	%rbp
	retq
	.cfi_endproc
                                        ## -- End function
	.p2align	4, 0x90                         ## -- Begin function _ZNSt3__115basic_streambufIcNS_11char_traitsIcEEE5sputnEPKcl
__ZNSt3__115basic_streambufIcNS_11char_traitsIcEEE5sputnEPKcl: ## @_ZNSt3__115basic_streambufIcNS_11char_traitsIcEEE5sputnEPKcl
	.cfi_startproc
## %bb.0:
	pushq	%rbp
	.cfi_def_cfa_offset 16
	.cfi_offset %rbp, -16
	movq	%rsp, %rbp
	.cfi_def_cfa_register %rbp
	subq	$32, %rsp
	movq	%rdi, -8(%rbp)
	movq	%rsi, -16(%rbp)
	movq	%rdx, -24(%rbp)
	movq	-8(%rbp), %rdi
	movq	-16(%rbp), %rsi
	movq	-24(%rbp), %rdx
	movq	(%rdi), %rax
	callq	*96(%rax)
	addq	$32, %rsp
	popq	%rbp
	retq
	.cfi_endproc
                                        ## -- End function
	.p2align	4, 0x90                         ## -- Begin function _ZNSt3__112basic_stringIcNS_11char_traitsIcEENS_9allocatorIcEEEC1Emc
__ZNSt3__112basic_stringIcNS_11char_traitsIcEENS_9allocatorIcEEEC1Emc: ## @_ZNSt3__112basic_stringIcNS_11char_traitsIcEENS_9allocatorIcEEEC1Emc
	.cfi_startproc
## %bb.0:
	pushq	%rbp
	.cfi_def_cfa_offset 16
	.cfi_offset %rbp, -16
	movq	%rsp, %rbp
	.cfi_def_cfa_register %rbp
	subq	$32, %rsp
	movb	%dl, %al
	movq	%rdi, -8(%rbp)
	movq	%rsi, -16(%rbp)
	movb	%al, -17(%rbp)
	movq	-8(%rbp), %rdi
	movq	-16(%rbp), %rsi
	movsbl	-17(%rbp), %edx
	callq	__ZNSt3__112basic_stringIcNS_11char_traitsIcEENS_9allocatorIcEEEC2Emc
	addq	$32, %rsp
	popq	%rbp
	retq
	.cfi_endproc
                                        ## -- End function
	.p2align	4, 0x90                         ## -- Begin function _ZNKSt3__112basic_stringIcNS_11char_traitsIcEENS_9allocatorIcEEE4dataEv
__ZNKSt3__112basic_stringIcNS_11char_traitsIcEENS_9allocatorIcEEE4dataEv: ## @_ZNKSt3__112basic_stringIcNS_11char_traitsIcEENS_9allocatorIcEEE4dataEv
	.cfi_startproc
## %bb.0:
	pushq	%rbp
	.cfi_def_cfa_offset 16
	.cfi_offset %rbp, -16
	movq	%rsp, %rbp
	.cfi_def_cfa_register %rbp
	subq	$16, %rsp
	movq	%rdi, -8(%rbp)
	movq	-8(%rbp), %rdi
	callq	__ZNKSt3__112basic_stringIcNS_11char_traitsIcEENS_9allocatorIcEEE13__get_pointerEv
	movq	%rax, %rdi
	callq	__ZNSt3__1L12__to_addressIKcEEPT_S3_
	addq	$16, %rsp
	popq	%rbp
	retq
	.cfi_endproc
                                        ## -- End function
	.p2align	4, 0x90                         ## -- Begin function _ZNSt3__18ios_base5widthEl
__ZNSt3__18ios_base5widthEl:            ## @_ZNSt3__18ios_base5widthEl
	.cfi_startproc
## %bb.0:
	pushq	%rbp
	.cfi_def_cfa_offset 16
	.cfi_offset %rbp, -16
	movq	%rsp, %rbp
	.cfi_def_cfa_register %rbp
	movq	%rdi, -8(%rbp)
	movq	%rsi, -16(%rbp)
	movq	-8(%rbp), %rax
	movq	24(%rax), %rcx
	movq	%rcx, -24(%rbp)
	movq	-16(%rbp), %rcx
	movq	%rcx, 24(%rax)
	movq	-24(%rbp), %rax
	popq	%rbp
	retq
	.cfi_endproc
                                        ## -- End function
	.p2align	4, 0x90                         ## -- Begin function _ZNSt3__19nullptr_tC1EMNS0_5__natEi
__ZNSt3__19nullptr_tC1EMNS0_5__natEi:   ## @_ZNSt3__19nullptr_tC1EMNS0_5__natEi
	.cfi_startproc
## %bb.0:
	pushq	%rbp
	.cfi_def_cfa_offset 16
	.cfi_offset %rbp, -16
	movq	%rsp, %rbp
	.cfi_def_cfa_register %rbp
	subq	$16, %rsp
	movq	%rdi, -8(%rbp)
	movq	%rsi, -16(%rbp)
	movq	-8(%rbp), %rdi
	movq	-16(%rbp), %rsi
	callq	__ZNSt3__19nullptr_tC2EMNS0_5__natEi
	addq	$16, %rsp
	popq	%rbp
	retq
	.cfi_endproc
                                        ## -- End function
	.p2align	4, 0x90                         ## -- Begin function _ZNSt3__19nullptr_tC2EMNS0_5__natEi
__ZNSt3__19nullptr_tC2EMNS0_5__natEi:   ## @_ZNSt3__19nullptr_tC2EMNS0_5__natEi
	.cfi_startproc
## %bb.0:
	pushq	%rbp
	.cfi_def_cfa_offset 16
	.cfi_offset %rbp, -16
	movq	%rsp, %rbp
	.cfi_def_cfa_register %rbp
	movq	%rdi, -8(%rbp)
	movq	%rsi, -16(%rbp)
	movq	-8(%rbp), %rax
	movq	$0, (%rax)
	popq	%rbp
	retq
	.cfi_endproc
                                        ## -- End function
	.p2align	4, 0x90                         ## -- Begin function _ZNSt3__112basic_stringIcNS_11char_traitsIcEENS_9allocatorIcEEEC2Emc
__ZNSt3__112basic_stringIcNS_11char_traitsIcEENS_9allocatorIcEEEC2Emc: ## @_ZNSt3__112basic_stringIcNS_11char_traitsIcEENS_9allocatorIcEEEC2Emc
	.cfi_startproc
## %bb.0:
	pushq	%rbp
	.cfi_def_cfa_offset 16
	.cfi_offset %rbp, -16
	movq	%rsp, %rbp
	.cfi_def_cfa_register %rbp
	subq	$48, %rsp
	movb	%dl, %al
	movq	%rdi, -8(%rbp)
	movq	%rsi, -16(%rbp)
	movb	%al, -17(%rbp)
	movq	-8(%rbp), %rdi
	movq	%rdi, -40(%rbp)                 ## 8-byte Spill
	leaq	-24(%rbp), %rsi
	leaq	-32(%rbp), %rdx
	callq	__ZNSt3__117__compressed_pairINS_12basic_stringIcNS_11char_traitsIcEENS_9allocatorIcEEE5__repES5_EC1INS_18__default_init_tagESA_EEOT_OT0_
	movq	-40(%rbp), %rdi                 ## 8-byte Reload
	movq	-16(%rbp), %rsi
	movsbl	-17(%rbp), %edx
	callq	__ZNSt3__112basic_stringIcNS_11char_traitsIcEENS_9allocatorIcEEE6__initEmc
	addq	$48, %rsp
	popq	%rbp
	retq
	.cfi_endproc
                                        ## -- End function
	.p2align	4, 0x90                         ## -- Begin function _ZNSt3__1L12__to_addressIKcEEPT_S3_
__ZNSt3__1L12__to_addressIKcEEPT_S3_:   ## @_ZNSt3__1L12__to_addressIKcEEPT_S3_
	.cfi_startproc
## %bb.0:
	pushq	%rbp
	.cfi_def_cfa_offset 16
	.cfi_offset %rbp, -16
	movq	%rsp, %rbp
	.cfi_def_cfa_register %rbp
	movq	%rdi, -8(%rbp)
	movq	-8(%rbp), %rax
	popq	%rbp
	retq
	.cfi_endproc
                                        ## -- End function
	.p2align	4, 0x90                         ## -- Begin function _ZNKSt3__112basic_stringIcNS_11char_traitsIcEENS_9allocatorIcEEE13__get_pointerEv
__ZNKSt3__112basic_stringIcNS_11char_traitsIcEENS_9allocatorIcEEE13__get_pointerEv: ## @_ZNKSt3__112basic_stringIcNS_11char_traitsIcEENS_9allocatorIcEEE13__get_pointerEv
	.cfi_startproc
## %bb.0:
	pushq	%rbp
	.cfi_def_cfa_offset 16
	.cfi_offset %rbp, -16
	movq	%rsp, %rbp
	.cfi_def_cfa_register %rbp
	subq	$32, %rsp
	movq	%rdi, -8(%rbp)
	movq	-8(%rbp), %rdi
	movq	%rdi, -16(%rbp)                 ## 8-byte Spill
	callq	__ZNKSt3__112basic_stringIcNS_11char_traitsIcEENS_9allocatorIcEEE9__is_longEv
	testb	$1, %al
	jne	LBB89_1
	jmp	LBB89_2
LBB89_1:
	movq	-16(%rbp), %rdi                 ## 8-byte Reload
	callq	__ZNKSt3__112basic_stringIcNS_11char_traitsIcEENS_9allocatorIcEEE18__get_long_pointerEv
	movq	%rax, -24(%rbp)                 ## 8-byte Spill
	jmp	LBB89_3
LBB89_2:
	movq	-16(%rbp), %rdi                 ## 8-byte Reload
	callq	__ZNKSt3__112basic_stringIcNS_11char_traitsIcEENS_9allocatorIcEEE19__get_short_pointerEv
	movq	%rax, -24(%rbp)                 ## 8-byte Spill
LBB89_3:
	movq	-24(%rbp), %rax                 ## 8-byte Reload
	addq	$32, %rsp
	popq	%rbp
	retq
	.cfi_endproc
                                        ## -- End function
	.p2align	4, 0x90                         ## -- Begin function _ZNKSt3__112basic_stringIcNS_11char_traitsIcEENS_9allocatorIcEEE18__get_long_pointerEv
__ZNKSt3__112basic_stringIcNS_11char_traitsIcEENS_9allocatorIcEEE18__get_long_pointerEv: ## @_ZNKSt3__112basic_stringIcNS_11char_traitsIcEENS_9allocatorIcEEE18__get_long_pointerEv
	.cfi_startproc
## %bb.0:
	pushq	%rbp
	.cfi_def_cfa_offset 16
	.cfi_offset %rbp, -16
	movq	%rsp, %rbp
	.cfi_def_cfa_register %rbp
	subq	$16, %rsp
	movq	%rdi, -8(%rbp)
	movq	-8(%rbp), %rdi
	callq	__ZNKSt3__117__compressed_pairINS_12basic_stringIcNS_11char_traitsIcEENS_9allocatorIcEEE5__repES5_E5firstEv
	movq	16(%rax), %rax
	addq	$16, %rsp
	popq	%rbp
	retq
	.cfi_endproc
                                        ## -- End function
	.p2align	4, 0x90                         ## -- Begin function _ZNKSt3__112basic_stringIcNS_11char_traitsIcEENS_9allocatorIcEEE19__get_short_pointerEv
__ZNKSt3__112basic_stringIcNS_11char_traitsIcEENS_9allocatorIcEEE19__get_short_pointerEv: ## @_ZNKSt3__112basic_stringIcNS_11char_traitsIcEENS_9allocatorIcEEE19__get_short_pointerEv
	.cfi_startproc
## %bb.0:
	pushq	%rbp
	.cfi_def_cfa_offset 16
	.cfi_offset %rbp, -16
	movq	%rsp, %rbp
	.cfi_def_cfa_register %rbp
	subq	$16, %rsp
	movq	%rdi, -8(%rbp)
	movq	-8(%rbp), %rdi
	callq	__ZNKSt3__117__compressed_pairINS_12basic_stringIcNS_11char_traitsIcEENS_9allocatorIcEEE5__repES5_E5firstEv
	movq	%rax, %rdi
	addq	$1, %rdi
	callq	__ZNSt3__114pointer_traitsIPKcE10pointer_toERS1_
	addq	$16, %rsp
	popq	%rbp
	retq
	.cfi_endproc
                                        ## -- End function
	.p2align	4, 0x90                         ## -- Begin function _ZNSt3__114pointer_traitsIPKcE10pointer_toERS1_
__ZNSt3__114pointer_traitsIPKcE10pointer_toERS1_: ## @_ZNSt3__114pointer_traitsIPKcE10pointer_toERS1_
	.cfi_startproc
## %bb.0:
	pushq	%rbp
	.cfi_def_cfa_offset 16
	.cfi_offset %rbp, -16
	movq	%rsp, %rbp
	.cfi_def_cfa_register %rbp
	subq	$16, %rsp
	movq	%rdi, -8(%rbp)
	movq	-8(%rbp), %rdi
	callq	__ZNSt3__1L9addressofIKcEEPT_RS2_
	addq	$16, %rsp
	popq	%rbp
	retq
	.cfi_endproc
                                        ## -- End function
	.p2align	4, 0x90                         ## -- Begin function _ZNSt3__1L9addressofIKcEEPT_RS2_
__ZNSt3__1L9addressofIKcEEPT_RS2_:      ## @_ZNSt3__1L9addressofIKcEEPT_RS2_
	.cfi_startproc
## %bb.0:
	pushq	%rbp
	.cfi_def_cfa_offset 16
	.cfi_offset %rbp, -16
	movq	%rsp, %rbp
	.cfi_def_cfa_register %rbp
	movq	%rdi, -8(%rbp)
	movq	-8(%rbp), %rax
	popq	%rbp
	retq
	.cfi_endproc
                                        ## -- End function
	.p2align	4, 0x90                         ## -- Begin function _ZNSt3__119ostreambuf_iteratorIcNS_11char_traitsIcEEEC2ERNS_13basic_ostreamIcS2_EE
__ZNSt3__119ostreambuf_iteratorIcNS_11char_traitsIcEEEC2ERNS_13basic_ostreamIcS2_EE: ## @_ZNSt3__119ostreambuf_iteratorIcNS_11char_traitsIcEEEC2ERNS_13basic_ostreamIcS2_EE
Lfunc_begin7:
	.cfi_startproc
	.cfi_personality 155, ___gxx_personality_v0
	.cfi_lsda 16, Lexception7
## %bb.0:
	pushq	%rbp
	.cfi_def_cfa_offset 16
	.cfi_offset %rbp, -16
	movq	%rsp, %rbp
	.cfi_def_cfa_register %rbp
	subq	$48, %rsp
	movq	%rdi, -8(%rbp)
	movq	%rsi, -16(%rbp)
	movq	-8(%rbp), %rax
	movq	%rax, -48(%rbp)                 ## 8-byte Spill
	movq	-16(%rbp), %rdi
	movq	(%rdi), %rax
	movq	-24(%rax), %rax
	addq	%rax, %rdi
Ltmp180:
	callq	__ZNKSt3__19basic_iosIcNS_11char_traitsIcEEE5rdbufEv
	movq	%rax, %rcx
Ltmp181:
	movq	%rcx, -40(%rbp)                 ## 8-byte Spill
	jmp	LBB94_1
LBB94_1:
	movq	-48(%rbp), %rax                 ## 8-byte Reload
	movq	-40(%rbp), %rcx                 ## 8-byte Reload
	movq	%rcx, (%rax)
	addq	$48, %rsp
	popq	%rbp
	retq
LBB94_2:
Ltmp182:
	movq	%rax, %rcx
	movl	%edx, %eax
	movq	%rcx, -24(%rbp)
	movl	%eax, -28(%rbp)
## %bb.3:
	movq	-24(%rbp), %rdi
	callq	___cxa_call_unexpected
Lfunc_end7:
	.cfi_endproc
	.section	__TEXT,__gcc_except_tab
	.p2align	2
GCC_except_table94:
Lexception7:
	.byte	255                             ## @LPStart Encoding = omit
	.byte	155                             ## @TType Encoding = indirect pcrel sdata4
	.uleb128 Lttbase7-Lttbaseref7
Lttbaseref7:
	.byte	1                               ## Call site Encoding = uleb128
	.uleb128 Lcst_end7-Lcst_begin7
Lcst_begin7:
	.uleb128 Ltmp180-Lfunc_begin7           ## >> Call Site 1 <<
	.uleb128 Ltmp181-Ltmp180                ##   Call between Ltmp180 and Ltmp181
	.uleb128 Ltmp182-Lfunc_begin7           ##     jumps to Ltmp182
	.byte	1                               ##   On action: 1
	.uleb128 Ltmp181-Lfunc_begin7           ## >> Call Site 2 <<
	.uleb128 Lfunc_end7-Ltmp181             ##   Call between Ltmp181 and Lfunc_end7
	.byte	0                               ##     has no landing pad
	.byte	0                               ##   On action: cleanup
Lcst_end7:
	.byte	127                             ## >> Action Record 1 <<
                                        ##   Filter TypeInfo -1
	.byte	0                               ##   No further actions
	.p2align	2
Lttbase7:
                                        ## >> Filter TypeInfos <<
	.byte	0
	.p2align	2
                                        ## -- End function
	.globl	__ZN7Student3sumE               ## @_ZN7Student3sumE
.zerofill __DATA,__common,__ZN7Student3sumE,4,2
	.section	__TEXT,__cstring,cstring_literals
L_.str:                                 ## @.str
	.asciz	"Enter the total number of student :"

L_.str.1:                               ## @.str.1
	.asciz	"Enter the details of "

L_.str.2:                               ## @.str.2
	.asciz	" students :"

L_.str.3:                               ## @.str.3
	.asciz	"Enter the name of Student "

L_.str.4:                               ## @.str.4
	.asciz	" :"

L_.str.5:                               ## @.str.5
	.asciz	"Enter the age of Student "

L_.str.6:                               ## @.str.6
	.asciz	"Enter the marks of Student "

L_.str.7:                               ## @.str.7
	.asciz	"The deatails of "

L_.str.8:                               ## @.str.8
	.asciz	" Students are :"

L_.str.9:                               ## @.str.9
	.asciz	"Name of Student "

L_.str.10:                              ## @.str.10
	.asciz	" is : "

L_.str.11:                              ## @.str.11
	.asciz	"Age of Student "

L_.str.12:                              ## @.str.12
	.asciz	"Marks of Student "

L_.str.13:                              ## @.str.13
	.asciz	"Total marks of "

L_.str.14:                              ## @.str.14
	.asciz	" Students are : "

.subsections_via_symbols
