	.section	__TEXT,__text,regular,pure_instructions
	.build_version macos, 11, 0	sdk_version 12, 1
	.globl	_main                           ## -- Begin function main
	.p2align	4, 0x90
_main:                                  ## @main
Lfunc_begin0:
	.cfi_startproc
	.cfi_personality 155, ___gxx_personality_v0
	.cfi_lsda 16, Lexception0
## %bb.0:
	pushq	%rbp
	.cfi_def_cfa_offset 16
	.cfi_offset %rbp, -16
	movq	%rsp, %rbp
	.cfi_def_cfa_register %rbp
	subq	$480, %rsp                      ## imm = 0x1E0
	movl	$0, -4(%rbp)
	movl	$15, -8(%rbp)
	leaq	-32(%rbp), %rdi
	callq	__ZNSt3__112basic_stringIcNS_11char_traitsIcEENS_9allocatorIcEEEC1Ev
Ltmp0:
	leaq	-56(%rbp), %rdi
	callq	__ZNSt3__112basic_stringIcNS_11char_traitsIcEENS_9allocatorIcEEEC1Ev
Ltmp1:
	jmp	LBB0_1
LBB0_1:
Ltmp2:
	leaq	-96(%rbp), %rdi
	callq	__ZNSt3__112basic_stringIcNS_11char_traitsIcEENS_9allocatorIcEEEC1Ev
Ltmp3:
	jmp	LBB0_2
LBB0_2:
Ltmp4:
	movq	__ZNSt3__14coutE@GOTPCREL(%rip), %rdi
	leaq	L_.str(%rip), %rsi
	callq	__ZNSt3__1lsINS_11char_traitsIcEEEERNS_13basic_ostreamIcT_EES6_PKc
                                        ## kill: def $rcx killed $rax
Ltmp5:
	jmp	LBB0_3
LBB0_3:
Ltmp6:
	movq	__ZNSt3__13cinE@GOTPCREL(%rip), %rdi
	leaq	-56(%rbp), %rsi
	callq	__ZNSt3__1L7getlineIcNS_11char_traitsIcEENS_9allocatorIcEEEERNS_13basic_istreamIT_T0_EES9_RNS_12basic_stringIS6_S7_T1_EE
                                        ## kill: def $rcx killed $rax
Ltmp7:
	jmp	LBB0_4
LBB0_4:
Ltmp8:
	leaq	-376(%rbp), %rdi
	leaq	-56(%rbp), %rsi
	movl	$24, %edx
	callq	__ZNSt3__118basic_stringstreamIcNS_11char_traitsIcEENS_9allocatorIcEEEC1ERKNS_12basic_stringIcS2_S4_EEj
Ltmp9:
	jmp	LBB0_5
LBB0_5:
Ltmp10:
	movq	__ZNSt3__16skipwsERNS_8ios_baseE@GOTPCREL(%rip), %rsi
	leaq	-376(%rbp), %rdi
	callq	__ZNSt3__113basic_istreamIcNS_11char_traitsIcEEErsEPFRNS_8ios_baseES5_E
	movq	%rax, %rcx
Ltmp11:
	movq	%rcx, -384(%rbp)                ## 8-byte Spill
	jmp	LBB0_6
LBB0_6:
Ltmp12:
	movq	-384(%rbp), %rdi                ## 8-byte Reload
	leaq	-32(%rbp), %rsi
	callq	__ZNSt3__1rsIcNS_11char_traitsIcEENS_9allocatorIcEEEERNS_13basic_istreamIT_T0_EES9_RNS_12basic_stringIS6_S7_T1_EE
                                        ## kill: def $rcx killed $rax
Ltmp13:
	jmp	LBB0_7
LBB0_7:
Ltmp14:
	movq	__ZNSt3__18noskipwsERNS_8ios_baseE@GOTPCREL(%rip), %rsi
	leaq	-376(%rbp), %rdi
	callq	__ZNSt3__113basic_istreamIcNS_11char_traitsIcEEErsEPFRNS_8ios_baseES5_E
	movq	%rax, %rcx
Ltmp15:
	movq	%rcx, -392(%rbp)                ## 8-byte Spill
	jmp	LBB0_8
LBB0_8:
Ltmp16:
	movq	-392(%rbp), %rdi                ## 8-byte Reload
	leaq	-96(%rbp), %rsi
	callq	__ZNSt3__1rsIcNS_11char_traitsIcEENS_9allocatorIcEEEERNS_13basic_istreamIT_T0_EES9_RNS_12basic_stringIS6_S7_T1_EE
                                        ## kill: def $rcx killed $rax
Ltmp17:
	jmp	LBB0_9
LBB0_9:
Ltmp18:
	movq	__ZNSt3__14coutE@GOTPCREL(%rip), %rdi
	leaq	L_.str.1(%rip), %rsi
	callq	__ZNSt3__1lsINS_11char_traitsIcEEEERNS_13basic_ostreamIcT_EES6_PKc
	movq	%rax, %rcx
Ltmp19:
	movq	%rcx, -400(%rbp)                ## 8-byte Spill
	jmp	LBB0_10
LBB0_10:
Ltmp20:
	movq	-400(%rbp), %rdi                ## 8-byte Reload
	movq	__ZNSt3__13hexERNS_8ios_baseE@GOTPCREL(%rip), %rsi
	callq	__ZNSt3__113basic_ostreamIcNS_11char_traitsIcEEElsEPFRNS_8ios_baseES5_E
	movq	%rax, %rcx
Ltmp21:
	movq	%rcx, -408(%rbp)                ## 8-byte Spill
	jmp	LBB0_11
LBB0_11:
	movq	-408(%rbp), %rdi                ## 8-byte Reload
	movl	-8(%rbp), %esi
Ltmp22:
	callq	__ZNSt3__113basic_ostreamIcNS_11char_traitsIcEEElsEi
	movq	%rax, %rcx
Ltmp23:
	movq	%rcx, -416(%rbp)                ## 8-byte Spill
	jmp	LBB0_12
LBB0_12:
Ltmp24:
	movq	-416(%rbp), %rdi                ## 8-byte Reload
	movq	__ZNSt3__14endlIcNS_11char_traitsIcEEEERNS_13basic_ostreamIT_T0_EES7_@GOTPCREL(%rip), %rsi
	callq	__ZNSt3__113basic_ostreamIcNS_11char_traitsIcEEElsEPFRS3_S4_E
                                        ## kill: def $rcx killed $rax
Ltmp25:
	jmp	LBB0_13
LBB0_13:
Ltmp26:
	movq	__ZNSt3__14coutE@GOTPCREL(%rip), %rdi
	leaq	L_.str.2(%rip), %rsi
	callq	__ZNSt3__1lsINS_11char_traitsIcEEEERNS_13basic_ostreamIcT_EES6_PKc
	movq	%rax, %rcx
Ltmp27:
	movq	%rcx, -424(%rbp)                ## 8-byte Spill
	jmp	LBB0_14
LBB0_14:
Ltmp28:
	movq	-424(%rbp), %rdi                ## 8-byte Reload
	movq	__ZNSt3__13decERNS_8ios_baseE@GOTPCREL(%rip), %rsi
	callq	__ZNSt3__113basic_ostreamIcNS_11char_traitsIcEEElsEPFRNS_8ios_baseES5_E
	movq	%rax, %rcx
Ltmp29:
	movq	%rcx, -432(%rbp)                ## 8-byte Spill
	jmp	LBB0_15
LBB0_15:
	movq	-432(%rbp), %rdi                ## 8-byte Reload
	movl	-8(%rbp), %esi
Ltmp30:
	callq	__ZNSt3__113basic_ostreamIcNS_11char_traitsIcEEElsEi
	movq	%rax, %rcx
Ltmp31:
	movq	%rcx, -440(%rbp)                ## 8-byte Spill
	jmp	LBB0_16
LBB0_16:
Ltmp32:
	movq	-440(%rbp), %rdi                ## 8-byte Reload
	movq	__ZNSt3__14endlIcNS_11char_traitsIcEEEERNS_13basic_ostreamIT_T0_EES7_@GOTPCREL(%rip), %rsi
	callq	__ZNSt3__113basic_ostreamIcNS_11char_traitsIcEEElsEPFRS3_S4_E
                                        ## kill: def $rcx killed $rax
Ltmp33:
	jmp	LBB0_17
LBB0_17:
Ltmp34:
	movq	__ZNSt3__14coutE@GOTPCREL(%rip), %rdi
	leaq	L_.str.3(%rip), %rsi
	callq	__ZNSt3__1lsINS_11char_traitsIcEEEERNS_13basic_ostreamIcT_EES6_PKc
	movq	%rax, %rcx
Ltmp35:
	movq	%rcx, -448(%rbp)                ## 8-byte Spill
	jmp	LBB0_18
LBB0_18:
Ltmp36:
	movq	-448(%rbp), %rdi                ## 8-byte Reload
	leaq	-32(%rbp), %rsi
	callq	__ZNSt3__1lsIcNS_11char_traitsIcEENS_9allocatorIcEEEERNS_13basic_ostreamIT_T0_EES9_RKNS_12basic_stringIS6_S7_T1_EE
	movq	%rax, %rcx
Ltmp37:
	movq	%rcx, -456(%rbp)                ## 8-byte Spill
	jmp	LBB0_19
LBB0_19:
Ltmp38:
	movq	-456(%rbp), %rdi                ## 8-byte Reload
	movq	__ZNSt3__14endlIcNS_11char_traitsIcEEEERNS_13basic_ostreamIT_T0_EES7_@GOTPCREL(%rip), %rsi
	callq	__ZNSt3__113basic_ostreamIcNS_11char_traitsIcEEElsEPFRS3_S4_E
                                        ## kill: def $rcx killed $rax
Ltmp39:
	jmp	LBB0_20
LBB0_20:
Ltmp40:
	movq	__ZNSt3__14coutE@GOTPCREL(%rip), %rdi
	leaq	L_.str.4(%rip), %rsi
	callq	__ZNSt3__1lsINS_11char_traitsIcEEEERNS_13basic_ostreamIcT_EES6_PKc
	movq	%rax, %rcx
Ltmp41:
	movq	%rcx, -464(%rbp)                ## 8-byte Spill
	jmp	LBB0_21
LBB0_21:
Ltmp42:
	movq	-464(%rbp), %rdi                ## 8-byte Reload
	leaq	-96(%rbp), %rsi
	callq	__ZNSt3__1lsIcNS_11char_traitsIcEENS_9allocatorIcEEEERNS_13basic_ostreamIT_T0_EES9_RKNS_12basic_stringIS6_S7_T1_EE
	movq	%rax, %rcx
Ltmp43:
	movq	%rcx, -472(%rbp)                ## 8-byte Spill
	jmp	LBB0_22
LBB0_22:
Ltmp44:
	movq	-472(%rbp), %rdi                ## 8-byte Reload
	movq	__ZNSt3__14endlIcNS_11char_traitsIcEEEERNS_13basic_ostreamIT_T0_EES7_@GOTPCREL(%rip), %rsi
	callq	__ZNSt3__113basic_ostreamIcNS_11char_traitsIcEEElsEPFRS3_S4_E
                                        ## kill: def $rcx killed $rax
Ltmp45:
	jmp	LBB0_23
LBB0_23:
	movl	$0, -4(%rbp)
Ltmp49:
	leaq	-376(%rbp), %rdi
	callq	__ZNSt3__118basic_stringstreamIcNS_11char_traitsIcEENS_9allocatorIcEEED1Ev
Ltmp50:
	jmp	LBB0_28
LBB0_24:
Ltmp61:
	movq	%rax, %rcx
	movl	%edx, %eax
	movq	%rcx, -64(%rbp)
	movl	%eax, -68(%rbp)
	jmp	LBB0_36
LBB0_25:
Ltmp56:
	movq	%rax, %rcx
	movl	%edx, %eax
	movq	%rcx, -64(%rbp)
	movl	%eax, -68(%rbp)
	jmp	LBB0_34
LBB0_26:
Ltmp51:
	movq	%rax, %rcx
	movl	%edx, %eax
	movq	%rcx, -64(%rbp)
	movl	%eax, -68(%rbp)
	jmp	LBB0_31
LBB0_27:
Ltmp46:
	movq	%rdx, %rcx
	movq	%rax, %rsi
                                        ## kill: def $ecx killed $ecx killed $rcx
	movq	%rsi, -64(%rbp)
	movl	%ecx, -68(%rbp)
Ltmp47:
	leaq	-376(%rbp), %rdi
	callq	__ZNSt3__118basic_stringstreamIcNS_11char_traitsIcEENS_9allocatorIcEEED1Ev
Ltmp48:
	jmp	LBB0_29
LBB0_28:
Ltmp54:
	leaq	-96(%rbp), %rdi
	callq	__ZNSt3__112basic_stringIcNS_11char_traitsIcEENS_9allocatorIcEEED1Ev
Ltmp55:
	jmp	LBB0_30
LBB0_29:
	jmp	LBB0_31
LBB0_30:
Ltmp59:
	leaq	-56(%rbp), %rdi
	callq	__ZNSt3__112basic_stringIcNS_11char_traitsIcEENS_9allocatorIcEEED1Ev
Ltmp60:
	jmp	LBB0_33
LBB0_31:
Ltmp52:
	leaq	-96(%rbp), %rdi
	callq	__ZNSt3__112basic_stringIcNS_11char_traitsIcEENS_9allocatorIcEEED1Ev
Ltmp53:
	jmp	LBB0_32
LBB0_32:
	jmp	LBB0_34
LBB0_33:
	leaq	-32(%rbp), %rdi
	callq	__ZNSt3__112basic_stringIcNS_11char_traitsIcEENS_9allocatorIcEEED1Ev
	movl	-4(%rbp), %eax
	addq	$480, %rsp                      ## imm = 0x1E0
	popq	%rbp
	retq
LBB0_34:
Ltmp57:
	leaq	-56(%rbp), %rdi
	callq	__ZNSt3__112basic_stringIcNS_11char_traitsIcEENS_9allocatorIcEEED1Ev
Ltmp58:
	jmp	LBB0_35
LBB0_35:
	jmp	LBB0_36
LBB0_36:
Ltmp62:
	leaq	-32(%rbp), %rdi
	callq	__ZNSt3__112basic_stringIcNS_11char_traitsIcEENS_9allocatorIcEEED1Ev
Ltmp63:
	jmp	LBB0_37
LBB0_37:
	jmp	LBB0_38
LBB0_38:
	movq	-64(%rbp), %rdi
	callq	__Unwind_Resume
LBB0_39:
Ltmp64:
	movq	%rax, %rdi
	callq	___clang_call_terminate
Lfunc_end0:
	.cfi_endproc
	.section	__TEXT,__gcc_except_tab
	.p2align	2
GCC_except_table0:
Lexception0:
	.byte	255                             ## @LPStart Encoding = omit
	.byte	155                             ## @TType Encoding = indirect pcrel sdata4
	.uleb128 Lttbase0-Lttbaseref0
Lttbaseref0:
	.byte	1                               ## Call site Encoding = uleb128
	.uleb128 Lcst_end0-Lcst_begin0
Lcst_begin0:
	.uleb128 Lfunc_begin0-Lfunc_begin0      ## >> Call Site 1 <<
	.uleb128 Ltmp0-Lfunc_begin0             ##   Call between Lfunc_begin0 and Ltmp0
	.byte	0                               ##     has no landing pad
	.byte	0                               ##   On action: cleanup
	.uleb128 Ltmp0-Lfunc_begin0             ## >> Call Site 2 <<
	.uleb128 Ltmp1-Ltmp0                    ##   Call between Ltmp0 and Ltmp1
	.uleb128 Ltmp61-Lfunc_begin0            ##     jumps to Ltmp61
	.byte	0                               ##   On action: cleanup
	.uleb128 Ltmp2-Lfunc_begin0             ## >> Call Site 3 <<
	.uleb128 Ltmp3-Ltmp2                    ##   Call between Ltmp2 and Ltmp3
	.uleb128 Ltmp56-Lfunc_begin0            ##     jumps to Ltmp56
	.byte	0                               ##   On action: cleanup
	.uleb128 Ltmp4-Lfunc_begin0             ## >> Call Site 4 <<
	.uleb128 Ltmp9-Ltmp4                    ##   Call between Ltmp4 and Ltmp9
	.uleb128 Ltmp51-Lfunc_begin0            ##     jumps to Ltmp51
	.byte	0                               ##   On action: cleanup
	.uleb128 Ltmp10-Lfunc_begin0            ## >> Call Site 5 <<
	.uleb128 Ltmp45-Ltmp10                  ##   Call between Ltmp10 and Ltmp45
	.uleb128 Ltmp46-Lfunc_begin0            ##     jumps to Ltmp46
	.byte	0                               ##   On action: cleanup
	.uleb128 Ltmp49-Lfunc_begin0            ## >> Call Site 6 <<
	.uleb128 Ltmp50-Ltmp49                  ##   Call between Ltmp49 and Ltmp50
	.uleb128 Ltmp51-Lfunc_begin0            ##     jumps to Ltmp51
	.byte	0                               ##   On action: cleanup
	.uleb128 Ltmp47-Lfunc_begin0            ## >> Call Site 7 <<
	.uleb128 Ltmp48-Ltmp47                  ##   Call between Ltmp47 and Ltmp48
	.uleb128 Ltmp64-Lfunc_begin0            ##     jumps to Ltmp64
	.byte	1                               ##   On action: 1
	.uleb128 Ltmp54-Lfunc_begin0            ## >> Call Site 8 <<
	.uleb128 Ltmp55-Ltmp54                  ##   Call between Ltmp54 and Ltmp55
	.uleb128 Ltmp56-Lfunc_begin0            ##     jumps to Ltmp56
	.byte	0                               ##   On action: cleanup
	.uleb128 Ltmp59-Lfunc_begin0            ## >> Call Site 9 <<
	.uleb128 Ltmp60-Ltmp59                  ##   Call between Ltmp59 and Ltmp60
	.uleb128 Ltmp61-Lfunc_begin0            ##     jumps to Ltmp61
	.byte	0                               ##   On action: cleanup
	.uleb128 Ltmp52-Lfunc_begin0            ## >> Call Site 10 <<
	.uleb128 Ltmp53-Ltmp52                  ##   Call between Ltmp52 and Ltmp53
	.uleb128 Ltmp64-Lfunc_begin0            ##     jumps to Ltmp64
	.byte	1                               ##   On action: 1
	.uleb128 Ltmp53-Lfunc_begin0            ## >> Call Site 11 <<
	.uleb128 Ltmp57-Ltmp53                  ##   Call between Ltmp53 and Ltmp57
	.byte	0                               ##     has no landing pad
	.byte	0                               ##   On action: cleanup
	.uleb128 Ltmp57-Lfunc_begin0            ## >> Call Site 12 <<
	.uleb128 Ltmp63-Ltmp57                  ##   Call between Ltmp57 and Ltmp63
	.uleb128 Ltmp64-Lfunc_begin0            ##     jumps to Ltmp64
	.byte	1                               ##   On action: 1
	.uleb128 Ltmp63-Lfunc_begin0            ## >> Call Site 13 <<
	.uleb128 Lfunc_end0-Ltmp63              ##   Call between Ltmp63 and Lfunc_end0
	.byte	0                               ##     has no landing pad
	.byte	0                               ##   On action: cleanup
Lcst_end0:
	.byte	1                               ## >> Action Record 1 <<
                                        ##   Catch TypeInfo 1
	.byte	0                               ##   No further actions
	.p2align	2
                                        ## >> Catch TypeInfos <<
	.long	0                               ## TypeInfo 1
Lttbase0:
	.p2align	2
                                        ## -- End function
	.section	__TEXT,__text,regular,pure_instructions
	.p2align	4, 0x90                         ## -- Begin function _ZNSt3__112basic_stringIcNS_11char_traitsIcEENS_9allocatorIcEEEC1Ev
__ZNSt3__112basic_stringIcNS_11char_traitsIcEENS_9allocatorIcEEEC1Ev: ## @_ZNSt3__112basic_stringIcNS_11char_traitsIcEENS_9allocatorIcEEEC1Ev
	.cfi_startproc
## %bb.0:
	pushq	%rbp
	.cfi_def_cfa_offset 16
	.cfi_offset %rbp, -16
	movq	%rsp, %rbp
	.cfi_def_cfa_register %rbp
	subq	$16, %rsp
	movq	%rdi, -8(%rbp)
	movq	-8(%rbp), %rdi
	callq	__ZNSt3__112basic_stringIcNS_11char_traitsIcEENS_9allocatorIcEEEC2Ev
	addq	$16, %rsp
	popq	%rbp
	retq
	.cfi_endproc
                                        ## -- End function
	.globl	__ZNSt3__1lsINS_11char_traitsIcEEEERNS_13basic_ostreamIcT_EES6_PKc ## -- Begin function _ZNSt3__1lsINS_11char_traitsIcEEEERNS_13basic_ostreamIcT_EES6_PKc
	.weak_definition	__ZNSt3__1lsINS_11char_traitsIcEEEERNS_13basic_ostreamIcT_EES6_PKc
	.p2align	4, 0x90
__ZNSt3__1lsINS_11char_traitsIcEEEERNS_13basic_ostreamIcT_EES6_PKc: ## @_ZNSt3__1lsINS_11char_traitsIcEEEERNS_13basic_ostreamIcT_EES6_PKc
	.cfi_startproc
## %bb.0:
	pushq	%rbp
	.cfi_def_cfa_offset 16
	.cfi_offset %rbp, -16
	movq	%rsp, %rbp
	.cfi_def_cfa_register %rbp
	subq	$32, %rsp
	movq	%rdi, -8(%rbp)
	movq	%rsi, -16(%rbp)
	movq	-8(%rbp), %rax
	movq	%rax, -32(%rbp)                 ## 8-byte Spill
	movq	-16(%rbp), %rax
	movq	%rax, -24(%rbp)                 ## 8-byte Spill
	movq	-16(%rbp), %rdi
	callq	__ZNSt3__111char_traitsIcE6lengthEPKc
	movq	-32(%rbp), %rdi                 ## 8-byte Reload
	movq	-24(%rbp), %rsi                 ## 8-byte Reload
	movq	%rax, %rdx
	callq	__ZNSt3__124__put_character_sequenceIcNS_11char_traitsIcEEEERNS_13basic_ostreamIT_T0_EES7_PKS4_m
	addq	$32, %rsp
	popq	%rbp
	retq
	.cfi_endproc
                                        ## -- End function
	.p2align	4, 0x90                         ## -- Begin function _ZNSt3__1L7getlineIcNS_11char_traitsIcEENS_9allocatorIcEEEERNS_13basic_istreamIT_T0_EES9_RNS_12basic_stringIS6_S7_T1_EE
__ZNSt3__1L7getlineIcNS_11char_traitsIcEENS_9allocatorIcEEEERNS_13basic_istreamIT_T0_EES9_RNS_12basic_stringIS6_S7_T1_EE: ## @_ZNSt3__1L7getlineIcNS_11char_traitsIcEENS_9allocatorIcEEEERNS_13basic_istreamIT_T0_EES9_RNS_12basic_stringIS6_S7_T1_EE
	.cfi_startproc
## %bb.0:
	pushq	%rbp
	.cfi_def_cfa_offset 16
	.cfi_offset %rbp, -16
	movq	%rsp, %rbp
	.cfi_def_cfa_register %rbp
	subq	$32, %rsp
	movq	%rdi, -8(%rbp)
	movq	%rsi, -16(%rbp)
	movq	-8(%rbp), %rax
	movq	%rax, -32(%rbp)                 ## 8-byte Spill
	movq	-16(%rbp), %rax
	movq	%rax, -24(%rbp)                 ## 8-byte Spill
	movq	-8(%rbp), %rdi
	movq	(%rdi), %rax
	movq	-24(%rax), %rax
	addq	%rax, %rdi
	movl	$10, %esi
	callq	__ZNKSt3__19basic_iosIcNS_11char_traitsIcEEE5widenEc
	movq	-32(%rbp), %rdi                 ## 8-byte Reload
	movq	-24(%rbp), %rsi                 ## 8-byte Reload
	movsbl	%al, %edx
	callq	__ZNSt3__17getlineIcNS_11char_traitsIcEENS_9allocatorIcEEEERNS_13basic_istreamIT_T0_EES9_RNS_12basic_stringIS6_S7_T1_EES6_
	addq	$32, %rsp
	popq	%rbp
	retq
	.cfi_endproc
                                        ## -- End function
	.p2align	4, 0x90                         ## -- Begin function _ZNSt3__118basic_stringstreamIcNS_11char_traitsIcEENS_9allocatorIcEEEC1ERKNS_12basic_stringIcS2_S4_EEj
__ZNSt3__118basic_stringstreamIcNS_11char_traitsIcEENS_9allocatorIcEEEC1ERKNS_12basic_stringIcS2_S4_EEj: ## @_ZNSt3__118basic_stringstreamIcNS_11char_traitsIcEENS_9allocatorIcEEEC1ERKNS_12basic_stringIcS2_S4_EEj
Lfunc_begin1:
	.cfi_startproc
	.cfi_personality 155, ___gxx_personality_v0
	.cfi_lsda 16, Lexception1
## %bb.0:
	pushq	%rbp
	.cfi_def_cfa_offset 16
	.cfi_offset %rbp, -16
	movq	%rsp, %rbp
	.cfi_def_cfa_register %rbp
	subq	$48, %rsp
	movq	%rdi, -8(%rbp)
	movq	%rsi, -16(%rbp)
	movl	%edx, -20(%rbp)
	movq	-8(%rbp), %rdi
	movq	%rdi, -48(%rbp)                 ## 8-byte Spill
	subq	$-128, %rdi
	callq	__ZNSt3__19basic_iosIcNS_11char_traitsIcEEEC2Ev
	movq	-48(%rbp), %rdi                 ## 8-byte Reload
	movq	__ZTVNSt3__118basic_stringstreamIcNS_11char_traitsIcEENS_9allocatorIcEEEE@GOTPCREL(%rip), %rcx
	movq	%rcx, %rdx
	addq	$24, %rdx
	movq	%rdx, (%rdi)
	movq	%rcx, %rdx
	addq	$104, %rdx
	movq	%rdx, 128(%rdi)
	addq	$64, %rcx
	movq	%rcx, 16(%rdi)
	movq	%rdi, %rdx
	addq	$24, %rdx
Ltmp65:
	movq	__ZTTNSt3__118basic_stringstreamIcNS_11char_traitsIcEENS_9allocatorIcEEEE@GOTPCREL(%rip), %rsi
	addq	$8, %rsi
	callq	__ZNSt3__114basic_iostreamIcNS_11char_traitsIcEEEC2EPNS_15basic_streambufIcS2_EE
Ltmp66:
	jmp	LBB4_1
LBB4_1:
	movq	-48(%rbp), %rdi                 ## 8-byte Reload
	movq	__ZTVNSt3__118basic_stringstreamIcNS_11char_traitsIcEENS_9allocatorIcEEEE@GOTPCREL(%rip), %rcx
	movq	%rcx, %rdx
	addq	$24, %rdx
	movq	%rdx, (%rdi)
	movq	%rcx, %rdx
	addq	$104, %rdx
	movq	%rdx, 128(%rdi)
	addq	$64, %rcx
	movq	%rcx, 16(%rdi)
	addq	$24, %rdi
	movq	-16(%rbp), %rsi
	movl	-20(%rbp), %edx
Ltmp68:
	callq	__ZNSt3__115basic_stringbufIcNS_11char_traitsIcEENS_9allocatorIcEEEC1ERKNS_12basic_stringIcS2_S4_EEj
Ltmp69:
	jmp	LBB4_2
LBB4_2:
	addq	$48, %rsp
	popq	%rbp
	retq
LBB4_3:
Ltmp67:
	movq	%rax, %rcx
	movl	%edx, %eax
	movq	%rcx, -32(%rbp)
	movl	%eax, -36(%rbp)
	jmp	LBB4_6
LBB4_4:
Ltmp70:
	movq	-48(%rbp), %rdi                 ## 8-byte Reload
	movq	%rdx, %rcx
	movq	%rax, %rsi
                                        ## kill: def $ecx killed $ecx killed $rcx
	movq	%rsi, -32(%rbp)
	movl	%ecx, -36(%rbp)
Ltmp71:
	movq	__ZTTNSt3__118basic_stringstreamIcNS_11char_traitsIcEENS_9allocatorIcEEEE@GOTPCREL(%rip), %rsi
	addq	$8, %rsi
	callq	__ZNSt3__114basic_iostreamIcNS_11char_traitsIcEEED2Ev
Ltmp72:
	jmp	LBB4_5
LBB4_5:
	jmp	LBB4_6
LBB4_6:
	movq	-48(%rbp), %rdi                 ## 8-byte Reload
	subq	$-128, %rdi
Ltmp73:
	callq	__ZNSt3__19basic_iosIcNS_11char_traitsIcEEED2Ev
Ltmp74:
	jmp	LBB4_7
LBB4_7:
	jmp	LBB4_8
LBB4_8:
	movq	-32(%rbp), %rdi
	callq	__Unwind_Resume
LBB4_9:
Ltmp75:
	movq	%rax, %rdi
	callq	___clang_call_terminate
Lfunc_end1:
	.cfi_endproc
	.section	__TEXT,__gcc_except_tab
	.p2align	2
GCC_except_table4:
Lexception1:
	.byte	255                             ## @LPStart Encoding = omit
	.byte	155                             ## @TType Encoding = indirect pcrel sdata4
	.uleb128 Lttbase1-Lttbaseref1
Lttbaseref1:
	.byte	1                               ## Call site Encoding = uleb128
	.uleb128 Lcst_end1-Lcst_begin1
Lcst_begin1:
	.uleb128 Lfunc_begin1-Lfunc_begin1      ## >> Call Site 1 <<
	.uleb128 Ltmp65-Lfunc_begin1            ##   Call between Lfunc_begin1 and Ltmp65
	.byte	0                               ##     has no landing pad
	.byte	0                               ##   On action: cleanup
	.uleb128 Ltmp65-Lfunc_begin1            ## >> Call Site 2 <<
	.uleb128 Ltmp66-Ltmp65                  ##   Call between Ltmp65 and Ltmp66
	.uleb128 Ltmp67-Lfunc_begin1            ##     jumps to Ltmp67
	.byte	0                               ##   On action: cleanup
	.uleb128 Ltmp68-Lfunc_begin1            ## >> Call Site 3 <<
	.uleb128 Ltmp69-Ltmp68                  ##   Call between Ltmp68 and Ltmp69
	.uleb128 Ltmp70-Lfunc_begin1            ##     jumps to Ltmp70
	.byte	0                               ##   On action: cleanup
	.uleb128 Ltmp71-Lfunc_begin1            ## >> Call Site 4 <<
	.uleb128 Ltmp74-Ltmp71                  ##   Call between Ltmp71 and Ltmp74
	.uleb128 Ltmp75-Lfunc_begin1            ##     jumps to Ltmp75
	.byte	1                               ##   On action: 1
	.uleb128 Ltmp74-Lfunc_begin1            ## >> Call Site 5 <<
	.uleb128 Lfunc_end1-Ltmp74              ##   Call between Ltmp74 and Lfunc_end1
	.byte	0                               ##     has no landing pad
	.byte	0                               ##   On action: cleanup
Lcst_end1:
	.byte	1                               ## >> Action Record 1 <<
                                        ##   Catch TypeInfo 1
	.byte	0                               ##   No further actions
	.p2align	2
                                        ## >> Catch TypeInfos <<
	.long	0                               ## TypeInfo 1
Lttbase1:
	.p2align	2
                                        ## -- End function
	.section	__TEXT,__text,regular,pure_instructions
	.globl	__ZNSt3__1rsIcNS_11char_traitsIcEENS_9allocatorIcEEEERNS_13basic_istreamIT_T0_EES9_RNS_12basic_stringIS6_S7_T1_EE ## -- Begin function _ZNSt3__1rsIcNS_11char_traitsIcEENS_9allocatorIcEEEERNS_13basic_istreamIT_T0_EES9_RNS_12basic_stringIS6_S7_T1_EE
	.weak_definition	__ZNSt3__1rsIcNS_11char_traitsIcEENS_9allocatorIcEEEERNS_13basic_istreamIT_T0_EES9_RNS_12basic_stringIS6_S7_T1_EE
	.p2align	4, 0x90
__ZNSt3__1rsIcNS_11char_traitsIcEENS_9allocatorIcEEEERNS_13basic_istreamIT_T0_EES9_RNS_12basic_stringIS6_S7_T1_EE: ## @_ZNSt3__1rsIcNS_11char_traitsIcEENS_9allocatorIcEEEERNS_13basic_istreamIT_T0_EES9_RNS_12basic_stringIS6_S7_T1_EE
Lfunc_begin2:
	.cfi_startproc
	.cfi_personality 155, ___gxx_personality_v0
	.cfi_lsda 16, Lexception2
## %bb.0:
	pushq	%rbp
	.cfi_def_cfa_offset 16
	.cfi_offset %rbp, -16
	movq	%rsp, %rbp
	.cfi_def_cfa_register %rbp
	subq	$128, %rsp
	xorl	%edx, %edx
	movq	%rdi, -8(%rbp)
	movq	%rsi, -16(%rbp)
	movl	$0, -20(%rbp)
	movq	-8(%rbp), %rsi
	leaq	-24(%rbp), %rdi
	callq	__ZNSt3__113basic_istreamIcNS_11char_traitsIcEEE6sentryC1ERS3_b
	leaq	-24(%rbp), %rdi
	callq	__ZNKSt3__113basic_istreamIcNS_11char_traitsIcEEE6sentrycvbEv
	testb	$1, %al
	jne	LBB5_1
	jmp	LBB5_34
LBB5_1:
	movq	-16(%rbp), %rdi
	callq	__ZNSt3__112basic_stringIcNS_11char_traitsIcEENS_9allocatorIcEEE5clearEv
	movq	-8(%rbp), %rdi
	movq	(%rdi), %rax
	movq	-24(%rax), %rax
	addq	%rax, %rdi
	callq	__ZNKSt3__18ios_base5widthEv
	movq	%rax, -32(%rbp)
	cmpq	$0, -32(%rbp)
	jg	LBB5_3
## %bb.2:
	movq	-16(%rbp), %rdi
	callq	__ZNKSt3__112basic_stringIcNS_11char_traitsIcEENS_9allocatorIcEEE8max_sizeEv
	movq	%rax, -32(%rbp)
LBB5_3:
	cmpq	$0, -32(%rbp)
	jg	LBB5_5
## %bb.4:
	callq	__ZNSt3__114numeric_limitsIlE3maxEv
	movq	%rax, -32(%rbp)
LBB5_5:
	movq	$0, -40(%rbp)
	movq	-8(%rbp), %rsi
	movq	(%rsi), %rcx
	movq	-24(%rcx), %rcx
	addq	%rcx, %rsi
Ltmp76:
	leaq	-56(%rbp), %rdi
	callq	__ZNKSt3__18ios_base6getlocEv
Ltmp77:
	jmp	LBB5_6
LBB5_6:
Ltmp78:
	leaq	-56(%rbp), %rdi
	callq	__ZNSt3__1L9use_facetINS_5ctypeIcEEEERKT_RKNS_6localeE
	movq	%rax, %rcx
Ltmp79:
	movq	%rcx, -88(%rbp)                 ## 8-byte Spill
	jmp	LBB5_7
LBB5_7:
Ltmp83:
	leaq	-56(%rbp), %rdi
	callq	__ZNSt3__16localeD1Ev
Ltmp84:
	jmp	LBB5_8
LBB5_8:
	movq	-88(%rbp), %rax                 ## 8-byte Reload
	movq	%rax, -48(%rbp)
LBB5_9:                                 ## =>This Inner Loop Header: Depth=1
	movq	-40(%rbp), %rax
	cmpq	-32(%rbp), %rax
	jge	LBB5_27
## %bb.10:                              ##   in Loop: Header=BB5_9 Depth=1
	movq	-8(%rbp), %rdi
	movq	(%rdi), %rax
	movq	-24(%rax), %rax
	addq	%rax, %rdi
Ltmp85:
	callq	__ZNKSt3__19basic_iosIcNS_11char_traitsIcEEE5rdbufEv
	movq	%rax, %rcx
Ltmp86:
	movq	%rcx, -96(%rbp)                 ## 8-byte Spill
	jmp	LBB5_11
LBB5_11:                                ##   in Loop: Header=BB5_9 Depth=1
Ltmp87:
	movq	-96(%rbp), %rdi                 ## 8-byte Reload
	callq	__ZNSt3__115basic_streambufIcNS_11char_traitsIcEEE5sgetcEv
	movl	%eax, %ecx
Ltmp88:
	movl	%ecx, -100(%rbp)                ## 4-byte Spill
	jmp	LBB5_12
LBB5_12:                                ##   in Loop: Header=BB5_9 Depth=1
	movl	-100(%rbp), %eax                ## 4-byte Reload
	movl	%eax, -72(%rbp)
	movl	-72(%rbp), %eax
	movl	%eax, -104(%rbp)                ## 4-byte Spill
	callq	__ZNSt3__111char_traitsIcE3eofEv
	movl	-104(%rbp), %edi                ## 4-byte Reload
	movl	%eax, %esi
	callq	__ZNSt3__111char_traitsIcE11eq_int_typeEii
	testb	$1, %al
	jne	LBB5_13
	jmp	LBB5_20
LBB5_13:
	movl	-20(%rbp), %eax
	orl	$2, %eax
	movl	%eax, -20(%rbp)
	jmp	LBB5_27
LBB5_14:
Ltmp97:
	movq	%rax, %rcx
	movl	%edx, %eax
	movq	%rcx, -64(%rbp)
	movl	%eax, -68(%rbp)
	jmp	LBB5_17
LBB5_15:
Ltmp80:
	movq	%rdx, %rcx
	movq	%rax, %rsi
                                        ## kill: def $ecx killed $ecx killed $rcx
	movq	%rsi, -64(%rbp)
	movl	%ecx, -68(%rbp)
Ltmp81:
	leaq	-56(%rbp), %rdi
	callq	__ZNSt3__16localeD1Ev
Ltmp82:
	jmp	LBB5_16
LBB5_16:
	jmp	LBB5_17
LBB5_17:
	movq	-64(%rbp), %rdi
	callq	___cxa_begin_catch
	movb	-20(%rbp), %al
	orb	$1, %al
	movb	%al, -20(%rbp)
	movq	-8(%rbp), %rdi
	movq	(%rdi), %rax
	movq	-24(%rax), %rax
	addq	%rax, %rdi
	movl	-20(%rbp), %esi
	callq	__ZNSt3__18ios_base18__setstate_nothrowEj
	movq	-8(%rbp), %rdi
	movq	(%rdi), %rax
	movq	-24(%rax), %rax
	addq	%rax, %rdi
Ltmp98:
	callq	__ZNKSt3__19basic_iosIcNS_11char_traitsIcEEE10exceptionsEv
	movl	%eax, %ecx
Ltmp99:
	movl	%ecx, -108(%rbp)                ## 4-byte Spill
	jmp	LBB5_18
LBB5_18:
	movl	-108(%rbp), %eax                ## 4-byte Reload
	andl	$1, %eax
	cmpl	$0, %eax
	je	LBB5_31
## %bb.19:
Ltmp100:
	callq	___cxa_rethrow
Ltmp101:
	jmp	LBB5_37
LBB5_20:                                ##   in Loop: Header=BB5_9 Depth=1
	movl	-72(%rbp), %edi
	callq	__ZNSt3__111char_traitsIcE12to_char_typeEi
	movb	%al, -73(%rbp)
	movq	-48(%rbp), %rdi
	movsbl	-73(%rbp), %edx
Ltmp89:
	movl	$16384, %esi                    ## imm = 0x4000
	callq	__ZNKSt3__15ctypeIcE2isEjc
	movb	%al, %cl
Ltmp90:
	movb	%cl, -109(%rbp)                 ## 1-byte Spill
	jmp	LBB5_21
LBB5_21:                                ##   in Loop: Header=BB5_9 Depth=1
	movb	-109(%rbp), %al                 ## 1-byte Reload
	testb	$1, %al
	jne	LBB5_22
	jmp	LBB5_23
LBB5_22:
	jmp	LBB5_27
LBB5_23:                                ##   in Loop: Header=BB5_9 Depth=1
	movq	-16(%rbp), %rdi
	movsbl	-73(%rbp), %esi
Ltmp91:
	callq	__ZNSt3__112basic_stringIcNS_11char_traitsIcEENS_9allocatorIcEEE9push_backEc
Ltmp92:
	jmp	LBB5_24
LBB5_24:                                ##   in Loop: Header=BB5_9 Depth=1
	movq	-40(%rbp), %rax
	addq	$1, %rax
	movq	%rax, -40(%rbp)
	movq	-8(%rbp), %rdi
	movq	(%rdi), %rax
	movq	-24(%rax), %rax
	addq	%rax, %rdi
Ltmp93:
	callq	__ZNKSt3__19basic_iosIcNS_11char_traitsIcEEE5rdbufEv
	movq	%rax, %rcx
Ltmp94:
	movq	%rcx, -120(%rbp)                ## 8-byte Spill
	jmp	LBB5_25
LBB5_25:                                ##   in Loop: Header=BB5_9 Depth=1
Ltmp95:
	movq	-120(%rbp), %rdi                ## 8-byte Reload
	callq	__ZNSt3__115basic_streambufIcNS_11char_traitsIcEEE6sbumpcEv
                                        ## kill: def $ecx killed $eax
Ltmp96:
	jmp	LBB5_26
LBB5_26:                                ##   in Loop: Header=BB5_9 Depth=1
	jmp	LBB5_9
LBB5_27:
	xorl	%eax, %eax
	movl	%eax, %esi
	movq	-8(%rbp), %rdi
	movq	(%rdi), %rax
	movq	-24(%rax), %rax
	addq	%rax, %rdi
	callq	__ZNSt3__18ios_base5widthEl
	cmpq	$0, -40(%rbp)
	jne	LBB5_29
## %bb.28:
	movl	-20(%rbp), %eax
	orl	$4, %eax
	movl	%eax, -20(%rbp)
LBB5_29:
	jmp	LBB5_32
LBB5_30:
Ltmp102:
	movq	%rdx, %rcx
	movq	%rax, %rsi
                                        ## kill: def $ecx killed $ecx killed $rcx
	movq	%rsi, -64(%rbp)
	movl	%ecx, -68(%rbp)
Ltmp103:
	callq	___cxa_end_catch
Ltmp104:
	jmp	LBB5_33
LBB5_31:
	callq	___cxa_end_catch
LBB5_32:
	movq	-8(%rbp), %rdi
	movq	(%rdi), %rax
	movq	-24(%rax), %rax
	addq	%rax, %rdi
	movl	-20(%rbp), %esi
	callq	__ZNSt3__19basic_iosIcNS_11char_traitsIcEEE8setstateEj
	jmp	LBB5_34
LBB5_33:
	jmp	LBB5_35
LBB5_34:
	movq	-8(%rbp), %rax
	addq	$128, %rsp
	popq	%rbp
	retq
LBB5_35:
	movq	-64(%rbp), %rdi
	callq	__Unwind_Resume
LBB5_36:
Ltmp105:
	movq	%rax, %rdi
	callq	___clang_call_terminate
LBB5_37:
	ud2
Lfunc_end2:
	.cfi_endproc
	.section	__TEXT,__gcc_except_tab
	.p2align	2
GCC_except_table5:
Lexception2:
	.byte	255                             ## @LPStart Encoding = omit
	.byte	155                             ## @TType Encoding = indirect pcrel sdata4
	.uleb128 Lttbase2-Lttbaseref2
Lttbaseref2:
	.byte	1                               ## Call site Encoding = uleb128
	.uleb128 Lcst_end2-Lcst_begin2
Lcst_begin2:
	.uleb128 Lfunc_begin2-Lfunc_begin2      ## >> Call Site 1 <<
	.uleb128 Ltmp76-Lfunc_begin2            ##   Call between Lfunc_begin2 and Ltmp76
	.byte	0                               ##     has no landing pad
	.byte	0                               ##   On action: cleanup
	.uleb128 Ltmp76-Lfunc_begin2            ## >> Call Site 2 <<
	.uleb128 Ltmp77-Ltmp76                  ##   Call between Ltmp76 and Ltmp77
	.uleb128 Ltmp97-Lfunc_begin2            ##     jumps to Ltmp97
	.byte	1                               ##   On action: 1
	.uleb128 Ltmp78-Lfunc_begin2            ## >> Call Site 3 <<
	.uleb128 Ltmp79-Ltmp78                  ##   Call between Ltmp78 and Ltmp79
	.uleb128 Ltmp80-Lfunc_begin2            ##     jumps to Ltmp80
	.byte	1                               ##   On action: 1
	.uleb128 Ltmp83-Lfunc_begin2            ## >> Call Site 4 <<
	.uleb128 Ltmp88-Ltmp83                  ##   Call between Ltmp83 and Ltmp88
	.uleb128 Ltmp97-Lfunc_begin2            ##     jumps to Ltmp97
	.byte	1                               ##   On action: 1
	.uleb128 Ltmp81-Lfunc_begin2            ## >> Call Site 5 <<
	.uleb128 Ltmp82-Ltmp81                  ##   Call between Ltmp81 and Ltmp82
	.uleb128 Ltmp105-Lfunc_begin2           ##     jumps to Ltmp105
	.byte	1                               ##   On action: 1
	.uleb128 Ltmp82-Lfunc_begin2            ## >> Call Site 6 <<
	.uleb128 Ltmp98-Ltmp82                  ##   Call between Ltmp82 and Ltmp98
	.byte	0                               ##     has no landing pad
	.byte	0                               ##   On action: cleanup
	.uleb128 Ltmp98-Lfunc_begin2            ## >> Call Site 7 <<
	.uleb128 Ltmp101-Ltmp98                 ##   Call between Ltmp98 and Ltmp101
	.uleb128 Ltmp102-Lfunc_begin2           ##     jumps to Ltmp102
	.byte	0                               ##   On action: cleanup
	.uleb128 Ltmp89-Lfunc_begin2            ## >> Call Site 8 <<
	.uleb128 Ltmp96-Ltmp89                  ##   Call between Ltmp89 and Ltmp96
	.uleb128 Ltmp97-Lfunc_begin2            ##     jumps to Ltmp97
	.byte	1                               ##   On action: 1
	.uleb128 Ltmp103-Lfunc_begin2           ## >> Call Site 9 <<
	.uleb128 Ltmp104-Ltmp103                ##   Call between Ltmp103 and Ltmp104
	.uleb128 Ltmp105-Lfunc_begin2           ##     jumps to Ltmp105
	.byte	1                               ##   On action: 1
	.uleb128 Ltmp104-Lfunc_begin2           ## >> Call Site 10 <<
	.uleb128 Lfunc_end2-Ltmp104             ##   Call between Ltmp104 and Lfunc_end2
	.byte	0                               ##     has no landing pad
	.byte	0                               ##   On action: cleanup
Lcst_end2:
	.byte	1                               ## >> Action Record 1 <<
                                        ##   Catch TypeInfo 1
	.byte	0                               ##   No further actions
	.p2align	2
                                        ## >> Catch TypeInfos <<
	.long	0                               ## TypeInfo 1
Lttbase2:
	.p2align	2
                                        ## -- End function
	.section	__TEXT,__text,regular,pure_instructions
	.p2align	4, 0x90                         ## -- Begin function _ZNSt3__113basic_istreamIcNS_11char_traitsIcEEErsEPFRNS_8ios_baseES5_E
__ZNSt3__113basic_istreamIcNS_11char_traitsIcEEErsEPFRNS_8ios_baseES5_E: ## @_ZNSt3__113basic_istreamIcNS_11char_traitsIcEEErsEPFRNS_8ios_baseES5_E
	.cfi_startproc
## %bb.0:
	pushq	%rbp
	.cfi_def_cfa_offset 16
	.cfi_offset %rbp, -16
	movq	%rsp, %rbp
	.cfi_def_cfa_register %rbp
	subq	$32, %rsp
	movq	%rdi, -8(%rbp)
	movq	%rsi, -16(%rbp)
	movq	-8(%rbp), %rdi
	movq	%rdi, -24(%rbp)                 ## 8-byte Spill
	movq	-16(%rbp), %rax
	movq	(%rdi), %rcx
	movq	-24(%rcx), %rcx
	addq	%rcx, %rdi
	callq	*%rax
                                        ## kill: def $rcx killed $rax
	movq	-24(%rbp), %rax                 ## 8-byte Reload
	addq	$32, %rsp
	popq	%rbp
	retq
	.cfi_endproc
                                        ## -- End function
	.globl	__ZNSt3__16skipwsERNS_8ios_baseE ## -- Begin function _ZNSt3__16skipwsERNS_8ios_baseE
	.weak_definition	__ZNSt3__16skipwsERNS_8ios_baseE
	.p2align	4, 0x90
__ZNSt3__16skipwsERNS_8ios_baseE:       ## @_ZNSt3__16skipwsERNS_8ios_baseE
	.cfi_startproc
## %bb.0:
	pushq	%rbp
	.cfi_def_cfa_offset 16
	.cfi_offset %rbp, -16
	movq	%rsp, %rbp
	.cfi_def_cfa_register %rbp
	subq	$16, %rsp
	movq	%rdi, -8(%rbp)
	movq	-8(%rbp), %rdi
	movl	$4096, %esi                     ## imm = 0x1000
	callq	__ZNSt3__18ios_base4setfEj
	movq	-8(%rbp), %rax
	addq	$16, %rsp
	popq	%rbp
	retq
	.cfi_endproc
                                        ## -- End function
	.globl	__ZNSt3__18noskipwsERNS_8ios_baseE ## -- Begin function _ZNSt3__18noskipwsERNS_8ios_baseE
	.weak_definition	__ZNSt3__18noskipwsERNS_8ios_baseE
	.p2align	4, 0x90
__ZNSt3__18noskipwsERNS_8ios_baseE:     ## @_ZNSt3__18noskipwsERNS_8ios_baseE
	.cfi_startproc
## %bb.0:
	pushq	%rbp
	.cfi_def_cfa_offset 16
	.cfi_offset %rbp, -16
	movq	%rsp, %rbp
	.cfi_def_cfa_register %rbp
	subq	$16, %rsp
	movq	%rdi, -8(%rbp)
	movq	-8(%rbp), %rdi
	movl	$4096, %esi                     ## imm = 0x1000
	callq	__ZNSt3__18ios_base6unsetfEj
	movq	-8(%rbp), %rax
	addq	$16, %rsp
	popq	%rbp
	retq
	.cfi_endproc
                                        ## -- End function
	.p2align	4, 0x90                         ## -- Begin function _ZNSt3__113basic_ostreamIcNS_11char_traitsIcEEElsEPFRNS_8ios_baseES5_E
__ZNSt3__113basic_ostreamIcNS_11char_traitsIcEEElsEPFRNS_8ios_baseES5_E: ## @_ZNSt3__113basic_ostreamIcNS_11char_traitsIcEEElsEPFRNS_8ios_baseES5_E
	.cfi_startproc
## %bb.0:
	pushq	%rbp
	.cfi_def_cfa_offset 16
	.cfi_offset %rbp, -16
	movq	%rsp, %rbp
	.cfi_def_cfa_register %rbp
	subq	$32, %rsp
	movq	%rdi, -8(%rbp)
	movq	%rsi, -16(%rbp)
	movq	-8(%rbp), %rdi
	movq	%rdi, -24(%rbp)                 ## 8-byte Spill
	movq	-16(%rbp), %rax
	movq	(%rdi), %rcx
	movq	-24(%rcx), %rcx
	addq	%rcx, %rdi
	callq	*%rax
                                        ## kill: def $rcx killed $rax
	movq	-24(%rbp), %rax                 ## 8-byte Reload
	addq	$32, %rsp
	popq	%rbp
	retq
	.cfi_endproc
                                        ## -- End function
	.globl	__ZNSt3__13hexERNS_8ios_baseE   ## -- Begin function _ZNSt3__13hexERNS_8ios_baseE
	.weak_definition	__ZNSt3__13hexERNS_8ios_baseE
	.p2align	4, 0x90
__ZNSt3__13hexERNS_8ios_baseE:          ## @_ZNSt3__13hexERNS_8ios_baseE
	.cfi_startproc
## %bb.0:
	pushq	%rbp
	.cfi_def_cfa_offset 16
	.cfi_offset %rbp, -16
	movq	%rsp, %rbp
	.cfi_def_cfa_register %rbp
	subq	$16, %rsp
	movq	%rdi, -8(%rbp)
	movq	-8(%rbp), %rdi
	movl	$8, %esi
	movl	$74, %edx
	callq	__ZNSt3__18ios_base4setfEjj
	movq	-8(%rbp), %rax
	addq	$16, %rsp
	popq	%rbp
	retq
	.cfi_endproc
                                        ## -- End function
	.p2align	4, 0x90                         ## -- Begin function _ZNSt3__113basic_ostreamIcNS_11char_traitsIcEEElsEPFRS3_S4_E
__ZNSt3__113basic_ostreamIcNS_11char_traitsIcEEElsEPFRS3_S4_E: ## @_ZNSt3__113basic_ostreamIcNS_11char_traitsIcEEElsEPFRS3_S4_E
	.cfi_startproc
## %bb.0:
	pushq	%rbp
	.cfi_def_cfa_offset 16
	.cfi_offset %rbp, -16
	movq	%rsp, %rbp
	.cfi_def_cfa_register %rbp
	subq	$16, %rsp
	movq	%rdi, -8(%rbp)
	movq	%rsi, -16(%rbp)
	movq	-8(%rbp), %rdi
	callq	*-16(%rbp)
	addq	$16, %rsp
	popq	%rbp
	retq
	.cfi_endproc
                                        ## -- End function
	.globl	__ZNSt3__14endlIcNS_11char_traitsIcEEEERNS_13basic_ostreamIT_T0_EES7_ ## -- Begin function _ZNSt3__14endlIcNS_11char_traitsIcEEEERNS_13basic_ostreamIT_T0_EES7_
	.weak_definition	__ZNSt3__14endlIcNS_11char_traitsIcEEEERNS_13basic_ostreamIT_T0_EES7_
	.p2align	4, 0x90
__ZNSt3__14endlIcNS_11char_traitsIcEEEERNS_13basic_ostreamIT_T0_EES7_: ## @_ZNSt3__14endlIcNS_11char_traitsIcEEEERNS_13basic_ostreamIT_T0_EES7_
	.cfi_startproc
## %bb.0:
	pushq	%rbp
	.cfi_def_cfa_offset 16
	.cfi_offset %rbp, -16
	movq	%rsp, %rbp
	.cfi_def_cfa_register %rbp
	subq	$16, %rsp
	movq	%rdi, -8(%rbp)
	movq	-8(%rbp), %rax
	movq	%rax, -16(%rbp)                 ## 8-byte Spill
	movq	-8(%rbp), %rdi
	movq	(%rdi), %rax
	movq	-24(%rax), %rax
	addq	%rax, %rdi
	movl	$10, %esi
	callq	__ZNKSt3__19basic_iosIcNS_11char_traitsIcEEE5widenEc
	movq	-16(%rbp), %rdi                 ## 8-byte Reload
	movsbl	%al, %esi
	callq	__ZNSt3__113basic_ostreamIcNS_11char_traitsIcEEE3putEc
	movq	-8(%rbp), %rdi
	callq	__ZNSt3__113basic_ostreamIcNS_11char_traitsIcEEE5flushEv
	movq	-8(%rbp), %rax
	addq	$16, %rsp
	popq	%rbp
	retq
	.cfi_endproc
                                        ## -- End function
	.globl	__ZNSt3__13decERNS_8ios_baseE   ## -- Begin function _ZNSt3__13decERNS_8ios_baseE
	.weak_definition	__ZNSt3__13decERNS_8ios_baseE
	.p2align	4, 0x90
__ZNSt3__13decERNS_8ios_baseE:          ## @_ZNSt3__13decERNS_8ios_baseE
	.cfi_startproc
## %bb.0:
	pushq	%rbp
	.cfi_def_cfa_offset 16
	.cfi_offset %rbp, -16
	movq	%rsp, %rbp
	.cfi_def_cfa_register %rbp
	subq	$16, %rsp
	movq	%rdi, -8(%rbp)
	movq	-8(%rbp), %rdi
	movl	$2, %esi
	movl	$74, %edx
	callq	__ZNSt3__18ios_base4setfEjj
	movq	-8(%rbp), %rax
	addq	$16, %rsp
	popq	%rbp
	retq
	.cfi_endproc
                                        ## -- End function
	.globl	__ZNSt3__1lsIcNS_11char_traitsIcEENS_9allocatorIcEEEERNS_13basic_ostreamIT_T0_EES9_RKNS_12basic_stringIS6_S7_T1_EE ## -- Begin function _ZNSt3__1lsIcNS_11char_traitsIcEENS_9allocatorIcEEEERNS_13basic_ostreamIT_T0_EES9_RKNS_12basic_stringIS6_S7_T1_EE
	.weak_definition	__ZNSt3__1lsIcNS_11char_traitsIcEENS_9allocatorIcEEEERNS_13basic_ostreamIT_T0_EES9_RKNS_12basic_stringIS6_S7_T1_EE
	.p2align	4, 0x90
__ZNSt3__1lsIcNS_11char_traitsIcEENS_9allocatorIcEEEERNS_13basic_ostreamIT_T0_EES9_RKNS_12basic_stringIS6_S7_T1_EE: ## @_ZNSt3__1lsIcNS_11char_traitsIcEENS_9allocatorIcEEEERNS_13basic_ostreamIT_T0_EES9_RKNS_12basic_stringIS6_S7_T1_EE
	.cfi_startproc
## %bb.0:
	pushq	%rbp
	.cfi_def_cfa_offset 16
	.cfi_offset %rbp, -16
	movq	%rsp, %rbp
	.cfi_def_cfa_register %rbp
	subq	$32, %rsp
	movq	%rdi, -8(%rbp)
	movq	%rsi, -16(%rbp)
	movq	-8(%rbp), %rax
	movq	%rax, -32(%rbp)                 ## 8-byte Spill
	movq	-16(%rbp), %rdi
	callq	__ZNKSt3__112basic_stringIcNS_11char_traitsIcEENS_9allocatorIcEEE4dataEv
	movq	%rax, -24(%rbp)                 ## 8-byte Spill
	movq	-16(%rbp), %rdi
	callq	__ZNKSt3__112basic_stringIcNS_11char_traitsIcEENS_9allocatorIcEEE4sizeEv
	movq	-32(%rbp), %rdi                 ## 8-byte Reload
	movq	-24(%rbp), %rsi                 ## 8-byte Reload
	movq	%rax, %rdx
	callq	__ZNSt3__124__put_character_sequenceIcNS_11char_traitsIcEEEERNS_13basic_ostreamIT_T0_EES7_PKS4_m
	addq	$32, %rsp
	popq	%rbp
	retq
	.cfi_endproc
                                        ## -- End function
	.globl	__ZNSt3__118basic_stringstreamIcNS_11char_traitsIcEENS_9allocatorIcEEED1Ev ## -- Begin function _ZNSt3__118basic_stringstreamIcNS_11char_traitsIcEENS_9allocatorIcEEED1Ev
	.weak_def_can_be_hidden	__ZNSt3__118basic_stringstreamIcNS_11char_traitsIcEENS_9allocatorIcEEED1Ev
	.p2align	4, 0x90
__ZNSt3__118basic_stringstreamIcNS_11char_traitsIcEENS_9allocatorIcEEED1Ev: ## @_ZNSt3__118basic_stringstreamIcNS_11char_traitsIcEENS_9allocatorIcEEED1Ev
Lfunc_begin3:
	.cfi_startproc
	.cfi_personality 155, ___gxx_personality_v0
	.cfi_lsda 16, Lexception3
## %bb.0:
	pushq	%rbp
	.cfi_def_cfa_offset 16
	.cfi_offset %rbp, -16
	movq	%rsp, %rbp
	.cfi_def_cfa_register %rbp
	subq	$32, %rsp
	movq	%rdi, -8(%rbp)
	movq	-8(%rbp), %rdi
	movq	%rdi, -32(%rbp)                 ## 8-byte Spill
Ltmp106:
	movq	__ZTTNSt3__118basic_stringstreamIcNS_11char_traitsIcEENS_9allocatorIcEEEE@GOTPCREL(%rip), %rsi
	callq	__ZNSt3__118basic_stringstreamIcNS_11char_traitsIcEENS_9allocatorIcEEED2Ev
Ltmp107:
	jmp	LBB15_1
LBB15_1:
	movq	-32(%rbp), %rdi                 ## 8-byte Reload
	addq	$128, %rdi
	callq	__ZNSt3__19basic_iosIcNS_11char_traitsIcEEED2Ev
	addq	$32, %rsp
	popq	%rbp
	retq
LBB15_2:
Ltmp108:
	movq	-32(%rbp), %rdi                 ## 8-byte Reload
	movq	%rdx, %rcx
	movq	%rax, %rsi
                                        ## kill: def $ecx killed $ecx killed $rcx
	movq	%rsi, -16(%rbp)
	movl	%ecx, -20(%rbp)
	subq	$-128, %rdi
Ltmp109:
	callq	__ZNSt3__19basic_iosIcNS_11char_traitsIcEEED2Ev
Ltmp110:
	jmp	LBB15_3
LBB15_3:
	jmp	LBB15_4
LBB15_4:
	movq	-16(%rbp), %rdi
	callq	__Unwind_Resume
LBB15_5:
Ltmp111:
	movq	%rax, %rdi
	callq	___clang_call_terminate
Lfunc_end3:
	.cfi_endproc
	.section	__TEXT,__gcc_except_tab
	.p2align	2
GCC_except_table15:
Lexception3:
	.byte	255                             ## @LPStart Encoding = omit
	.byte	155                             ## @TType Encoding = indirect pcrel sdata4
	.uleb128 Lttbase3-Lttbaseref3
Lttbaseref3:
	.byte	1                               ## Call site Encoding = uleb128
	.uleb128 Lcst_end3-Lcst_begin3
Lcst_begin3:
	.uleb128 Ltmp106-Lfunc_begin3           ## >> Call Site 1 <<
	.uleb128 Ltmp107-Ltmp106                ##   Call between Ltmp106 and Ltmp107
	.uleb128 Ltmp108-Lfunc_begin3           ##     jumps to Ltmp108
	.byte	0                               ##   On action: cleanup
	.uleb128 Ltmp107-Lfunc_begin3           ## >> Call Site 2 <<
	.uleb128 Ltmp109-Ltmp107                ##   Call between Ltmp107 and Ltmp109
	.byte	0                               ##     has no landing pad
	.byte	0                               ##   On action: cleanup
	.uleb128 Ltmp109-Lfunc_begin3           ## >> Call Site 3 <<
	.uleb128 Ltmp110-Ltmp109                ##   Call between Ltmp109 and Ltmp110
	.uleb128 Ltmp111-Lfunc_begin3           ##     jumps to Ltmp111
	.byte	1                               ##   On action: 1
	.uleb128 Ltmp110-Lfunc_begin3           ## >> Call Site 4 <<
	.uleb128 Lfunc_end3-Ltmp110             ##   Call between Ltmp110 and Lfunc_end3
	.byte	0                               ##     has no landing pad
	.byte	0                               ##   On action: cleanup
Lcst_end3:
	.byte	1                               ## >> Action Record 1 <<
                                        ##   Catch TypeInfo 1
	.byte	0                               ##   No further actions
	.p2align	2
                                        ## >> Catch TypeInfos <<
	.long	0                               ## TypeInfo 1
Lttbase3:
	.p2align	2
                                        ## -- End function
	.section	__TEXT,__text,regular,pure_instructions
	.private_extern	___clang_call_terminate ## -- Begin function __clang_call_terminate
	.globl	___clang_call_terminate
	.weak_definition	___clang_call_terminate
	.p2align	4, 0x90
___clang_call_terminate:                ## @__clang_call_terminate
## %bb.0:
	pushq	%rax
	callq	___cxa_begin_catch
	callq	__ZSt9terminatev
                                        ## -- End function
	.p2align	4, 0x90                         ## -- Begin function _ZNSt3__18ios_base4setfEj
__ZNSt3__18ios_base4setfEj:             ## @_ZNSt3__18ios_base4setfEj
	.cfi_startproc
## %bb.0:
	pushq	%rbp
	.cfi_def_cfa_offset 16
	.cfi_offset %rbp, -16
	movq	%rsp, %rbp
	.cfi_def_cfa_register %rbp
	movq	%rdi, -8(%rbp)
	movl	%esi, -12(%rbp)
	movq	-8(%rbp), %rax
	movl	8(%rax), %ecx
	movl	%ecx, -16(%rbp)
	movl	-12(%rbp), %ecx
	orl	8(%rax), %ecx
	movl	%ecx, 8(%rax)
	movl	-16(%rbp), %eax
	popq	%rbp
	retq
	.cfi_endproc
                                        ## -- End function
	.p2align	4, 0x90                         ## -- Begin function _ZNSt3__18ios_base6unsetfEj
__ZNSt3__18ios_base6unsetfEj:           ## @_ZNSt3__18ios_base6unsetfEj
	.cfi_startproc
## %bb.0:
	pushq	%rbp
	.cfi_def_cfa_offset 16
	.cfi_offset %rbp, -16
	movq	%rsp, %rbp
	.cfi_def_cfa_register %rbp
	movq	%rdi, -8(%rbp)
	movl	%esi, -12(%rbp)
	movq	-8(%rbp), %rax
	movl	-12(%rbp), %ecx
	xorl	$-1, %ecx
	andl	8(%rax), %ecx
	movl	%ecx, 8(%rax)
	popq	%rbp
	retq
	.cfi_endproc
                                        ## -- End function
	.p2align	4, 0x90                         ## -- Begin function _ZNSt3__18ios_base4setfEjj
__ZNSt3__18ios_base4setfEjj:            ## @_ZNSt3__18ios_base4setfEjj
	.cfi_startproc
## %bb.0:
	pushq	%rbp
	.cfi_def_cfa_offset 16
	.cfi_offset %rbp, -16
	movq	%rsp, %rbp
	.cfi_def_cfa_register %rbp
	subq	$32, %rsp
	movq	%rdi, -8(%rbp)
	movl	%esi, -12(%rbp)
	movl	%edx, -16(%rbp)
	movq	-8(%rbp), %rdi
	movq	%rdi, -32(%rbp)                 ## 8-byte Spill
	movl	8(%rdi), %eax
	movl	%eax, -20(%rbp)
	movl	-16(%rbp), %esi
	callq	__ZNSt3__18ios_base6unsetfEj
	movq	-32(%rbp), %rax                 ## 8-byte Reload
	movl	-12(%rbp), %ecx
	andl	-16(%rbp), %ecx
	orl	8(%rax), %ecx
	movl	%ecx, 8(%rax)
	movl	-20(%rbp), %eax
	addq	$32, %rsp
	popq	%rbp
	retq
	.cfi_endproc
                                        ## -- End function
	.globl	__ZNSt3__118basic_stringstreamIcNS_11char_traitsIcEENS_9allocatorIcEEED2Ev ## -- Begin function _ZNSt3__118basic_stringstreamIcNS_11char_traitsIcEENS_9allocatorIcEEED2Ev
	.weak_def_can_be_hidden	__ZNSt3__118basic_stringstreamIcNS_11char_traitsIcEENS_9allocatorIcEEED2Ev
	.p2align	4, 0x90
__ZNSt3__118basic_stringstreamIcNS_11char_traitsIcEENS_9allocatorIcEEED2Ev: ## @_ZNSt3__118basic_stringstreamIcNS_11char_traitsIcEENS_9allocatorIcEEED2Ev
Lfunc_begin4:
	.cfi_startproc
	.cfi_personality 155, ___gxx_personality_v0
	.cfi_lsda 16, Lexception4
## %bb.0:
	pushq	%rbp
	.cfi_def_cfa_offset 16
	.cfi_offset %rbp, -16
	movq	%rsp, %rbp
	.cfi_def_cfa_register %rbp
	subq	$48, %rsp
	movq	%rdi, -8(%rbp)
	movq	%rsi, -16(%rbp)
	movq	-8(%rbp), %rdi
	movq	%rdi, -48(%rbp)                 ## 8-byte Spill
	movq	-16(%rbp), %rcx
	movq	%rcx, -40(%rbp)                 ## 8-byte Spill
	movq	(%rcx), %rsi
	movq	%rsi, (%rdi)
	movq	64(%rcx), %r8
	movq	(%rdi), %rsi
	movq	-24(%rsi), %rsi
	movq	%r8, (%rdi,%rsi)
	movq	72(%rcx), %rcx
	movq	%rcx, 16(%rdi)
	addq	$24, %rdi
Ltmp112:
	callq	__ZNSt3__115basic_stringbufIcNS_11char_traitsIcEENS_9allocatorIcEEED1Ev
Ltmp113:
	jmp	LBB20_1
LBB20_1:
	movq	-40(%rbp), %rsi                 ## 8-byte Reload
	movq	-48(%rbp), %rdi                 ## 8-byte Reload
	addq	$8, %rsi
	callq	__ZNSt3__114basic_iostreamIcNS_11char_traitsIcEEED2Ev
	addq	$48, %rsp
	popq	%rbp
	retq
LBB20_2:
Ltmp114:
	movq	-48(%rbp), %rdi                 ## 8-byte Reload
	movq	-40(%rbp), %rsi                 ## 8-byte Reload
	movq	%rdx, %rcx
	movq	%rax, %r8
                                        ## kill: def $ecx killed $ecx killed $rcx
	movq	%r8, -24(%rbp)
	movl	%ecx, -28(%rbp)
	addq	$8, %rsi
Ltmp115:
	callq	__ZNSt3__114basic_iostreamIcNS_11char_traitsIcEEED2Ev
Ltmp116:
	jmp	LBB20_3
LBB20_3:
	jmp	LBB20_4
LBB20_4:
	movq	-24(%rbp), %rdi
	callq	__Unwind_Resume
LBB20_5:
Ltmp117:
	movq	%rax, %rdi
	callq	___clang_call_terminate
Lfunc_end4:
	.cfi_endproc
	.section	__TEXT,__gcc_except_tab
	.p2align	2
GCC_except_table20:
Lexception4:
	.byte	255                             ## @LPStart Encoding = omit
	.byte	155                             ## @TType Encoding = indirect pcrel sdata4
	.uleb128 Lttbase4-Lttbaseref4
Lttbaseref4:
	.byte	1                               ## Call site Encoding = uleb128
	.uleb128 Lcst_end4-Lcst_begin4
Lcst_begin4:
	.uleb128 Ltmp112-Lfunc_begin4           ## >> Call Site 1 <<
	.uleb128 Ltmp113-Ltmp112                ##   Call between Ltmp112 and Ltmp113
	.uleb128 Ltmp114-Lfunc_begin4           ##     jumps to Ltmp114
	.byte	0                               ##   On action: cleanup
	.uleb128 Ltmp113-Lfunc_begin4           ## >> Call Site 2 <<
	.uleb128 Ltmp115-Ltmp113                ##   Call between Ltmp113 and Ltmp115
	.byte	0                               ##     has no landing pad
	.byte	0                               ##   On action: cleanup
	.uleb128 Ltmp115-Lfunc_begin4           ## >> Call Site 3 <<
	.uleb128 Ltmp116-Ltmp115                ##   Call between Ltmp115 and Ltmp116
	.uleb128 Ltmp117-Lfunc_begin4           ##     jumps to Ltmp117
	.byte	1                               ##   On action: 1
	.uleb128 Ltmp116-Lfunc_begin4           ## >> Call Site 4 <<
	.uleb128 Lfunc_end4-Ltmp116             ##   Call between Ltmp116 and Lfunc_end4
	.byte	0                               ##     has no landing pad
	.byte	0                               ##   On action: cleanup
Lcst_end4:
	.byte	1                               ## >> Action Record 1 <<
                                        ##   Catch TypeInfo 1
	.byte	0                               ##   No further actions
	.p2align	2
                                        ## >> Catch TypeInfos <<
	.long	0                               ## TypeInfo 1
Lttbase4:
	.p2align	2
                                        ## -- End function
	.section	__TEXT,__text,regular,pure_instructions
	.globl	__ZThn16_NSt3__118basic_stringstreamIcNS_11char_traitsIcEENS_9allocatorIcEEED1Ev ## -- Begin function _ZThn16_NSt3__118basic_stringstreamIcNS_11char_traitsIcEENS_9allocatorIcEEED1Ev
	.weak_def_can_be_hidden	__ZThn16_NSt3__118basic_stringstreamIcNS_11char_traitsIcEENS_9allocatorIcEEED1Ev
	.p2align	4, 0x90
__ZThn16_NSt3__118basic_stringstreamIcNS_11char_traitsIcEENS_9allocatorIcEEED1Ev: ## @_ZThn16_NSt3__118basic_stringstreamIcNS_11char_traitsIcEENS_9allocatorIcEEED1Ev
	.cfi_startproc
## %bb.0:
	pushq	%rbp
	.cfi_def_cfa_offset 16
	.cfi_offset %rbp, -16
	movq	%rsp, %rbp
	.cfi_def_cfa_register %rbp
	movq	%rdi, -8(%rbp)
	movq	-8(%rbp), %rdi
	addq	$-16, %rdi
	popq	%rbp
	jmp	__ZNSt3__118basic_stringstreamIcNS_11char_traitsIcEENS_9allocatorIcEEED1Ev ## TAILCALL
	.cfi_endproc
                                        ## -- End function
	.globl	__ZTv0_n24_NSt3__118basic_stringstreamIcNS_11char_traitsIcEENS_9allocatorIcEEED1Ev ## -- Begin function _ZTv0_n24_NSt3__118basic_stringstreamIcNS_11char_traitsIcEENS_9allocatorIcEEED1Ev
	.weak_def_can_be_hidden	__ZTv0_n24_NSt3__118basic_stringstreamIcNS_11char_traitsIcEENS_9allocatorIcEEED1Ev
	.p2align	4, 0x90
__ZTv0_n24_NSt3__118basic_stringstreamIcNS_11char_traitsIcEENS_9allocatorIcEEED1Ev: ## @_ZTv0_n24_NSt3__118basic_stringstreamIcNS_11char_traitsIcEENS_9allocatorIcEEED1Ev
	.cfi_startproc
## %bb.0:
	pushq	%rbp
	.cfi_def_cfa_offset 16
	.cfi_offset %rbp, -16
	movq	%rsp, %rbp
	.cfi_def_cfa_register %rbp
	movq	%rdi, -8(%rbp)
	movq	-8(%rbp), %rdi
	movq	(%rdi), %rax
	movq	-24(%rax), %rax
	addq	%rax, %rdi
	popq	%rbp
	jmp	__ZNSt3__118basic_stringstreamIcNS_11char_traitsIcEENS_9allocatorIcEEED1Ev ## TAILCALL
	.cfi_endproc
                                        ## -- End function
	.globl	__ZNSt3__118basic_stringstreamIcNS_11char_traitsIcEENS_9allocatorIcEEED0Ev ## -- Begin function _ZNSt3__118basic_stringstreamIcNS_11char_traitsIcEENS_9allocatorIcEEED0Ev
	.weak_def_can_be_hidden	__ZNSt3__118basic_stringstreamIcNS_11char_traitsIcEENS_9allocatorIcEEED0Ev
	.p2align	4, 0x90
__ZNSt3__118basic_stringstreamIcNS_11char_traitsIcEENS_9allocatorIcEEED0Ev: ## @_ZNSt3__118basic_stringstreamIcNS_11char_traitsIcEENS_9allocatorIcEEED0Ev
Lfunc_begin5:
	.cfi_startproc
	.cfi_personality 155, ___gxx_personality_v0
	.cfi_lsda 16, Lexception5
## %bb.0:
	pushq	%rbp
	.cfi_def_cfa_offset 16
	.cfi_offset %rbp, -16
	movq	%rsp, %rbp
	.cfi_def_cfa_register %rbp
	subq	$32, %rsp
	movq	%rdi, -8(%rbp)
	movq	-8(%rbp), %rdi
	movq	%rdi, -32(%rbp)                 ## 8-byte Spill
Ltmp118:
	callq	__ZNSt3__118basic_stringstreamIcNS_11char_traitsIcEENS_9allocatorIcEEED1Ev
Ltmp119:
	jmp	LBB23_1
LBB23_1:
	movq	-32(%rbp), %rdi                 ## 8-byte Reload
	callq	__ZdlPv
	addq	$32, %rsp
	popq	%rbp
	retq
LBB23_2:
Ltmp120:
	movq	-32(%rbp), %rdi                 ## 8-byte Reload
	movq	%rax, %rcx
	movl	%edx, %eax
	movq	%rcx, -16(%rbp)
	movl	%eax, -20(%rbp)
	callq	__ZdlPv
## %bb.3:
	movq	-16(%rbp), %rdi
	callq	__Unwind_Resume
Lfunc_end5:
	.cfi_endproc
	.section	__TEXT,__gcc_except_tab
	.p2align	2
GCC_except_table23:
Lexception5:
	.byte	255                             ## @LPStart Encoding = omit
	.byte	255                             ## @TType Encoding = omit
	.byte	1                               ## Call site Encoding = uleb128
	.uleb128 Lcst_end5-Lcst_begin5
Lcst_begin5:
	.uleb128 Ltmp118-Lfunc_begin5           ## >> Call Site 1 <<
	.uleb128 Ltmp119-Ltmp118                ##   Call between Ltmp118 and Ltmp119
	.uleb128 Ltmp120-Lfunc_begin5           ##     jumps to Ltmp120
	.byte	0                               ##   On action: cleanup
	.uleb128 Ltmp119-Lfunc_begin5           ## >> Call Site 2 <<
	.uleb128 Lfunc_end5-Ltmp119             ##   Call between Ltmp119 and Lfunc_end5
	.byte	0                               ##     has no landing pad
	.byte	0                               ##   On action: cleanup
Lcst_end5:
	.p2align	2
                                        ## -- End function
	.section	__TEXT,__text,regular,pure_instructions
	.globl	__ZThn16_NSt3__118basic_stringstreamIcNS_11char_traitsIcEENS_9allocatorIcEEED0Ev ## -- Begin function _ZThn16_NSt3__118basic_stringstreamIcNS_11char_traitsIcEENS_9allocatorIcEEED0Ev
	.weak_def_can_be_hidden	__ZThn16_NSt3__118basic_stringstreamIcNS_11char_traitsIcEENS_9allocatorIcEEED0Ev
	.p2align	4, 0x90
__ZThn16_NSt3__118basic_stringstreamIcNS_11char_traitsIcEENS_9allocatorIcEEED0Ev: ## @_ZThn16_NSt3__118basic_stringstreamIcNS_11char_traitsIcEENS_9allocatorIcEEED0Ev
	.cfi_startproc
## %bb.0:
	pushq	%rbp
	.cfi_def_cfa_offset 16
	.cfi_offset %rbp, -16
	movq	%rsp, %rbp
	.cfi_def_cfa_register %rbp
	movq	%rdi, -8(%rbp)
	movq	-8(%rbp), %rdi
	addq	$-16, %rdi
	popq	%rbp
	jmp	__ZNSt3__118basic_stringstreamIcNS_11char_traitsIcEENS_9allocatorIcEEED0Ev ## TAILCALL
	.cfi_endproc
                                        ## -- End function
	.globl	__ZTv0_n24_NSt3__118basic_stringstreamIcNS_11char_traitsIcEENS_9allocatorIcEEED0Ev ## -- Begin function _ZTv0_n24_NSt3__118basic_stringstreamIcNS_11char_traitsIcEENS_9allocatorIcEEED0Ev
	.weak_def_can_be_hidden	__ZTv0_n24_NSt3__118basic_stringstreamIcNS_11char_traitsIcEENS_9allocatorIcEEED0Ev
	.p2align	4, 0x90
__ZTv0_n24_NSt3__118basic_stringstreamIcNS_11char_traitsIcEENS_9allocatorIcEEED0Ev: ## @_ZTv0_n24_NSt3__118basic_stringstreamIcNS_11char_traitsIcEENS_9allocatorIcEEED0Ev
	.cfi_startproc
## %bb.0:
	pushq	%rbp
	.cfi_def_cfa_offset 16
	.cfi_offset %rbp, -16
	movq	%rsp, %rbp
	.cfi_def_cfa_register %rbp
	movq	%rdi, -8(%rbp)
	movq	-8(%rbp), %rdi
	movq	(%rdi), %rax
	movq	-24(%rax), %rax
	addq	%rax, %rdi
	popq	%rbp
	jmp	__ZNSt3__118basic_stringstreamIcNS_11char_traitsIcEENS_9allocatorIcEEED0Ev ## TAILCALL
	.cfi_endproc
                                        ## -- End function
	.globl	__ZNSt3__115basic_stringbufIcNS_11char_traitsIcEENS_9allocatorIcEEED1Ev ## -- Begin function _ZNSt3__115basic_stringbufIcNS_11char_traitsIcEENS_9allocatorIcEEED1Ev
	.weak_def_can_be_hidden	__ZNSt3__115basic_stringbufIcNS_11char_traitsIcEENS_9allocatorIcEEED1Ev
	.p2align	4, 0x90
__ZNSt3__115basic_stringbufIcNS_11char_traitsIcEENS_9allocatorIcEEED1Ev: ## @_ZNSt3__115basic_stringbufIcNS_11char_traitsIcEENS_9allocatorIcEEED1Ev
	.cfi_startproc
## %bb.0:
	pushq	%rbp
	.cfi_def_cfa_offset 16
	.cfi_offset %rbp, -16
	movq	%rsp, %rbp
	.cfi_def_cfa_register %rbp
	subq	$16, %rsp
	movq	%rdi, -8(%rbp)
	movq	-8(%rbp), %rdi
	callq	__ZNSt3__115basic_stringbufIcNS_11char_traitsIcEENS_9allocatorIcEEED2Ev
	addq	$16, %rsp
	popq	%rbp
	retq
	.cfi_endproc
                                        ## -- End function
	.globl	__ZNSt3__115basic_stringbufIcNS_11char_traitsIcEENS_9allocatorIcEEED2Ev ## -- Begin function _ZNSt3__115basic_stringbufIcNS_11char_traitsIcEENS_9allocatorIcEEED2Ev
	.weak_def_can_be_hidden	__ZNSt3__115basic_stringbufIcNS_11char_traitsIcEENS_9allocatorIcEEED2Ev
	.p2align	4, 0x90
__ZNSt3__115basic_stringbufIcNS_11char_traitsIcEENS_9allocatorIcEEED2Ev: ## @_ZNSt3__115basic_stringbufIcNS_11char_traitsIcEENS_9allocatorIcEEED2Ev
Lfunc_begin6:
	.cfi_startproc
	.cfi_personality 155, ___gxx_personality_v0
	.cfi_lsda 16, Lexception6
## %bb.0:
	pushq	%rbp
	.cfi_def_cfa_offset 16
	.cfi_offset %rbp, -16
	movq	%rsp, %rbp
	.cfi_def_cfa_register %rbp
	subq	$32, %rsp
	movq	%rdi, -8(%rbp)
	movq	-8(%rbp), %rdi
	movq	%rdi, -32(%rbp)                 ## 8-byte Spill
	movq	__ZTVNSt3__115basic_stringbufIcNS_11char_traitsIcEENS_9allocatorIcEEEE@GOTPCREL(%rip), %rcx
	addq	$16, %rcx
	movq	%rcx, (%rdi)
	addq	$64, %rdi
Ltmp121:
	callq	__ZNSt3__112basic_stringIcNS_11char_traitsIcEENS_9allocatorIcEEED1Ev
Ltmp122:
	jmp	LBB27_1
LBB27_1:
	movq	-32(%rbp), %rdi                 ## 8-byte Reload
	callq	__ZNSt3__115basic_streambufIcNS_11char_traitsIcEEED2Ev
	addq	$32, %rsp
	popq	%rbp
	retq
LBB27_2:
Ltmp123:
	movq	-32(%rbp), %rdi                 ## 8-byte Reload
	movq	%rdx, %rcx
	movq	%rax, %rsi
                                        ## kill: def $ecx killed $ecx killed $rcx
	movq	%rsi, -16(%rbp)
	movl	%ecx, -20(%rbp)
Ltmp124:
	callq	__ZNSt3__115basic_streambufIcNS_11char_traitsIcEEED2Ev
Ltmp125:
	jmp	LBB27_3
LBB27_3:
	jmp	LBB27_4
LBB27_4:
	movq	-16(%rbp), %rdi
	callq	__Unwind_Resume
LBB27_5:
Ltmp126:
	movq	%rax, %rdi
	callq	___clang_call_terminate
Lfunc_end6:
	.cfi_endproc
	.section	__TEXT,__gcc_except_tab
	.p2align	2
GCC_except_table27:
Lexception6:
	.byte	255                             ## @LPStart Encoding = omit
	.byte	155                             ## @TType Encoding = indirect pcrel sdata4
	.uleb128 Lttbase5-Lttbaseref5
Lttbaseref5:
	.byte	1                               ## Call site Encoding = uleb128
	.uleb128 Lcst_end6-Lcst_begin6
Lcst_begin6:
	.uleb128 Ltmp121-Lfunc_begin6           ## >> Call Site 1 <<
	.uleb128 Ltmp122-Ltmp121                ##   Call between Ltmp121 and Ltmp122
	.uleb128 Ltmp123-Lfunc_begin6           ##     jumps to Ltmp123
	.byte	0                               ##   On action: cleanup
	.uleb128 Ltmp122-Lfunc_begin6           ## >> Call Site 2 <<
	.uleb128 Ltmp124-Ltmp122                ##   Call between Ltmp122 and Ltmp124
	.byte	0                               ##     has no landing pad
	.byte	0                               ##   On action: cleanup
	.uleb128 Ltmp124-Lfunc_begin6           ## >> Call Site 3 <<
	.uleb128 Ltmp125-Ltmp124                ##   Call between Ltmp124 and Ltmp125
	.uleb128 Ltmp126-Lfunc_begin6           ##     jumps to Ltmp126
	.byte	1                               ##   On action: 1
	.uleb128 Ltmp125-Lfunc_begin6           ## >> Call Site 4 <<
	.uleb128 Lfunc_end6-Ltmp125             ##   Call between Ltmp125 and Lfunc_end6
	.byte	0                               ##     has no landing pad
	.byte	0                               ##   On action: cleanup
Lcst_end6:
	.byte	1                               ## >> Action Record 1 <<
                                        ##   Catch TypeInfo 1
	.byte	0                               ##   No further actions
	.p2align	2
                                        ## >> Catch TypeInfos <<
	.long	0                               ## TypeInfo 1
Lttbase5:
	.p2align	2
                                        ## -- End function
	.section	__TEXT,__text,regular,pure_instructions
	.globl	__ZNSt3__115basic_stringbufIcNS_11char_traitsIcEENS_9allocatorIcEEED0Ev ## -- Begin function _ZNSt3__115basic_stringbufIcNS_11char_traitsIcEENS_9allocatorIcEEED0Ev
	.weak_def_can_be_hidden	__ZNSt3__115basic_stringbufIcNS_11char_traitsIcEENS_9allocatorIcEEED0Ev
	.p2align	4, 0x90
__ZNSt3__115basic_stringbufIcNS_11char_traitsIcEENS_9allocatorIcEEED0Ev: ## @_ZNSt3__115basic_stringbufIcNS_11char_traitsIcEENS_9allocatorIcEEED0Ev
Lfunc_begin7:
	.cfi_startproc
	.cfi_personality 155, ___gxx_personality_v0
	.cfi_lsda 16, Lexception7
## %bb.0:
	pushq	%rbp
	.cfi_def_cfa_offset 16
	.cfi_offset %rbp, -16
	movq	%rsp, %rbp
	.cfi_def_cfa_register %rbp
	subq	$32, %rsp
	movq	%rdi, -8(%rbp)
	movq	-8(%rbp), %rdi
	movq	%rdi, -32(%rbp)                 ## 8-byte Spill
Ltmp127:
	callq	__ZNSt3__115basic_stringbufIcNS_11char_traitsIcEENS_9allocatorIcEEED1Ev
Ltmp128:
	jmp	LBB28_1
LBB28_1:
	movq	-32(%rbp), %rdi                 ## 8-byte Reload
	callq	__ZdlPv
	addq	$32, %rsp
	popq	%rbp
	retq
LBB28_2:
Ltmp129:
	movq	-32(%rbp), %rdi                 ## 8-byte Reload
	movq	%rax, %rcx
	movl	%edx, %eax
	movq	%rcx, -16(%rbp)
	movl	%eax, -20(%rbp)
	callq	__ZdlPv
## %bb.3:
	movq	-16(%rbp), %rdi
	callq	__Unwind_Resume
Lfunc_end7:
	.cfi_endproc
	.section	__TEXT,__gcc_except_tab
	.p2align	2
GCC_except_table28:
Lexception7:
	.byte	255                             ## @LPStart Encoding = omit
	.byte	255                             ## @TType Encoding = omit
	.byte	1                               ## Call site Encoding = uleb128
	.uleb128 Lcst_end7-Lcst_begin7
Lcst_begin7:
	.uleb128 Ltmp127-Lfunc_begin7           ## >> Call Site 1 <<
	.uleb128 Ltmp128-Ltmp127                ##   Call between Ltmp127 and Ltmp128
	.uleb128 Ltmp129-Lfunc_begin7           ##     jumps to Ltmp129
	.byte	0                               ##   On action: cleanup
	.uleb128 Ltmp128-Lfunc_begin7           ## >> Call Site 2 <<
	.uleb128 Lfunc_end7-Ltmp128             ##   Call between Ltmp128 and Lfunc_end7
	.byte	0                               ##     has no landing pad
	.byte	0                               ##   On action: cleanup
Lcst_end7:
	.p2align	2
                                        ## -- End function
	.section	__TEXT,__text,regular,pure_instructions
	.globl	__ZNSt3__115basic_stringbufIcNS_11char_traitsIcEENS_9allocatorIcEEE7seekoffExNS_8ios_base7seekdirEj ## -- Begin function _ZNSt3__115basic_stringbufIcNS_11char_traitsIcEENS_9allocatorIcEEE7seekoffExNS_8ios_base7seekdirEj
	.weak_def_can_be_hidden	__ZNSt3__115basic_stringbufIcNS_11char_traitsIcEENS_9allocatorIcEEE7seekoffExNS_8ios_base7seekdirEj
	.p2align	4, 0x90
__ZNSt3__115basic_stringbufIcNS_11char_traitsIcEENS_9allocatorIcEEE7seekoffExNS_8ios_base7seekdirEj: ## @_ZNSt3__115basic_stringbufIcNS_11char_traitsIcEENS_9allocatorIcEEE7seekoffExNS_8ios_base7seekdirEj
	.cfi_startproc
## %bb.0:
	pushq	%rbp
	.cfi_def_cfa_offset 16
	.cfi_offset %rbp, -16
	movq	%rsp, %rbp
	.cfi_def_cfa_register %rbp
	subq	$208, %rsp
	movq	%rdi, -96(%rbp)                 ## 8-byte Spill
	movq	%rdi, -88(%rbp)                 ## 8-byte Spill
	movq	%rsi, -8(%rbp)
	movq	%rdx, -16(%rbp)
	movl	%ecx, -20(%rbp)
	movl	%r8d, -24(%rbp)
	movq	-8(%rbp), %rdi
	movq	%rdi, -80(%rbp)                 ## 8-byte Spill
	movq	88(%rdi), %rax
	movq	%rax, -72(%rbp)                 ## 8-byte Spill
	callq	__ZNKSt3__115basic_streambufIcNS_11char_traitsIcEEE4pptrEv
	movq	%rax, %rcx
	movq	-72(%rbp), %rax                 ## 8-byte Reload
	cmpq	%rcx, %rax
	jae	LBB29_2
## %bb.1:
	movq	-80(%rbp), %rdi                 ## 8-byte Reload
	callq	__ZNKSt3__115basic_streambufIcNS_11char_traitsIcEEE4pptrEv
	movq	%rax, %rcx
	movq	-80(%rbp), %rax                 ## 8-byte Reload
	movq	%rcx, 88(%rax)
LBB29_2:
	movl	-24(%rbp), %eax
	andl	$24, %eax
	cmpl	$0, %eax
	jne	LBB29_4
## %bb.3:
	movq	-96(%rbp), %rdi                 ## 8-byte Reload
	movq	$-1, %rsi
	callq	__ZNSt3__14fposI11__mbstate_tEC1Ex
	jmp	LBB29_36
LBB29_4:
	movl	-24(%rbp), %eax
	andl	$24, %eax
	cmpl	$24, %eax
	jne	LBB29_7
## %bb.5:
	cmpl	$1, -20(%rbp)
	jne	LBB29_7
## %bb.6:
	movq	-96(%rbp), %rdi                 ## 8-byte Reload
	movq	$-1, %rsi
	callq	__ZNSt3__14fposI11__mbstate_tEC1Ex
	jmp	LBB29_36
LBB29_7:
	movq	-80(%rbp), %rax                 ## 8-byte Reload
	movq	88(%rax), %rax
	movq	%rax, -104(%rbp)                ## 8-byte Spill
	callq	__ZNSt3__1L15__get_nullptr_tEv
	movq	%rax, -40(%rbp)
	leaq	-40(%rbp), %rdi
	callq	__ZNKSt3__19nullptr_tcvPT_IcEEv
	movq	%rax, %rcx
	movq	-104(%rbp), %rax                ## 8-byte Reload
	cmpq	%rcx, %rax
	jne	LBB29_9
## %bb.8:
	xorl	%eax, %eax
                                        ## kill: def $rax killed $eax
	movq	%rax, -112(%rbp)                ## 8-byte Spill
	jmp	LBB29_10
LBB29_9:
	movq	-80(%rbp), %rdi                 ## 8-byte Reload
	movq	88(%rdi), %rax
	movq	%rax, -120(%rbp)                ## 8-byte Spill
	addq	$64, %rdi
	callq	__ZNKSt3__112basic_stringIcNS_11char_traitsIcEENS_9allocatorIcEEE4dataEv
	movq	%rax, %rcx
	movq	-120(%rbp), %rax                ## 8-byte Reload
	subq	%rcx, %rax
	movq	%rax, -112(%rbp)                ## 8-byte Spill
LBB29_10:
	movq	-112(%rbp), %rax                ## 8-byte Reload
	movq	%rax, -32(%rbp)
	movl	-20(%rbp), %eax
	movl	%eax, -124(%rbp)                ## 4-byte Spill
	testl	%eax, %eax
	je	LBB29_11
	jmp	LBB29_37
LBB29_37:
	movl	-124(%rbp), %eax                ## 4-byte Reload
	subl	$1, %eax
	je	LBB29_12
	jmp	LBB29_38
LBB29_38:
	movl	-124(%rbp), %eax                ## 4-byte Reload
	subl	$2, %eax
	je	LBB29_16
	jmp	LBB29_17
LBB29_11:
	movq	$0, -48(%rbp)
	jmp	LBB29_18
LBB29_12:
	movl	-24(%rbp), %eax
	andl	$8, %eax
	cmpl	$0, %eax
	je	LBB29_14
## %bb.13:
	movq	-80(%rbp), %rdi                 ## 8-byte Reload
	callq	__ZNKSt3__115basic_streambufIcNS_11char_traitsIcEEE4gptrEv
	movq	-80(%rbp), %rdi                 ## 8-byte Reload
	movq	%rax, -136(%rbp)                ## 8-byte Spill
	callq	__ZNKSt3__115basic_streambufIcNS_11char_traitsIcEEE5ebackEv
	movq	%rax, %rcx
	movq	-136(%rbp), %rax                ## 8-byte Reload
	subq	%rcx, %rax
	movq	%rax, -48(%rbp)
	jmp	LBB29_15
LBB29_14:
	movq	-80(%rbp), %rdi                 ## 8-byte Reload
	callq	__ZNKSt3__115basic_streambufIcNS_11char_traitsIcEEE4pptrEv
	movq	-80(%rbp), %rdi                 ## 8-byte Reload
	movq	%rax, -144(%rbp)                ## 8-byte Spill
	callq	__ZNKSt3__115basic_streambufIcNS_11char_traitsIcEEE5pbaseEv
	movq	%rax, %rcx
	movq	-144(%rbp), %rax                ## 8-byte Reload
	subq	%rcx, %rax
	movq	%rax, -48(%rbp)
LBB29_15:
	jmp	LBB29_18
LBB29_16:
	movq	-32(%rbp), %rax
	movq	%rax, -48(%rbp)
	jmp	LBB29_18
LBB29_17:
	movq	-96(%rbp), %rdi                 ## 8-byte Reload
	movq	$-1, %rsi
	callq	__ZNSt3__14fposI11__mbstate_tEC1Ex
	jmp	LBB29_36
LBB29_18:
	movq	-16(%rbp), %rax
	addq	-48(%rbp), %rax
	movq	%rax, -48(%rbp)
	cmpq	$0, -48(%rbp)
	jl	LBB29_20
## %bb.19:
	movq	-32(%rbp), %rax
	cmpq	-48(%rbp), %rax
	jge	LBB29_21
LBB29_20:
	movq	-96(%rbp), %rdi                 ## 8-byte Reload
	movq	$-1, %rsi
	callq	__ZNSt3__14fposI11__mbstate_tEC1Ex
	jmp	LBB29_36
LBB29_21:
	cmpq	$0, -48(%rbp)
	je	LBB29_31
## %bb.22:
	xorl	%eax, %eax
                                        ## kill: def $al killed $al killed $eax
	movl	-24(%rbp), %ecx
	andl	$8, %ecx
	cmpl	$0, %ecx
	movb	%al, -145(%rbp)                 ## 1-byte Spill
	je	LBB29_24
## %bb.23:
	movq	-80(%rbp), %rdi                 ## 8-byte Reload
	callq	__ZNKSt3__115basic_streambufIcNS_11char_traitsIcEEE4gptrEv
	movq	%rax, -160(%rbp)                ## 8-byte Spill
	callq	__ZNSt3__1L15__get_nullptr_tEv
	movq	%rax, -56(%rbp)
	leaq	-56(%rbp), %rdi
	callq	__ZNKSt3__19nullptr_tcvPT_IcEEv
	movq	%rax, %rcx
	movq	-160(%rbp), %rax                ## 8-byte Reload
	cmpq	%rcx, %rax
	sete	%al
	movb	%al, -145(%rbp)                 ## 1-byte Spill
LBB29_24:
	movb	-145(%rbp), %al                 ## 1-byte Reload
	testb	$1, %al
	jne	LBB29_25
	jmp	LBB29_26
LBB29_25:
	movq	-96(%rbp), %rdi                 ## 8-byte Reload
	movq	$-1, %rsi
	callq	__ZNSt3__14fposI11__mbstate_tEC1Ex
	jmp	LBB29_36
LBB29_26:
	xorl	%eax, %eax
                                        ## kill: def $al killed $al killed $eax
	movl	-24(%rbp), %ecx
	andl	$16, %ecx
	cmpl	$0, %ecx
	movb	%al, -161(%rbp)                 ## 1-byte Spill
	je	LBB29_28
## %bb.27:
	movq	-80(%rbp), %rdi                 ## 8-byte Reload
	callq	__ZNKSt3__115basic_streambufIcNS_11char_traitsIcEEE4pptrEv
	movq	%rax, -176(%rbp)                ## 8-byte Spill
	callq	__ZNSt3__1L15__get_nullptr_tEv
	movq	%rax, -64(%rbp)
	leaq	-64(%rbp), %rdi
	callq	__ZNKSt3__19nullptr_tcvPT_IcEEv
	movq	%rax, %rcx
	movq	-176(%rbp), %rax                ## 8-byte Reload
	cmpq	%rcx, %rax
	sete	%al
	movb	%al, -161(%rbp)                 ## 1-byte Spill
LBB29_28:
	movb	-161(%rbp), %al                 ## 1-byte Reload
	testb	$1, %al
	jne	LBB29_29
	jmp	LBB29_30
LBB29_29:
	movq	-96(%rbp), %rdi                 ## 8-byte Reload
	movq	$-1, %rsi
	callq	__ZNSt3__14fposI11__mbstate_tEC1Ex
	jmp	LBB29_36
LBB29_30:
	jmp	LBB29_31
LBB29_31:
	movl	-24(%rbp), %eax
	andl	$8, %eax
	cmpl	$0, %eax
	je	LBB29_33
## %bb.32:
	movq	-80(%rbp), %rdi                 ## 8-byte Reload
	movq	%rdi, %rax
	movq	%rax, -192(%rbp)                ## 8-byte Spill
	callq	__ZNKSt3__115basic_streambufIcNS_11char_traitsIcEEE5ebackEv
	movq	-80(%rbp), %rdi                 ## 8-byte Reload
	movq	%rax, -184(%rbp)                ## 8-byte Spill
	callq	__ZNKSt3__115basic_streambufIcNS_11char_traitsIcEEE5ebackEv
	movq	-192(%rbp), %rdi                ## 8-byte Reload
	movq	-184(%rbp), %rsi                ## 8-byte Reload
	movq	%rax, %rdx
	movq	-80(%rbp), %rax                 ## 8-byte Reload
	addq	-48(%rbp), %rdx
	movq	88(%rax), %rcx
	callq	__ZNSt3__115basic_streambufIcNS_11char_traitsIcEEE4setgEPcS4_S4_
LBB29_33:
	movl	-24(%rbp), %eax
	andl	$16, %eax
	cmpl	$0, %eax
	je	LBB29_35
## %bb.34:
	movq	-80(%rbp), %rdi                 ## 8-byte Reload
	movq	%rdi, %rax
	movq	%rax, -208(%rbp)                ## 8-byte Spill
	callq	__ZNKSt3__115basic_streambufIcNS_11char_traitsIcEEE5pbaseEv
	movq	-80(%rbp), %rdi                 ## 8-byte Reload
	movq	%rax, -200(%rbp)                ## 8-byte Spill
	callq	__ZNKSt3__115basic_streambufIcNS_11char_traitsIcEEE5epptrEv
	movq	-208(%rbp), %rdi                ## 8-byte Reload
	movq	-200(%rbp), %rsi                ## 8-byte Reload
	movq	%rax, %rdx
	callq	__ZNSt3__115basic_streambufIcNS_11char_traitsIcEEE4setpEPcS4_
	movq	-80(%rbp), %rdi                 ## 8-byte Reload
	movq	-48(%rbp), %rax
	movl	%eax, %esi
	callq	__ZNSt3__115basic_streambufIcNS_11char_traitsIcEEE5pbumpEi
LBB29_35:
	movq	-96(%rbp), %rdi                 ## 8-byte Reload
	movq	-48(%rbp), %rsi
	callq	__ZNSt3__14fposI11__mbstate_tEC1Ex
LBB29_36:
	movq	-88(%rbp), %rax                 ## 8-byte Reload
	addq	$208, %rsp
	popq	%rbp
	retq
	.cfi_endproc
                                        ## -- End function
	.p2align	4, 0x90                         ## -- Begin function _ZNSt3__115basic_stringbufIcNS_11char_traitsIcEENS_9allocatorIcEEE7seekposENS_4fposI11__mbstate_tEEj
__ZNSt3__115basic_stringbufIcNS_11char_traitsIcEENS_9allocatorIcEEE7seekposENS_4fposI11__mbstate_tEEj: ## @_ZNSt3__115basic_stringbufIcNS_11char_traitsIcEENS_9allocatorIcEEE7seekposENS_4fposI11__mbstate_tEEj
	.cfi_startproc
## %bb.0:
	pushq	%rbp
	.cfi_def_cfa_offset 16
	.cfi_offset %rbp, -16
	movq	%rsp, %rbp
	.cfi_def_cfa_register %rbp
	subq	$48, %rsp
	movq	%rdi, -40(%rbp)                 ## 8-byte Spill
	movq	%rdi, -24(%rbp)                 ## 8-byte Spill
	leaq	16(%rbp), %rdi
	movq	%rsi, -8(%rbp)
	movl	%edx, -12(%rbp)
	movq	-8(%rbp), %rax
	movq	%rax, -32(%rbp)                 ## 8-byte Spill
	callq	__ZNKSt3__14fposI11__mbstate_tEcvxEv
	movq	-40(%rbp), %rdi                 ## 8-byte Reload
	movq	-32(%rbp), %rsi                 ## 8-byte Reload
	movq	%rax, %rdx
	xorl	%ecx, %ecx
	movl	-12(%rbp), %r8d
	movq	(%rsi), %rax
	callq	*32(%rax)
	movq	-24(%rbp), %rax                 ## 8-byte Reload
	addq	$48, %rsp
	popq	%rbp
	retq
	.cfi_endproc
                                        ## -- End function
	.globl	__ZNSt3__115basic_stringbufIcNS_11char_traitsIcEENS_9allocatorIcEEE9underflowEv ## -- Begin function _ZNSt3__115basic_stringbufIcNS_11char_traitsIcEENS_9allocatorIcEEE9underflowEv
	.weak_def_can_be_hidden	__ZNSt3__115basic_stringbufIcNS_11char_traitsIcEENS_9allocatorIcEEE9underflowEv
	.p2align	4, 0x90
__ZNSt3__115basic_stringbufIcNS_11char_traitsIcEENS_9allocatorIcEEE9underflowEv: ## @_ZNSt3__115basic_stringbufIcNS_11char_traitsIcEENS_9allocatorIcEEE9underflowEv
	.cfi_startproc
## %bb.0:
	pushq	%rbp
	.cfi_def_cfa_offset 16
	.cfi_offset %rbp, -16
	movq	%rsp, %rbp
	.cfi_def_cfa_register %rbp
	subq	$64, %rsp
	movq	%rdi, -16(%rbp)
	movq	-16(%rbp), %rdi
	movq	%rdi, -32(%rbp)                 ## 8-byte Spill
	movq	88(%rdi), %rax
	movq	%rax, -24(%rbp)                 ## 8-byte Spill
	callq	__ZNKSt3__115basic_streambufIcNS_11char_traitsIcEEE4pptrEv
	movq	%rax, %rcx
	movq	-24(%rbp), %rax                 ## 8-byte Reload
	cmpq	%rcx, %rax
	jae	LBB31_2
## %bb.1:
	movq	-32(%rbp), %rdi                 ## 8-byte Reload
	callq	__ZNKSt3__115basic_streambufIcNS_11char_traitsIcEEE4pptrEv
	movq	%rax, %rcx
	movq	-32(%rbp), %rax                 ## 8-byte Reload
	movq	%rcx, 88(%rax)
LBB31_2:
	movq	-32(%rbp), %rax                 ## 8-byte Reload
	movl	96(%rax), %eax
	andl	$8, %eax
	cmpl	$0, %eax
	je	LBB31_8
## %bb.3:
	movq	-32(%rbp), %rdi                 ## 8-byte Reload
	callq	__ZNKSt3__115basic_streambufIcNS_11char_traitsIcEEE5egptrEv
	movq	-32(%rbp), %rcx                 ## 8-byte Reload
	cmpq	88(%rcx), %rax
	jae	LBB31_5
## %bb.4:
	movq	-32(%rbp), %rdi                 ## 8-byte Reload
	movq	%rdi, %rax
	movq	%rax, -48(%rbp)                 ## 8-byte Spill
	callq	__ZNKSt3__115basic_streambufIcNS_11char_traitsIcEEE5ebackEv
	movq	-32(%rbp), %rdi                 ## 8-byte Reload
	movq	%rax, -40(%rbp)                 ## 8-byte Spill
	callq	__ZNKSt3__115basic_streambufIcNS_11char_traitsIcEEE4gptrEv
	movq	-48(%rbp), %rdi                 ## 8-byte Reload
	movq	-40(%rbp), %rsi                 ## 8-byte Reload
	movq	%rax, %rdx
	movq	-32(%rbp), %rax                 ## 8-byte Reload
	movq	88(%rax), %rcx
	callq	__ZNSt3__115basic_streambufIcNS_11char_traitsIcEEE4setgEPcS4_S4_
LBB31_5:
	movq	-32(%rbp), %rdi                 ## 8-byte Reload
	callq	__ZNKSt3__115basic_streambufIcNS_11char_traitsIcEEE4gptrEv
	movq	-32(%rbp), %rdi                 ## 8-byte Reload
	movq	%rax, -56(%rbp)                 ## 8-byte Spill
	callq	__ZNKSt3__115basic_streambufIcNS_11char_traitsIcEEE5egptrEv
	movq	%rax, %rcx
	movq	-56(%rbp), %rax                 ## 8-byte Reload
	cmpq	%rcx, %rax
	jae	LBB31_7
## %bb.6:
	movq	-32(%rbp), %rdi                 ## 8-byte Reload
	callq	__ZNKSt3__115basic_streambufIcNS_11char_traitsIcEEE4gptrEv
	movsbl	(%rax), %edi
	callq	__ZNSt3__111char_traitsIcE11to_int_typeEc
	movl	%eax, -4(%rbp)
	jmp	LBB31_9
LBB31_7:
	jmp	LBB31_8
LBB31_8:
	callq	__ZNSt3__111char_traitsIcE3eofEv
	movl	%eax, -4(%rbp)
LBB31_9:
	movl	-4(%rbp), %eax
	addq	$64, %rsp
	popq	%rbp
	retq
	.cfi_endproc
                                        ## -- End function
	.globl	__ZNSt3__115basic_stringbufIcNS_11char_traitsIcEENS_9allocatorIcEEE9pbackfailEi ## -- Begin function _ZNSt3__115basic_stringbufIcNS_11char_traitsIcEENS_9allocatorIcEEE9pbackfailEi
	.weak_def_can_be_hidden	__ZNSt3__115basic_stringbufIcNS_11char_traitsIcEENS_9allocatorIcEEE9pbackfailEi
	.p2align	4, 0x90
__ZNSt3__115basic_stringbufIcNS_11char_traitsIcEENS_9allocatorIcEEE9pbackfailEi: ## @_ZNSt3__115basic_stringbufIcNS_11char_traitsIcEENS_9allocatorIcEEE9pbackfailEi
	.cfi_startproc
## %bb.0:
	pushq	%rbp
	.cfi_def_cfa_offset 16
	.cfi_offset %rbp, -16
	movq	%rsp, %rbp
	.cfi_def_cfa_register %rbp
	subq	$96, %rsp
	movq	%rdi, -16(%rbp)
	movl	%esi, -20(%rbp)
	movq	-16(%rbp), %rdi
	movq	%rdi, -40(%rbp)                 ## 8-byte Spill
	movq	88(%rdi), %rax
	movq	%rax, -32(%rbp)                 ## 8-byte Spill
	callq	__ZNKSt3__115basic_streambufIcNS_11char_traitsIcEEE4pptrEv
	movq	%rax, %rcx
	movq	-32(%rbp), %rax                 ## 8-byte Reload
	cmpq	%rcx, %rax
	jae	LBB32_2
## %bb.1:
	movq	-40(%rbp), %rdi                 ## 8-byte Reload
	callq	__ZNKSt3__115basic_streambufIcNS_11char_traitsIcEEE4pptrEv
	movq	%rax, %rcx
	movq	-40(%rbp), %rax                 ## 8-byte Reload
	movq	%rcx, 88(%rax)
LBB32_2:
	movq	-40(%rbp), %rdi                 ## 8-byte Reload
	callq	__ZNKSt3__115basic_streambufIcNS_11char_traitsIcEEE5ebackEv
	movq	-40(%rbp), %rdi                 ## 8-byte Reload
	movq	%rax, -48(%rbp)                 ## 8-byte Spill
	callq	__ZNKSt3__115basic_streambufIcNS_11char_traitsIcEEE4gptrEv
	movq	%rax, %rcx
	movq	-48(%rbp), %rax                 ## 8-byte Reload
	cmpq	%rcx, %rax
	jae	LBB32_9
## %bb.3:
	movl	-20(%rbp), %eax
	movl	%eax, -52(%rbp)                 ## 4-byte Spill
	callq	__ZNSt3__111char_traitsIcE3eofEv
	movl	-52(%rbp), %edi                 ## 4-byte Reload
	movl	%eax, %esi
	callq	__ZNSt3__111char_traitsIcE11eq_int_typeEii
	testb	$1, %al
	jne	LBB32_4
	jmp	LBB32_5
LBB32_4:
	movq	-40(%rbp), %rdi                 ## 8-byte Reload
	movq	%rdi, %rax
	movq	%rax, -72(%rbp)                 ## 8-byte Spill
	callq	__ZNKSt3__115basic_streambufIcNS_11char_traitsIcEEE5ebackEv
	movq	-40(%rbp), %rdi                 ## 8-byte Reload
	movq	%rax, -64(%rbp)                 ## 8-byte Spill
	callq	__ZNKSt3__115basic_streambufIcNS_11char_traitsIcEEE4gptrEv
	movq	-72(%rbp), %rdi                 ## 8-byte Reload
	movq	-64(%rbp), %rsi                 ## 8-byte Reload
	movq	%rax, %rdx
	movq	-40(%rbp), %rax                 ## 8-byte Reload
	addq	$-1, %rdx
	movq	88(%rax), %rcx
	callq	__ZNSt3__115basic_streambufIcNS_11char_traitsIcEEE4setgEPcS4_S4_
	movl	-20(%rbp), %edi
	callq	__ZNSt3__111char_traitsIcE7not_eofEi
	movl	%eax, -4(%rbp)
	jmp	LBB32_10
LBB32_5:
	movq	-40(%rbp), %rax                 ## 8-byte Reload
	movl	96(%rax), %eax
	andl	$16, %eax
	cmpl	$0, %eax
	jne	LBB32_7
## %bb.6:
	movl	-20(%rbp), %edi
	callq	__ZNSt3__111char_traitsIcE12to_char_typeEi
	movq	-40(%rbp), %rdi                 ## 8-byte Reload
	movb	%al, -73(%rbp)                  ## 1-byte Spill
	callq	__ZNKSt3__115basic_streambufIcNS_11char_traitsIcEEE4gptrEv
	movb	-73(%rbp), %cl                  ## 1-byte Reload
	movsbl	%cl, %edi
	movsbl	-1(%rax), %esi
	callq	__ZNSt3__111char_traitsIcE2eqEcc
	testb	$1, %al
	jne	LBB32_7
	jmp	LBB32_8
LBB32_7:
	movq	-40(%rbp), %rdi                 ## 8-byte Reload
	movq	%rdi, %rax
	movq	%rax, -96(%rbp)                 ## 8-byte Spill
	callq	__ZNKSt3__115basic_streambufIcNS_11char_traitsIcEEE5ebackEv
	movq	-40(%rbp), %rdi                 ## 8-byte Reload
	movq	%rax, -88(%rbp)                 ## 8-byte Spill
	callq	__ZNKSt3__115basic_streambufIcNS_11char_traitsIcEEE4gptrEv
	movq	-96(%rbp), %rdi                 ## 8-byte Reload
	movq	-88(%rbp), %rsi                 ## 8-byte Reload
	movq	%rax, %rdx
	movq	-40(%rbp), %rax                 ## 8-byte Reload
	addq	$-1, %rdx
	movq	88(%rax), %rcx
	callq	__ZNSt3__115basic_streambufIcNS_11char_traitsIcEEE4setgEPcS4_S4_
	movl	-20(%rbp), %edi
	callq	__ZNSt3__111char_traitsIcE12to_char_typeEi
	movq	-40(%rbp), %rdi                 ## 8-byte Reload
	movb	%al, -74(%rbp)                  ## 1-byte Spill
	callq	__ZNKSt3__115basic_streambufIcNS_11char_traitsIcEEE4gptrEv
	movb	-74(%rbp), %cl                  ## 1-byte Reload
	movb	%cl, (%rax)
	movl	-20(%rbp), %eax
	movl	%eax, -4(%rbp)
	jmp	LBB32_10
LBB32_8:
	jmp	LBB32_9
LBB32_9:
	callq	__ZNSt3__111char_traitsIcE3eofEv
	movl	%eax, -4(%rbp)
LBB32_10:
	movl	-4(%rbp), %eax
	addq	$96, %rsp
	popq	%rbp
	retq
	.cfi_endproc
                                        ## -- End function
	.globl	__ZNSt3__115basic_stringbufIcNS_11char_traitsIcEENS_9allocatorIcEEE8overflowEi ## -- Begin function _ZNSt3__115basic_stringbufIcNS_11char_traitsIcEENS_9allocatorIcEEE8overflowEi
	.weak_def_can_be_hidden	__ZNSt3__115basic_stringbufIcNS_11char_traitsIcEENS_9allocatorIcEEE8overflowEi
	.p2align	4, 0x90
__ZNSt3__115basic_stringbufIcNS_11char_traitsIcEENS_9allocatorIcEEE8overflowEi: ## @_ZNSt3__115basic_stringbufIcNS_11char_traitsIcEENS_9allocatorIcEEE8overflowEi
Lfunc_begin8:
	.cfi_startproc
	.cfi_personality 155, ___gxx_personality_v0
	.cfi_lsda 16, Lexception8
## %bb.0:
	pushq	%rbp
	.cfi_def_cfa_offset 16
	.cfi_offset %rbp, -16
	movq	%rsp, %rbp
	.cfi_def_cfa_register %rbp
	subq	$176, %rsp
	movq	%rdi, -16(%rbp)
	movl	%esi, -20(%rbp)
	movq	-16(%rbp), %rax
	movq	%rax, -104(%rbp)                ## 8-byte Spill
	movl	-20(%rbp), %eax
	movl	%eax, -92(%rbp)                 ## 4-byte Spill
	callq	__ZNSt3__111char_traitsIcE3eofEv
	movl	-92(%rbp), %edi                 ## 4-byte Reload
	movl	%eax, %esi
	callq	__ZNSt3__111char_traitsIcE11eq_int_typeEii
	testb	$1, %al
	jne	LBB33_14
## %bb.1:
	movq	-104(%rbp), %rdi                ## 8-byte Reload
	callq	__ZNKSt3__115basic_streambufIcNS_11char_traitsIcEEE4gptrEv
	movq	-104(%rbp), %rdi                ## 8-byte Reload
	movq	%rax, -120(%rbp)                ## 8-byte Spill
	callq	__ZNKSt3__115basic_streambufIcNS_11char_traitsIcEEE5ebackEv
	movq	-104(%rbp), %rdi                ## 8-byte Reload
	movq	%rax, %rcx
	movq	-120(%rbp), %rax                ## 8-byte Reload
	subq	%rcx, %rax
	movq	%rax, -32(%rbp)
	callq	__ZNKSt3__115basic_streambufIcNS_11char_traitsIcEEE4pptrEv
	movq	-104(%rbp), %rdi                ## 8-byte Reload
	movq	%rax, -112(%rbp)                ## 8-byte Spill
	callq	__ZNKSt3__115basic_streambufIcNS_11char_traitsIcEEE5epptrEv
	movq	%rax, %rcx
	movq	-112(%rbp), %rax                ## 8-byte Reload
	cmpq	%rcx, %rax
	jne	LBB33_11
## %bb.2:
	movq	-104(%rbp), %rax                ## 8-byte Reload
	movl	96(%rax), %eax
	andl	$16, %eax
	cmpl	$0, %eax
	jne	LBB33_4
## %bb.3:
	callq	__ZNSt3__111char_traitsIcE3eofEv
	movl	%eax, -4(%rbp)
	jmp	LBB33_15
LBB33_4:
	movq	-104(%rbp), %rdi                ## 8-byte Reload
	callq	__ZNKSt3__115basic_streambufIcNS_11char_traitsIcEEE4pptrEv
	movq	-104(%rbp), %rdi                ## 8-byte Reload
	movq	%rax, -136(%rbp)                ## 8-byte Spill
	callq	__ZNKSt3__115basic_streambufIcNS_11char_traitsIcEEE5pbaseEv
	movq	-104(%rbp), %rdi                ## 8-byte Reload
	movq	%rax, %rcx
	movq	-136(%rbp), %rax                ## 8-byte Reload
	subq	%rcx, %rax
	movq	%rax, -40(%rbp)
	movq	88(%rdi), %rax
	movq	%rax, -128(%rbp)                ## 8-byte Spill
	callq	__ZNKSt3__115basic_streambufIcNS_11char_traitsIcEEE5pbaseEv
	movq	-128(%rbp), %rcx                ## 8-byte Reload
	movq	-104(%rbp), %rdi                ## 8-byte Reload
	movq	%rax, %rsi
	subq	%rsi, %rcx
	movq	%rcx, -48(%rbp)
	addq	$64, %rdi
Ltmp130:
	xorl	%esi, %esi
	callq	__ZNSt3__112basic_stringIcNS_11char_traitsIcEENS_9allocatorIcEEE9push_backEc
Ltmp131:
	jmp	LBB33_5
LBB33_5:
	movq	-104(%rbp), %rdi                ## 8-byte Reload
	addq	$64, %rdi
	movq	%rdi, -144(%rbp)                ## 8-byte Spill
	callq	__ZNKSt3__112basic_stringIcNS_11char_traitsIcEENS_9allocatorIcEEE8capacityEv
	movq	-144(%rbp), %rdi                ## 8-byte Reload
	movq	%rax, %rsi
Ltmp132:
	callq	__ZNSt3__112basic_stringIcNS_11char_traitsIcEENS_9allocatorIcEEE6resizeEm
Ltmp133:
	jmp	LBB33_6
LBB33_6:
	movq	-104(%rbp), %rdi                ## 8-byte Reload
	addq	$64, %rdi
	movq	%rdi, -160(%rbp)                ## 8-byte Spill
	callq	__ZNKSt3__112basic_stringIcNS_11char_traitsIcEENS_9allocatorIcEEE4dataEv
	movq	-160(%rbp), %rdi                ## 8-byte Reload
	movq	%rax, -72(%rbp)
	movq	-72(%rbp), %rax
	movq	%rax, -152(%rbp)                ## 8-byte Spill
	callq	__ZNKSt3__112basic_stringIcNS_11char_traitsIcEENS_9allocatorIcEEE4sizeEv
	movq	-152(%rbp), %rsi                ## 8-byte Reload
	movq	-104(%rbp), %rdi                ## 8-byte Reload
	movq	%rax, %rcx
	movq	%rsi, %rdx
	addq	%rcx, %rdx
	callq	__ZNSt3__115basic_streambufIcNS_11char_traitsIcEEE4setpEPcS4_
	movq	-104(%rbp), %rdi                ## 8-byte Reload
	movq	-40(%rbp), %rsi
Ltmp134:
	callq	__ZNSt3__115basic_streambufIcNS_11char_traitsIcEEE7__pbumpEl
Ltmp135:
	jmp	LBB33_7
LBB33_7:
	movq	-104(%rbp), %rdi                ## 8-byte Reload
	callq	__ZNKSt3__115basic_streambufIcNS_11char_traitsIcEEE5pbaseEv
	movq	%rax, %rcx
	movq	-104(%rbp), %rax                ## 8-byte Reload
	addq	-48(%rbp), %rcx
	movq	%rcx, 88(%rax)
	jmp	LBB33_10
LBB33_8:
Ltmp136:
	movq	%rax, %rcx
	movl	%edx, %eax
	movq	%rcx, -56(%rbp)
	movl	%eax, -60(%rbp)
## %bb.9:
	movq	-56(%rbp), %rdi
	callq	___cxa_begin_catch
	callq	__ZNSt3__111char_traitsIcE3eofEv
	movl	%eax, -4(%rbp)
	callq	___cxa_end_catch
	jmp	LBB33_15
LBB33_10:
	jmp	LBB33_11
LBB33_11:
	movq	-104(%rbp), %rdi                ## 8-byte Reload
	callq	__ZNKSt3__115basic_streambufIcNS_11char_traitsIcEEE4pptrEv
	movq	-104(%rbp), %rsi                ## 8-byte Reload
	addq	$1, %rax
	movq	%rax, -80(%rbp)
	addq	$88, %rsi
	leaq	-80(%rbp), %rdi
	callq	__ZNSt3__1L3maxIPcEERKT_S4_S4_
	movq	%rax, %rcx
	movq	-104(%rbp), %rax                ## 8-byte Reload
	movq	(%rcx), %rcx
	movq	%rcx, 88(%rax)
	movl	96(%rax), %eax
	andl	$8, %eax
	cmpl	$0, %eax
	je	LBB33_13
## %bb.12:
	movq	-104(%rbp), %rdi                ## 8-byte Reload
	addq	$64, %rdi
	callq	__ZNKSt3__112basic_stringIcNS_11char_traitsIcEENS_9allocatorIcEEE4dataEv
	movq	%rax, %rcx
	movq	-104(%rbp), %rax                ## 8-byte Reload
	movq	%rcx, -88(%rbp)
	movq	%rax, %rdi
	movq	-88(%rbp), %rsi
	movq	-88(%rbp), %rdx
	addq	-32(%rbp), %rdx
	movq	88(%rax), %rcx
	callq	__ZNSt3__115basic_streambufIcNS_11char_traitsIcEEE4setgEPcS4_S4_
LBB33_13:
	movq	-104(%rbp), %rax                ## 8-byte Reload
	movq	%rax, -168(%rbp)                ## 8-byte Spill
	movl	-20(%rbp), %edi
	callq	__ZNSt3__111char_traitsIcE12to_char_typeEi
	movq	-168(%rbp), %rdi                ## 8-byte Reload
	movsbl	%al, %esi
	callq	__ZNSt3__115basic_streambufIcNS_11char_traitsIcEEE5sputcEc
	movl	%eax, -4(%rbp)
	jmp	LBB33_15
LBB33_14:
	movl	-20(%rbp), %edi
	callq	__ZNSt3__111char_traitsIcE7not_eofEi
	movl	%eax, -4(%rbp)
LBB33_15:
	movl	-4(%rbp), %eax
	addq	$176, %rsp
	popq	%rbp
	retq
Lfunc_end8:
	.cfi_endproc
	.section	__TEXT,__gcc_except_tab
	.p2align	2
GCC_except_table33:
Lexception8:
	.byte	255                             ## @LPStart Encoding = omit
	.byte	155                             ## @TType Encoding = indirect pcrel sdata4
	.uleb128 Lttbase6-Lttbaseref6
Lttbaseref6:
	.byte	1                               ## Call site Encoding = uleb128
	.uleb128 Lcst_end8-Lcst_begin8
Lcst_begin8:
	.uleb128 Ltmp130-Lfunc_begin8           ## >> Call Site 1 <<
	.uleb128 Ltmp135-Ltmp130                ##   Call between Ltmp130 and Ltmp135
	.uleb128 Ltmp136-Lfunc_begin8           ##     jumps to Ltmp136
	.byte	1                               ##   On action: 1
	.uleb128 Ltmp135-Lfunc_begin8           ## >> Call Site 2 <<
	.uleb128 Lfunc_end8-Ltmp135             ##   Call between Ltmp135 and Lfunc_end8
	.byte	0                               ##     has no landing pad
	.byte	0                               ##   On action: cleanup
Lcst_end8:
	.byte	1                               ## >> Action Record 1 <<
                                        ##   Catch TypeInfo 1
	.byte	0                               ##   No further actions
	.p2align	2
                                        ## >> Catch TypeInfos <<
	.long	0                               ## TypeInfo 1
Lttbase6:
	.p2align	2
                                        ## -- End function
	.section	__TEXT,__text,regular,pure_instructions
	.p2align	4, 0x90                         ## -- Begin function _ZNKSt3__115basic_streambufIcNS_11char_traitsIcEEE4pptrEv
__ZNKSt3__115basic_streambufIcNS_11char_traitsIcEEE4pptrEv: ## @_ZNKSt3__115basic_streambufIcNS_11char_traitsIcEEE4pptrEv
	.cfi_startproc
## %bb.0:
	pushq	%rbp
	.cfi_def_cfa_offset 16
	.cfi_offset %rbp, -16
	movq	%rsp, %rbp
	.cfi_def_cfa_register %rbp
	movq	%rdi, -8(%rbp)
	movq	-8(%rbp), %rax
	movq	48(%rax), %rax
	popq	%rbp
	retq
	.cfi_endproc
                                        ## -- End function
	.p2align	4, 0x90                         ## -- Begin function _ZNSt3__14fposI11__mbstate_tEC1Ex
__ZNSt3__14fposI11__mbstate_tEC1Ex:     ## @_ZNSt3__14fposI11__mbstate_tEC1Ex
	.cfi_startproc
## %bb.0:
	pushq	%rbp
	.cfi_def_cfa_offset 16
	.cfi_offset %rbp, -16
	movq	%rsp, %rbp
	.cfi_def_cfa_register %rbp
	subq	$16, %rsp
	movq	%rdi, -8(%rbp)
	movq	%rsi, -16(%rbp)
	movq	-8(%rbp), %rdi
	movq	-16(%rbp), %rsi
	callq	__ZNSt3__14fposI11__mbstate_tEC2Ex
	addq	$16, %rsp
	popq	%rbp
	retq
	.cfi_endproc
                                        ## -- End function
	.p2align	4, 0x90                         ## -- Begin function _ZNSt3__1L15__get_nullptr_tEv
__ZNSt3__1L15__get_nullptr_tEv:         ## @_ZNSt3__1L15__get_nullptr_tEv
	.cfi_startproc
## %bb.0:
	pushq	%rbp
	.cfi_def_cfa_offset 16
	.cfi_offset %rbp, -16
	movq	%rsp, %rbp
	.cfi_def_cfa_register %rbp
	subq	$16, %rsp
	leaq	-8(%rbp), %rdi
	movq	$-1, %rsi
	callq	__ZNSt3__19nullptr_tC1EMNS0_5__natEi
	movq	-8(%rbp), %rax
	addq	$16, %rsp
	popq	%rbp
	retq
	.cfi_endproc
                                        ## -- End function
	.p2align	4, 0x90                         ## -- Begin function _ZNKSt3__19nullptr_tcvPT_IcEEv
__ZNKSt3__19nullptr_tcvPT_IcEEv:        ## @_ZNKSt3__19nullptr_tcvPT_IcEEv
	.cfi_startproc
## %bb.0:
	pushq	%rbp
	.cfi_def_cfa_offset 16
	.cfi_offset %rbp, -16
	movq	%rsp, %rbp
	.cfi_def_cfa_register %rbp
	xorl	%eax, %eax
                                        ## kill: def $rax killed $eax
	movq	%rdi, -8(%rbp)
	popq	%rbp
	retq
	.cfi_endproc
                                        ## -- End function
	.p2align	4, 0x90                         ## -- Begin function _ZNKSt3__112basic_stringIcNS_11char_traitsIcEENS_9allocatorIcEEE4dataEv
__ZNKSt3__112basic_stringIcNS_11char_traitsIcEENS_9allocatorIcEEE4dataEv: ## @_ZNKSt3__112basic_stringIcNS_11char_traitsIcEENS_9allocatorIcEEE4dataEv
	.cfi_startproc
## %bb.0:
	pushq	%rbp
	.cfi_def_cfa_offset 16
	.cfi_offset %rbp, -16
	movq	%rsp, %rbp
	.cfi_def_cfa_register %rbp
	subq	$16, %rsp
	movq	%rdi, -8(%rbp)
	movq	-8(%rbp), %rdi
	callq	__ZNKSt3__112basic_stringIcNS_11char_traitsIcEENS_9allocatorIcEEE13__get_pointerEv
	movq	%rax, %rdi
	callq	__ZNSt3__1L12__to_addressIKcEEPT_S3_
	addq	$16, %rsp
	popq	%rbp
	retq
	.cfi_endproc
                                        ## -- End function
	.p2align	4, 0x90                         ## -- Begin function _ZNKSt3__115basic_streambufIcNS_11char_traitsIcEEE4gptrEv
__ZNKSt3__115basic_streambufIcNS_11char_traitsIcEEE4gptrEv: ## @_ZNKSt3__115basic_streambufIcNS_11char_traitsIcEEE4gptrEv
	.cfi_startproc
## %bb.0:
	pushq	%rbp
	.cfi_def_cfa_offset 16
	.cfi_offset %rbp, -16
	movq	%rsp, %rbp
	.cfi_def_cfa_register %rbp
	movq	%rdi, -8(%rbp)
	movq	-8(%rbp), %rax
	movq	24(%rax), %rax
	popq	%rbp
	retq
	.cfi_endproc
                                        ## -- End function
	.p2align	4, 0x90                         ## -- Begin function _ZNKSt3__115basic_streambufIcNS_11char_traitsIcEEE5ebackEv
__ZNKSt3__115basic_streambufIcNS_11char_traitsIcEEE5ebackEv: ## @_ZNKSt3__115basic_streambufIcNS_11char_traitsIcEEE5ebackEv
	.cfi_startproc
## %bb.0:
	pushq	%rbp
	.cfi_def_cfa_offset 16
	.cfi_offset %rbp, -16
	movq	%rsp, %rbp
	.cfi_def_cfa_register %rbp
	movq	%rdi, -8(%rbp)
	movq	-8(%rbp), %rax
	movq	16(%rax), %rax
	popq	%rbp
	retq
	.cfi_endproc
                                        ## -- End function
	.p2align	4, 0x90                         ## -- Begin function _ZNKSt3__115basic_streambufIcNS_11char_traitsIcEEE5pbaseEv
__ZNKSt3__115basic_streambufIcNS_11char_traitsIcEEE5pbaseEv: ## @_ZNKSt3__115basic_streambufIcNS_11char_traitsIcEEE5pbaseEv
	.cfi_startproc
## %bb.0:
	pushq	%rbp
	.cfi_def_cfa_offset 16
	.cfi_offset %rbp, -16
	movq	%rsp, %rbp
	.cfi_def_cfa_register %rbp
	movq	%rdi, -8(%rbp)
	movq	-8(%rbp), %rax
	movq	40(%rax), %rax
	popq	%rbp
	retq
	.cfi_endproc
                                        ## -- End function
	.p2align	4, 0x90                         ## -- Begin function _ZNSt3__115basic_streambufIcNS_11char_traitsIcEEE4setgEPcS4_S4_
__ZNSt3__115basic_streambufIcNS_11char_traitsIcEEE4setgEPcS4_S4_: ## @_ZNSt3__115basic_streambufIcNS_11char_traitsIcEEE4setgEPcS4_S4_
	.cfi_startproc
## %bb.0:
	pushq	%rbp
	.cfi_def_cfa_offset 16
	.cfi_offset %rbp, -16
	movq	%rsp, %rbp
	.cfi_def_cfa_register %rbp
	movq	%rdi, -8(%rbp)
	movq	%rsi, -16(%rbp)
	movq	%rdx, -24(%rbp)
	movq	%rcx, -32(%rbp)
	movq	-8(%rbp), %rax
	movq	-16(%rbp), %rcx
	movq	%rcx, 16(%rax)
	movq	-24(%rbp), %rcx
	movq	%rcx, 24(%rax)
	movq	-32(%rbp), %rcx
	movq	%rcx, 32(%rax)
	popq	%rbp
	retq
	.cfi_endproc
                                        ## -- End function
	.p2align	4, 0x90                         ## -- Begin function _ZNSt3__115basic_streambufIcNS_11char_traitsIcEEE4setpEPcS4_
__ZNSt3__115basic_streambufIcNS_11char_traitsIcEEE4setpEPcS4_: ## @_ZNSt3__115basic_streambufIcNS_11char_traitsIcEEE4setpEPcS4_
	.cfi_startproc
## %bb.0:
	pushq	%rbp
	.cfi_def_cfa_offset 16
	.cfi_offset %rbp, -16
	movq	%rsp, %rbp
	.cfi_def_cfa_register %rbp
	movq	%rdi, -8(%rbp)
	movq	%rsi, -16(%rbp)
	movq	%rdx, -24(%rbp)
	movq	-8(%rbp), %rax
	movq	-16(%rbp), %rcx
	movq	%rcx, 48(%rax)
	movq	%rcx, 40(%rax)
	movq	-24(%rbp), %rcx
	movq	%rcx, 56(%rax)
	popq	%rbp
	retq
	.cfi_endproc
                                        ## -- End function
	.p2align	4, 0x90                         ## -- Begin function _ZNKSt3__115basic_streambufIcNS_11char_traitsIcEEE5epptrEv
__ZNKSt3__115basic_streambufIcNS_11char_traitsIcEEE5epptrEv: ## @_ZNKSt3__115basic_streambufIcNS_11char_traitsIcEEE5epptrEv
	.cfi_startproc
## %bb.0:
	pushq	%rbp
	.cfi_def_cfa_offset 16
	.cfi_offset %rbp, -16
	movq	%rsp, %rbp
	.cfi_def_cfa_register %rbp
	movq	%rdi, -8(%rbp)
	movq	-8(%rbp), %rax
	movq	56(%rax), %rax
	popq	%rbp
	retq
	.cfi_endproc
                                        ## -- End function
	.p2align	4, 0x90                         ## -- Begin function _ZNSt3__115basic_streambufIcNS_11char_traitsIcEEE5pbumpEi
__ZNSt3__115basic_streambufIcNS_11char_traitsIcEEE5pbumpEi: ## @_ZNSt3__115basic_streambufIcNS_11char_traitsIcEEE5pbumpEi
	.cfi_startproc
## %bb.0:
	pushq	%rbp
	.cfi_def_cfa_offset 16
	.cfi_offset %rbp, -16
	movq	%rsp, %rbp
	.cfi_def_cfa_register %rbp
	movq	%rdi, -8(%rbp)
	movl	%esi, -12(%rbp)
	movq	-8(%rbp), %rax
	movl	-12(%rbp), %edx
	movq	48(%rax), %rcx
	movslq	%edx, %rdx
	addq	%rdx, %rcx
	movq	%rcx, 48(%rax)
	popq	%rbp
	retq
	.cfi_endproc
                                        ## -- End function
	.p2align	4, 0x90                         ## -- Begin function _ZNSt3__14fposI11__mbstate_tEC2Ex
__ZNSt3__14fposI11__mbstate_tEC2Ex:     ## @_ZNSt3__14fposI11__mbstate_tEC2Ex
	.cfi_startproc
## %bb.0:
	pushq	%rbp
	.cfi_def_cfa_offset 16
	.cfi_offset %rbp, -16
	movq	%rsp, %rbp
	.cfi_def_cfa_register %rbp
	subq	$32, %rsp
	movq	%rsi, %rax
	xorl	%esi, %esi
	movq	%rdi, -8(%rbp)
	movq	%rax, -16(%rbp)
	movq	-8(%rbp), %rdi
	movq	%rdi, -24(%rbp)                 ## 8-byte Spill
	movl	$128, %edx
	callq	_memset
	movq	-24(%rbp), %rax                 ## 8-byte Reload
	movq	-16(%rbp), %rcx
	movq	%rcx, 128(%rax)
	addq	$32, %rsp
	popq	%rbp
	retq
	.cfi_endproc
                                        ## -- End function
	.p2align	4, 0x90                         ## -- Begin function _ZNSt3__19nullptr_tC1EMNS0_5__natEi
__ZNSt3__19nullptr_tC1EMNS0_5__natEi:   ## @_ZNSt3__19nullptr_tC1EMNS0_5__natEi
	.cfi_startproc
## %bb.0:
	pushq	%rbp
	.cfi_def_cfa_offset 16
	.cfi_offset %rbp, -16
	movq	%rsp, %rbp
	.cfi_def_cfa_register %rbp
	subq	$16, %rsp
	movq	%rdi, -8(%rbp)
	movq	%rsi, -16(%rbp)
	movq	-8(%rbp), %rdi
	movq	-16(%rbp), %rsi
	callq	__ZNSt3__19nullptr_tC2EMNS0_5__natEi
	addq	$16, %rsp
	popq	%rbp
	retq
	.cfi_endproc
                                        ## -- End function
	.p2align	4, 0x90                         ## -- Begin function _ZNSt3__19nullptr_tC2EMNS0_5__natEi
__ZNSt3__19nullptr_tC2EMNS0_5__natEi:   ## @_ZNSt3__19nullptr_tC2EMNS0_5__natEi
	.cfi_startproc
## %bb.0:
	pushq	%rbp
	.cfi_def_cfa_offset 16
	.cfi_offset %rbp, -16
	movq	%rsp, %rbp
	.cfi_def_cfa_register %rbp
	movq	%rdi, -8(%rbp)
	movq	%rsi, -16(%rbp)
	movq	-8(%rbp), %rax
	movq	$0, (%rax)
	popq	%rbp
	retq
	.cfi_endproc
                                        ## -- End function
	.p2align	4, 0x90                         ## -- Begin function _ZNSt3__1L12__to_addressIKcEEPT_S3_
__ZNSt3__1L12__to_addressIKcEEPT_S3_:   ## @_ZNSt3__1L12__to_addressIKcEEPT_S3_
	.cfi_startproc
## %bb.0:
	pushq	%rbp
	.cfi_def_cfa_offset 16
	.cfi_offset %rbp, -16
	movq	%rsp, %rbp
	.cfi_def_cfa_register %rbp
	movq	%rdi, -8(%rbp)
	movq	-8(%rbp), %rax
	popq	%rbp
	retq
	.cfi_endproc
                                        ## -- End function
	.p2align	4, 0x90                         ## -- Begin function _ZNKSt3__112basic_stringIcNS_11char_traitsIcEENS_9allocatorIcEEE13__get_pointerEv
__ZNKSt3__112basic_stringIcNS_11char_traitsIcEENS_9allocatorIcEEE13__get_pointerEv: ## @_ZNKSt3__112basic_stringIcNS_11char_traitsIcEENS_9allocatorIcEEE13__get_pointerEv
	.cfi_startproc
## %bb.0:
	pushq	%rbp
	.cfi_def_cfa_offset 16
	.cfi_offset %rbp, -16
	movq	%rsp, %rbp
	.cfi_def_cfa_register %rbp
	subq	$32, %rsp
	movq	%rdi, -8(%rbp)
	movq	-8(%rbp), %rdi
	movq	%rdi, -16(%rbp)                 ## 8-byte Spill
	callq	__ZNKSt3__112basic_stringIcNS_11char_traitsIcEENS_9allocatorIcEEE9__is_longEv
	testb	$1, %al
	jne	LBB50_1
	jmp	LBB50_2
LBB50_1:
	movq	-16(%rbp), %rdi                 ## 8-byte Reload
	callq	__ZNKSt3__112basic_stringIcNS_11char_traitsIcEENS_9allocatorIcEEE18__get_long_pointerEv
	movq	%rax, -24(%rbp)                 ## 8-byte Spill
	jmp	LBB50_3
LBB50_2:
	movq	-16(%rbp), %rdi                 ## 8-byte Reload
	callq	__ZNKSt3__112basic_stringIcNS_11char_traitsIcEENS_9allocatorIcEEE19__get_short_pointerEv
	movq	%rax, -24(%rbp)                 ## 8-byte Spill
LBB50_3:
	movq	-24(%rbp), %rax                 ## 8-byte Reload
	addq	$32, %rsp
	popq	%rbp
	retq
	.cfi_endproc
                                        ## -- End function
	.p2align	4, 0x90                         ## -- Begin function _ZNKSt3__112basic_stringIcNS_11char_traitsIcEENS_9allocatorIcEEE9__is_longEv
__ZNKSt3__112basic_stringIcNS_11char_traitsIcEENS_9allocatorIcEEE9__is_longEv: ## @_ZNKSt3__112basic_stringIcNS_11char_traitsIcEENS_9allocatorIcEEE9__is_longEv
	.cfi_startproc
## %bb.0:
	pushq	%rbp
	.cfi_def_cfa_offset 16
	.cfi_offset %rbp, -16
	movq	%rsp, %rbp
	.cfi_def_cfa_register %rbp
	subq	$16, %rsp
	movq	%rdi, -8(%rbp)
	movq	-8(%rbp), %rdi
	callq	__ZNKSt3__117__compressed_pairINS_12basic_stringIcNS_11char_traitsIcEENS_9allocatorIcEEE5__repES5_E5firstEv
	movzbl	(%rax), %eax
                                        ## kill: def $rax killed $eax
	andq	$1, %rax
	cmpq	$0, %rax
	setne	%al
	andb	$1, %al
	movzbl	%al, %eax
	addq	$16, %rsp
	popq	%rbp
	retq
	.cfi_endproc
                                        ## -- End function
	.p2align	4, 0x90                         ## -- Begin function _ZNKSt3__112basic_stringIcNS_11char_traitsIcEENS_9allocatorIcEEE18__get_long_pointerEv
__ZNKSt3__112basic_stringIcNS_11char_traitsIcEENS_9allocatorIcEEE18__get_long_pointerEv: ## @_ZNKSt3__112basic_stringIcNS_11char_traitsIcEENS_9allocatorIcEEE18__get_long_pointerEv
	.cfi_startproc
## %bb.0:
	pushq	%rbp
	.cfi_def_cfa_offset 16
	.cfi_offset %rbp, -16
	movq	%rsp, %rbp
	.cfi_def_cfa_register %rbp
	subq	$16, %rsp
	movq	%rdi, -8(%rbp)
	movq	-8(%rbp), %rdi
	callq	__ZNKSt3__117__compressed_pairINS_12basic_stringIcNS_11char_traitsIcEENS_9allocatorIcEEE5__repES5_E5firstEv
	movq	16(%rax), %rax
	addq	$16, %rsp
	popq	%rbp
	retq
	.cfi_endproc
                                        ## -- End function
	.p2align	4, 0x90                         ## -- Begin function _ZNKSt3__112basic_stringIcNS_11char_traitsIcEENS_9allocatorIcEEE19__get_short_pointerEv
__ZNKSt3__112basic_stringIcNS_11char_traitsIcEENS_9allocatorIcEEE19__get_short_pointerEv: ## @_ZNKSt3__112basic_stringIcNS_11char_traitsIcEENS_9allocatorIcEEE19__get_short_pointerEv
	.cfi_startproc
## %bb.0:
	pushq	%rbp
	.cfi_def_cfa_offset 16
	.cfi_offset %rbp, -16
	movq	%rsp, %rbp
	.cfi_def_cfa_register %rbp
	subq	$16, %rsp
	movq	%rdi, -8(%rbp)
	movq	-8(%rbp), %rdi
	callq	__ZNKSt3__117__compressed_pairINS_12basic_stringIcNS_11char_traitsIcEENS_9allocatorIcEEE5__repES5_E5firstEv
	movq	%rax, %rdi
	addq	$1, %rdi
	callq	__ZNSt3__114pointer_traitsIPKcE10pointer_toERS1_
	addq	$16, %rsp
	popq	%rbp
	retq
	.cfi_endproc
                                        ## -- End function
	.p2align	4, 0x90                         ## -- Begin function _ZNKSt3__117__compressed_pairINS_12basic_stringIcNS_11char_traitsIcEENS_9allocatorIcEEE5__repES5_E5firstEv
__ZNKSt3__117__compressed_pairINS_12basic_stringIcNS_11char_traitsIcEENS_9allocatorIcEEE5__repES5_E5firstEv: ## @_ZNKSt3__117__compressed_pairINS_12basic_stringIcNS_11char_traitsIcEENS_9allocatorIcEEE5__repES5_E5firstEv
	.cfi_startproc
## %bb.0:
	pushq	%rbp
	.cfi_def_cfa_offset 16
	.cfi_offset %rbp, -16
	movq	%rsp, %rbp
	.cfi_def_cfa_register %rbp
	subq	$16, %rsp
	movq	%rdi, -8(%rbp)
	movq	-8(%rbp), %rdi
	callq	__ZNKSt3__122__compressed_pair_elemINS_12basic_stringIcNS_11char_traitsIcEENS_9allocatorIcEEE5__repELi0ELb0EE5__getEv
	addq	$16, %rsp
	popq	%rbp
	retq
	.cfi_endproc
                                        ## -- End function
	.p2align	4, 0x90                         ## -- Begin function _ZNKSt3__122__compressed_pair_elemINS_12basic_stringIcNS_11char_traitsIcEENS_9allocatorIcEEE5__repELi0ELb0EE5__getEv
__ZNKSt3__122__compressed_pair_elemINS_12basic_stringIcNS_11char_traitsIcEENS_9allocatorIcEEE5__repELi0ELb0EE5__getEv: ## @_ZNKSt3__122__compressed_pair_elemINS_12basic_stringIcNS_11char_traitsIcEENS_9allocatorIcEEE5__repELi0ELb0EE5__getEv
	.cfi_startproc
## %bb.0:
	pushq	%rbp
	.cfi_def_cfa_offset 16
	.cfi_offset %rbp, -16
	movq	%rsp, %rbp
	.cfi_def_cfa_register %rbp
	movq	%rdi, -8(%rbp)
	movq	-8(%rbp), %rax
	popq	%rbp
	retq
	.cfi_endproc
                                        ## -- End function
	.p2align	4, 0x90                         ## -- Begin function _ZNSt3__114pointer_traitsIPKcE10pointer_toERS1_
__ZNSt3__114pointer_traitsIPKcE10pointer_toERS1_: ## @_ZNSt3__114pointer_traitsIPKcE10pointer_toERS1_
	.cfi_startproc
## %bb.0:
	pushq	%rbp
	.cfi_def_cfa_offset 16
	.cfi_offset %rbp, -16
	movq	%rsp, %rbp
	.cfi_def_cfa_register %rbp
	subq	$16, %rsp
	movq	%rdi, -8(%rbp)
	movq	-8(%rbp), %rdi
	callq	__ZNSt3__1L9addressofIKcEEPT_RS2_
	addq	$16, %rsp
	popq	%rbp
	retq
	.cfi_endproc
                                        ## -- End function
	.p2align	4, 0x90                         ## -- Begin function _ZNSt3__1L9addressofIKcEEPT_RS2_
__ZNSt3__1L9addressofIKcEEPT_RS2_:      ## @_ZNSt3__1L9addressofIKcEEPT_RS2_
	.cfi_startproc
## %bb.0:
	pushq	%rbp
	.cfi_def_cfa_offset 16
	.cfi_offset %rbp, -16
	movq	%rsp, %rbp
	.cfi_def_cfa_register %rbp
	movq	%rdi, -8(%rbp)
	movq	-8(%rbp), %rax
	popq	%rbp
	retq
	.cfi_endproc
                                        ## -- End function
	.p2align	4, 0x90                         ## -- Begin function _ZNKSt3__14fposI11__mbstate_tEcvxEv
__ZNKSt3__14fposI11__mbstate_tEcvxEv:   ## @_ZNKSt3__14fposI11__mbstate_tEcvxEv
	.cfi_startproc
## %bb.0:
	pushq	%rbp
	.cfi_def_cfa_offset 16
	.cfi_offset %rbp, -16
	movq	%rsp, %rbp
	.cfi_def_cfa_register %rbp
	movq	%rdi, -8(%rbp)
	movq	-8(%rbp), %rax
	movq	128(%rax), %rax
	popq	%rbp
	retq
	.cfi_endproc
                                        ## -- End function
	.p2align	4, 0x90                         ## -- Begin function _ZNKSt3__115basic_streambufIcNS_11char_traitsIcEEE5egptrEv
__ZNKSt3__115basic_streambufIcNS_11char_traitsIcEEE5egptrEv: ## @_ZNKSt3__115basic_streambufIcNS_11char_traitsIcEEE5egptrEv
	.cfi_startproc
## %bb.0:
	pushq	%rbp
	.cfi_def_cfa_offset 16
	.cfi_offset %rbp, -16
	movq	%rsp, %rbp
	.cfi_def_cfa_register %rbp
	movq	%rdi, -8(%rbp)
	movq	-8(%rbp), %rax
	movq	32(%rax), %rax
	popq	%rbp
	retq
	.cfi_endproc
                                        ## -- End function
	.globl	__ZNSt3__111char_traitsIcE11to_int_typeEc ## -- Begin function _ZNSt3__111char_traitsIcE11to_int_typeEc
	.weak_definition	__ZNSt3__111char_traitsIcE11to_int_typeEc
	.p2align	4, 0x90
__ZNSt3__111char_traitsIcE11to_int_typeEc: ## @_ZNSt3__111char_traitsIcE11to_int_typeEc
	.cfi_startproc
## %bb.0:
	pushq	%rbp
	.cfi_def_cfa_offset 16
	.cfi_offset %rbp, -16
	movq	%rsp, %rbp
	.cfi_def_cfa_register %rbp
	movb	%dil, %al
	movb	%al, -1(%rbp)
	movzbl	-1(%rbp), %eax
	popq	%rbp
	retq
	.cfi_endproc
                                        ## -- End function
	.globl	__ZNSt3__111char_traitsIcE3eofEv ## -- Begin function _ZNSt3__111char_traitsIcE3eofEv
	.weak_definition	__ZNSt3__111char_traitsIcE3eofEv
	.p2align	4, 0x90
__ZNSt3__111char_traitsIcE3eofEv:       ## @_ZNSt3__111char_traitsIcE3eofEv
	.cfi_startproc
## %bb.0:
	pushq	%rbp
	.cfi_def_cfa_offset 16
	.cfi_offset %rbp, -16
	movq	%rsp, %rbp
	.cfi_def_cfa_register %rbp
	movl	$4294967295, %eax               ## imm = 0xFFFFFFFF
	popq	%rbp
	retq
	.cfi_endproc
                                        ## -- End function
	.globl	__ZNSt3__111char_traitsIcE11eq_int_typeEii ## -- Begin function _ZNSt3__111char_traitsIcE11eq_int_typeEii
	.weak_definition	__ZNSt3__111char_traitsIcE11eq_int_typeEii
	.p2align	4, 0x90
__ZNSt3__111char_traitsIcE11eq_int_typeEii: ## @_ZNSt3__111char_traitsIcE11eq_int_typeEii
	.cfi_startproc
## %bb.0:
	pushq	%rbp
	.cfi_def_cfa_offset 16
	.cfi_offset %rbp, -16
	movq	%rsp, %rbp
	.cfi_def_cfa_register %rbp
	movl	%edi, -4(%rbp)
	movl	%esi, -8(%rbp)
	movl	-4(%rbp), %eax
	cmpl	-8(%rbp), %eax
	sete	%al
	andb	$1, %al
	movzbl	%al, %eax
	popq	%rbp
	retq
	.cfi_endproc
                                        ## -- End function
	.globl	__ZNSt3__111char_traitsIcE7not_eofEi ## -- Begin function _ZNSt3__111char_traitsIcE7not_eofEi
	.weak_definition	__ZNSt3__111char_traitsIcE7not_eofEi
	.p2align	4, 0x90
__ZNSt3__111char_traitsIcE7not_eofEi:   ## @_ZNSt3__111char_traitsIcE7not_eofEi
	.cfi_startproc
## %bb.0:
	pushq	%rbp
	.cfi_def_cfa_offset 16
	.cfi_offset %rbp, -16
	movq	%rsp, %rbp
	.cfi_def_cfa_register %rbp
	subq	$16, %rsp
	movl	%edi, -4(%rbp)
	movl	-4(%rbp), %eax
	movl	%eax, -8(%rbp)                  ## 4-byte Spill
	callq	__ZNSt3__111char_traitsIcE3eofEv
	movl	-8(%rbp), %edi                  ## 4-byte Reload
	movl	%eax, %esi
	callq	__ZNSt3__111char_traitsIcE11eq_int_typeEii
	testb	$1, %al
	jne	LBB63_1
	jmp	LBB63_2
LBB63_1:
	callq	__ZNSt3__111char_traitsIcE3eofEv
	xorl	$-1, %eax
	movl	%eax, -12(%rbp)                 ## 4-byte Spill
	jmp	LBB63_3
LBB63_2:
	movl	-4(%rbp), %eax
	movl	%eax, -12(%rbp)                 ## 4-byte Spill
LBB63_3:
	movl	-12(%rbp), %eax                 ## 4-byte Reload
	addq	$16, %rsp
	popq	%rbp
	retq
	.cfi_endproc
                                        ## -- End function
	.globl	__ZNSt3__111char_traitsIcE2eqEcc ## -- Begin function _ZNSt3__111char_traitsIcE2eqEcc
	.weak_definition	__ZNSt3__111char_traitsIcE2eqEcc
	.p2align	4, 0x90
__ZNSt3__111char_traitsIcE2eqEcc:       ## @_ZNSt3__111char_traitsIcE2eqEcc
	.cfi_startproc
## %bb.0:
	pushq	%rbp
	.cfi_def_cfa_offset 16
	.cfi_offset %rbp, -16
	movq	%rsp, %rbp
	.cfi_def_cfa_register %rbp
	movb	%sil, %al
	movb	%dil, %cl
	movb	%cl, -1(%rbp)
	movb	%al, -2(%rbp)
	movsbl	-1(%rbp), %eax
	movsbl	-2(%rbp), %ecx
	cmpl	%ecx, %eax
	sete	%al
	andb	$1, %al
	movzbl	%al, %eax
	popq	%rbp
	retq
	.cfi_endproc
                                        ## -- End function
	.globl	__ZNSt3__111char_traitsIcE12to_char_typeEi ## -- Begin function _ZNSt3__111char_traitsIcE12to_char_typeEi
	.weak_definition	__ZNSt3__111char_traitsIcE12to_char_typeEi
	.p2align	4, 0x90
__ZNSt3__111char_traitsIcE12to_char_typeEi: ## @_ZNSt3__111char_traitsIcE12to_char_typeEi
	.cfi_startproc
## %bb.0:
	pushq	%rbp
	.cfi_def_cfa_offset 16
	.cfi_offset %rbp, -16
	movq	%rsp, %rbp
	.cfi_def_cfa_register %rbp
	movl	%edi, -4(%rbp)
	movl	-4(%rbp), %eax
                                        ## kill: def $al killed $al killed $eax
	movsbl	%al, %eax
	popq	%rbp
	retq
	.cfi_endproc
                                        ## -- End function
	.p2align	4, 0x90                         ## -- Begin function _ZNSt3__112basic_stringIcNS_11char_traitsIcEENS_9allocatorIcEEE6resizeEm
__ZNSt3__112basic_stringIcNS_11char_traitsIcEENS_9allocatorIcEEE6resizeEm: ## @_ZNSt3__112basic_stringIcNS_11char_traitsIcEENS_9allocatorIcEEE6resizeEm
	.cfi_startproc
## %bb.0:
	pushq	%rbp
	.cfi_def_cfa_offset 16
	.cfi_offset %rbp, -16
	movq	%rsp, %rbp
	.cfi_def_cfa_register %rbp
	subq	$16, %rsp
	xorl	%edx, %edx
	movq	%rdi, -8(%rbp)
	movq	%rsi, -16(%rbp)
	movq	-8(%rbp), %rdi
	movq	-16(%rbp), %rsi
	callq	__ZNSt3__112basic_stringIcNS_11char_traitsIcEENS_9allocatorIcEEE6resizeEmc
	addq	$16, %rsp
	popq	%rbp
	retq
	.cfi_endproc
                                        ## -- End function
	.p2align	4, 0x90                         ## -- Begin function _ZNKSt3__112basic_stringIcNS_11char_traitsIcEENS_9allocatorIcEEE8capacityEv
__ZNKSt3__112basic_stringIcNS_11char_traitsIcEENS_9allocatorIcEEE8capacityEv: ## @_ZNKSt3__112basic_stringIcNS_11char_traitsIcEENS_9allocatorIcEEE8capacityEv
	.cfi_startproc
## %bb.0:
	pushq	%rbp
	.cfi_def_cfa_offset 16
	.cfi_offset %rbp, -16
	movq	%rsp, %rbp
	.cfi_def_cfa_register %rbp
	subq	$32, %rsp
	movq	%rdi, -8(%rbp)
	movq	-8(%rbp), %rdi
	movq	%rdi, -16(%rbp)                 ## 8-byte Spill
	callq	__ZNKSt3__112basic_stringIcNS_11char_traitsIcEENS_9allocatorIcEEE9__is_longEv
	testb	$1, %al
	jne	LBB67_1
	jmp	LBB67_2
LBB67_1:
	movq	-16(%rbp), %rdi                 ## 8-byte Reload
	callq	__ZNKSt3__112basic_stringIcNS_11char_traitsIcEENS_9allocatorIcEEE14__get_long_capEv
	movq	%rax, -24(%rbp)                 ## 8-byte Spill
	jmp	LBB67_3
LBB67_2:
	movl	$23, %eax
	movq	%rax, -24(%rbp)                 ## 8-byte Spill
	jmp	LBB67_3
LBB67_3:
	movq	-24(%rbp), %rax                 ## 8-byte Reload
	subq	$1, %rax
	addq	$32, %rsp
	popq	%rbp
	retq
	.cfi_endproc
                                        ## -- End function
	.p2align	4, 0x90                         ## -- Begin function _ZNKSt3__112basic_stringIcNS_11char_traitsIcEENS_9allocatorIcEEE4sizeEv
__ZNKSt3__112basic_stringIcNS_11char_traitsIcEENS_9allocatorIcEEE4sizeEv: ## @_ZNKSt3__112basic_stringIcNS_11char_traitsIcEENS_9allocatorIcEEE4sizeEv
	.cfi_startproc
## %bb.0:
	pushq	%rbp
	.cfi_def_cfa_offset 16
	.cfi_offset %rbp, -16
	movq	%rsp, %rbp
	.cfi_def_cfa_register %rbp
	subq	$32, %rsp
	movq	%rdi, -8(%rbp)
	movq	-8(%rbp), %rdi
	movq	%rdi, -16(%rbp)                 ## 8-byte Spill
	callq	__ZNKSt3__112basic_stringIcNS_11char_traitsIcEENS_9allocatorIcEEE9__is_longEv
	testb	$1, %al
	jne	LBB68_1
	jmp	LBB68_2
LBB68_1:
	movq	-16(%rbp), %rdi                 ## 8-byte Reload
	callq	__ZNKSt3__112basic_stringIcNS_11char_traitsIcEENS_9allocatorIcEEE15__get_long_sizeEv
	movq	%rax, -24(%rbp)                 ## 8-byte Spill
	jmp	LBB68_3
LBB68_2:
	movq	-16(%rbp), %rdi                 ## 8-byte Reload
	callq	__ZNKSt3__112basic_stringIcNS_11char_traitsIcEENS_9allocatorIcEEE16__get_short_sizeEv
	movq	%rax, -24(%rbp)                 ## 8-byte Spill
LBB68_3:
	movq	-24(%rbp), %rax                 ## 8-byte Reload
	addq	$32, %rsp
	popq	%rbp
	retq
	.cfi_endproc
                                        ## -- End function
	.p2align	4, 0x90                         ## -- Begin function _ZNSt3__115basic_streambufIcNS_11char_traitsIcEEE7__pbumpEl
__ZNSt3__115basic_streambufIcNS_11char_traitsIcEEE7__pbumpEl: ## @_ZNSt3__115basic_streambufIcNS_11char_traitsIcEEE7__pbumpEl
	.cfi_startproc
## %bb.0:
	pushq	%rbp
	.cfi_def_cfa_offset 16
	.cfi_offset %rbp, -16
	movq	%rsp, %rbp
	.cfi_def_cfa_register %rbp
	movq	%rdi, -8(%rbp)
	movq	%rsi, -16(%rbp)
	movq	-8(%rbp), %rax
	movq	-16(%rbp), %rcx
	addq	48(%rax), %rcx
	movq	%rcx, 48(%rax)
	popq	%rbp
	retq
	.cfi_endproc
                                        ## -- End function
	.p2align	4, 0x90                         ## -- Begin function _ZNSt3__1L3maxIPcEERKT_S4_S4_
__ZNSt3__1L3maxIPcEERKT_S4_S4_:         ## @_ZNSt3__1L3maxIPcEERKT_S4_S4_
	.cfi_startproc
## %bb.0:
	pushq	%rbp
	.cfi_def_cfa_offset 16
	.cfi_offset %rbp, -16
	movq	%rsp, %rbp
	.cfi_def_cfa_register %rbp
	subq	$32, %rsp
	movq	%rdi, -8(%rbp)
	movq	%rsi, -16(%rbp)
	movq	-8(%rbp), %rdi
	movq	-16(%rbp), %rsi
	callq	__ZNSt3__1L3maxIPcNS_6__lessIS1_S1_EEEERKT_S6_S6_T0_
	addq	$32, %rsp
	popq	%rbp
	retq
	.cfi_endproc
                                        ## -- End function
	.p2align	4, 0x90                         ## -- Begin function _ZNSt3__115basic_streambufIcNS_11char_traitsIcEEE5sputcEc
__ZNSt3__115basic_streambufIcNS_11char_traitsIcEEE5sputcEc: ## @_ZNSt3__115basic_streambufIcNS_11char_traitsIcEEE5sputcEc
	.cfi_startproc
## %bb.0:
	pushq	%rbp
	.cfi_def_cfa_offset 16
	.cfi_offset %rbp, -16
	movq	%rsp, %rbp
	.cfi_def_cfa_register %rbp
	subq	$32, %rsp
	movb	%sil, %al
	movq	%rdi, -16(%rbp)
	movb	%al, -17(%rbp)
	movq	-16(%rbp), %rcx
	movq	%rcx, -32(%rbp)                 ## 8-byte Spill
	movq	48(%rcx), %rax
	cmpq	56(%rcx), %rax
	jne	LBB71_2
## %bb.1:
	movsbl	-17(%rbp), %edi
	callq	__ZNSt3__111char_traitsIcE11to_int_typeEc
	movq	-32(%rbp), %rdi                 ## 8-byte Reload
	movl	%eax, %esi
	movq	(%rdi), %rax
	callq	*104(%rax)
	movl	%eax, -4(%rbp)
	jmp	LBB71_3
LBB71_2:
	movq	-32(%rbp), %rdx                 ## 8-byte Reload
	movb	-17(%rbp), %cl
	movq	48(%rdx), %rax
	movq	%rax, %rsi
	addq	$1, %rsi
	movq	%rsi, 48(%rdx)
	movb	%cl, (%rax)
	movsbl	-17(%rbp), %edi
	callq	__ZNSt3__111char_traitsIcE11to_int_typeEc
	movl	%eax, -4(%rbp)
LBB71_3:
	movl	-4(%rbp), %eax
	addq	$32, %rsp
	popq	%rbp
	retq
	.cfi_endproc
                                        ## -- End function
	.p2align	4, 0x90                         ## -- Begin function _ZNKSt3__112basic_stringIcNS_11char_traitsIcEENS_9allocatorIcEEE14__get_long_capEv
__ZNKSt3__112basic_stringIcNS_11char_traitsIcEENS_9allocatorIcEEE14__get_long_capEv: ## @_ZNKSt3__112basic_stringIcNS_11char_traitsIcEENS_9allocatorIcEEE14__get_long_capEv
	.cfi_startproc
## %bb.0:
	pushq	%rbp
	.cfi_def_cfa_offset 16
	.cfi_offset %rbp, -16
	movq	%rsp, %rbp
	.cfi_def_cfa_register %rbp
	subq	$16, %rsp
	movq	%rdi, -8(%rbp)
	movq	-8(%rbp), %rdi
	callq	__ZNKSt3__117__compressed_pairINS_12basic_stringIcNS_11char_traitsIcEENS_9allocatorIcEEE5__repES5_E5firstEv
	movq	(%rax), %rax
	andq	$-2, %rax
	addq	$16, %rsp
	popq	%rbp
	retq
	.cfi_endproc
                                        ## -- End function
	.p2align	4, 0x90                         ## -- Begin function _ZNKSt3__112basic_stringIcNS_11char_traitsIcEENS_9allocatorIcEEE15__get_long_sizeEv
__ZNKSt3__112basic_stringIcNS_11char_traitsIcEENS_9allocatorIcEEE15__get_long_sizeEv: ## @_ZNKSt3__112basic_stringIcNS_11char_traitsIcEENS_9allocatorIcEEE15__get_long_sizeEv
	.cfi_startproc
## %bb.0:
	pushq	%rbp
	.cfi_def_cfa_offset 16
	.cfi_offset %rbp, -16
	movq	%rsp, %rbp
	.cfi_def_cfa_register %rbp
	subq	$16, %rsp
	movq	%rdi, -8(%rbp)
	movq	-8(%rbp), %rdi
	callq	__ZNKSt3__117__compressed_pairINS_12basic_stringIcNS_11char_traitsIcEENS_9allocatorIcEEE5__repES5_E5firstEv
	movq	8(%rax), %rax
	addq	$16, %rsp
	popq	%rbp
	retq
	.cfi_endproc
                                        ## -- End function
	.p2align	4, 0x90                         ## -- Begin function _ZNKSt3__112basic_stringIcNS_11char_traitsIcEENS_9allocatorIcEEE16__get_short_sizeEv
__ZNKSt3__112basic_stringIcNS_11char_traitsIcEENS_9allocatorIcEEE16__get_short_sizeEv: ## @_ZNKSt3__112basic_stringIcNS_11char_traitsIcEENS_9allocatorIcEEE16__get_short_sizeEv
	.cfi_startproc
## %bb.0:
	pushq	%rbp
	.cfi_def_cfa_offset 16
	.cfi_offset %rbp, -16
	movq	%rsp, %rbp
	.cfi_def_cfa_register %rbp
	subq	$16, %rsp
	movq	%rdi, -8(%rbp)
	movq	-8(%rbp), %rdi
	callq	__ZNKSt3__117__compressed_pairINS_12basic_stringIcNS_11char_traitsIcEENS_9allocatorIcEEE5__repES5_E5firstEv
	movzbl	(%rax), %eax
	sarl	$1, %eax
	cltq
	addq	$16, %rsp
	popq	%rbp
	retq
	.cfi_endproc
                                        ## -- End function
	.p2align	4, 0x90                         ## -- Begin function _ZNSt3__1L3maxIPcNS_6__lessIS1_S1_EEEERKT_S6_S6_T0_
__ZNSt3__1L3maxIPcNS_6__lessIS1_S1_EEEERKT_S6_S6_T0_: ## @_ZNSt3__1L3maxIPcNS_6__lessIS1_S1_EEEERKT_S6_S6_T0_
	.cfi_startproc
## %bb.0:
	pushq	%rbp
	.cfi_def_cfa_offset 16
	.cfi_offset %rbp, -16
	movq	%rsp, %rbp
	.cfi_def_cfa_register %rbp
	subq	$32, %rsp
	movq	%rdi, -16(%rbp)
	movq	%rsi, -24(%rbp)
	movq	-16(%rbp), %rsi
	movq	-24(%rbp), %rdx
	leaq	-8(%rbp), %rdi
	callq	__ZNKSt3__16__lessIPcS1_EclERKS1_S4_
	testb	$1, %al
	jne	LBB75_1
	jmp	LBB75_2
LBB75_1:
	movq	-24(%rbp), %rax
	movq	%rax, -32(%rbp)                 ## 8-byte Spill
	jmp	LBB75_3
LBB75_2:
	movq	-16(%rbp), %rax
	movq	%rax, -32(%rbp)                 ## 8-byte Spill
LBB75_3:
	movq	-32(%rbp), %rax                 ## 8-byte Reload
	addq	$32, %rsp
	popq	%rbp
	retq
	.cfi_endproc
                                        ## -- End function
	.p2align	4, 0x90                         ## -- Begin function _ZNKSt3__16__lessIPcS1_EclERKS1_S4_
__ZNKSt3__16__lessIPcS1_EclERKS1_S4_:   ## @_ZNKSt3__16__lessIPcS1_EclERKS1_S4_
	.cfi_startproc
## %bb.0:
	pushq	%rbp
	.cfi_def_cfa_offset 16
	.cfi_offset %rbp, -16
	movq	%rsp, %rbp
	.cfi_def_cfa_register %rbp
	movq	%rdi, -8(%rbp)
	movq	%rsi, -16(%rbp)
	movq	%rdx, -24(%rbp)
	movq	-16(%rbp), %rax
	movq	(%rax), %rax
	movq	-24(%rbp), %rcx
	cmpq	(%rcx), %rax
	setb	%al
	andb	$1, %al
	movzbl	%al, %eax
	popq	%rbp
	retq
	.cfi_endproc
                                        ## -- End function
	.p2align	4, 0x90                         ## -- Begin function _ZNSt3__112basic_stringIcNS_11char_traitsIcEENS_9allocatorIcEEEC2Ev
__ZNSt3__112basic_stringIcNS_11char_traitsIcEENS_9allocatorIcEEEC2Ev: ## @_ZNSt3__112basic_stringIcNS_11char_traitsIcEENS_9allocatorIcEEEC2Ev
	.cfi_startproc
## %bb.0:
	pushq	%rbp
	.cfi_def_cfa_offset 16
	.cfi_offset %rbp, -16
	movq	%rsp, %rbp
	.cfi_def_cfa_register %rbp
	subq	$32, %rsp
	movq	%rdi, -8(%rbp)
	movq	-8(%rbp), %rdi
	movq	%rdi, -32(%rbp)                 ## 8-byte Spill
	leaq	-16(%rbp), %rsi
	leaq	-24(%rbp), %rdx
	callq	__ZNSt3__117__compressed_pairINS_12basic_stringIcNS_11char_traitsIcEENS_9allocatorIcEEE5__repES5_EC1INS_18__default_init_tagESA_EEOT_OT0_
	movq	-32(%rbp), %rdi                 ## 8-byte Reload
	callq	__ZNSt3__112basic_stringIcNS_11char_traitsIcEENS_9allocatorIcEEE6__zeroEv
	addq	$32, %rsp
	popq	%rbp
	retq
	.cfi_endproc
                                        ## -- End function
	.p2align	4, 0x90                         ## -- Begin function _ZNSt3__117__compressed_pairINS_12basic_stringIcNS_11char_traitsIcEENS_9allocatorIcEEE5__repES5_EC1INS_18__default_init_tagESA_EEOT_OT0_
__ZNSt3__117__compressed_pairINS_12basic_stringIcNS_11char_traitsIcEENS_9allocatorIcEEE5__repES5_EC1INS_18__default_init_tagESA_EEOT_OT0_: ## @_ZNSt3__117__compressed_pairINS_12basic_stringIcNS_11char_traitsIcEENS_9allocatorIcEEE5__repES5_EC1INS_18__default_init_tagESA_EEOT_OT0_
	.cfi_startproc
## %bb.0:
	pushq	%rbp
	.cfi_def_cfa_offset 16
	.cfi_offset %rbp, -16
	movq	%rsp, %rbp
	.cfi_def_cfa_register %rbp
	subq	$32, %rsp
	movq	%rdi, -8(%rbp)
	movq	%rsi, -16(%rbp)
	movq	%rdx, -24(%rbp)
	movq	-8(%rbp), %rdi
	movq	-16(%rbp), %rsi
	movq	-24(%rbp), %rdx
	callq	__ZNSt3__117__compressed_pairINS_12basic_stringIcNS_11char_traitsIcEENS_9allocatorIcEEE5__repES5_EC2INS_18__default_init_tagESA_EEOT_OT0_
	addq	$32, %rsp
	popq	%rbp
	retq
	.cfi_endproc
                                        ## -- End function
	.p2align	4, 0x90                         ## -- Begin function _ZNSt3__112basic_stringIcNS_11char_traitsIcEENS_9allocatorIcEEE6__zeroEv
__ZNSt3__112basic_stringIcNS_11char_traitsIcEENS_9allocatorIcEEE6__zeroEv: ## @_ZNSt3__112basic_stringIcNS_11char_traitsIcEENS_9allocatorIcEEE6__zeroEv
	.cfi_startproc
## %bb.0:
	pushq	%rbp
	.cfi_def_cfa_offset 16
	.cfi_offset %rbp, -16
	movq	%rsp, %rbp
	.cfi_def_cfa_register %rbp
	subq	$32, %rsp
	movq	%rdi, -8(%rbp)
	movq	-8(%rbp), %rdi
	callq	__ZNSt3__117__compressed_pairINS_12basic_stringIcNS_11char_traitsIcEENS_9allocatorIcEEE5__repES5_E5firstEv
	movq	%rax, -16(%rbp)
	movl	$0, -20(%rbp)
LBB79_1:                                ## =>This Inner Loop Header: Depth=1
	cmpl	$3, -20(%rbp)
	jae	LBB79_4
## %bb.2:                               ##   in Loop: Header=BB79_1 Depth=1
	movq	-16(%rbp), %rax
	movl	-20(%rbp), %ecx
                                        ## kill: def $rcx killed $ecx
	movq	$0, (%rax,%rcx,8)
## %bb.3:                               ##   in Loop: Header=BB79_1 Depth=1
	movl	-20(%rbp), %eax
	addl	$1, %eax
	movl	%eax, -20(%rbp)
	jmp	LBB79_1
LBB79_4:
	addq	$32, %rsp
	popq	%rbp
	retq
	.cfi_endproc
                                        ## -- End function
	.p2align	4, 0x90                         ## -- Begin function _ZNSt3__117__compressed_pairINS_12basic_stringIcNS_11char_traitsIcEENS_9allocatorIcEEE5__repES5_EC2INS_18__default_init_tagESA_EEOT_OT0_
__ZNSt3__117__compressed_pairINS_12basic_stringIcNS_11char_traitsIcEENS_9allocatorIcEEE5__repES5_EC2INS_18__default_init_tagESA_EEOT_OT0_: ## @_ZNSt3__117__compressed_pairINS_12basic_stringIcNS_11char_traitsIcEENS_9allocatorIcEEE5__repES5_EC2INS_18__default_init_tagESA_EEOT_OT0_
	.cfi_startproc
## %bb.0:
	pushq	%rbp
	.cfi_def_cfa_offset 16
	.cfi_offset %rbp, -16
	movq	%rsp, %rbp
	.cfi_def_cfa_register %rbp
	subq	$64, %rsp
	movq	%rdi, -8(%rbp)
	movq	%rsi, -16(%rbp)
	movq	%rdx, -24(%rbp)
	movq	-8(%rbp), %rax
	movq	%rax, -56(%rbp)                 ## 8-byte Spill
	movq	%rax, -64(%rbp)                 ## 8-byte Spill
	movq	-16(%rbp), %rdi
	callq	__ZNSt3__1L7forwardINS_18__default_init_tagEEEOT_RNS_16remove_referenceIS2_E4typeE
	movq	-64(%rbp), %rdi                 ## 8-byte Reload
	callq	__ZNSt3__122__compressed_pair_elemINS_12basic_stringIcNS_11char_traitsIcEENS_9allocatorIcEEE5__repELi0ELb0EEC2ENS_18__default_init_tagE
	movq	-56(%rbp), %rax                 ## 8-byte Reload
	movq	%rax, -48(%rbp)                 ## 8-byte Spill
	movq	-24(%rbp), %rdi
	callq	__ZNSt3__1L7forwardINS_18__default_init_tagEEEOT_RNS_16remove_referenceIS2_E4typeE
	movq	-48(%rbp), %rdi                 ## 8-byte Reload
	callq	__ZNSt3__122__compressed_pair_elemINS_9allocatorIcEELi1ELb1EEC2ENS_18__default_init_tagE
	addq	$64, %rsp
	popq	%rbp
	retq
	.cfi_endproc
                                        ## -- End function
	.p2align	4, 0x90                         ## -- Begin function _ZNSt3__1L7forwardINS_18__default_init_tagEEEOT_RNS_16remove_referenceIS2_E4typeE
__ZNSt3__1L7forwardINS_18__default_init_tagEEEOT_RNS_16remove_referenceIS2_E4typeE: ## @_ZNSt3__1L7forwardINS_18__default_init_tagEEEOT_RNS_16remove_referenceIS2_E4typeE
	.cfi_startproc
## %bb.0:
	pushq	%rbp
	.cfi_def_cfa_offset 16
	.cfi_offset %rbp, -16
	movq	%rsp, %rbp
	.cfi_def_cfa_register %rbp
	movq	%rdi, -8(%rbp)
	movq	-8(%rbp), %rax
	popq	%rbp
	retq
	.cfi_endproc
                                        ## -- End function
	.p2align	4, 0x90                         ## -- Begin function _ZNSt3__122__compressed_pair_elemINS_12basic_stringIcNS_11char_traitsIcEENS_9allocatorIcEEE5__repELi0ELb0EEC2ENS_18__default_init_tagE
__ZNSt3__122__compressed_pair_elemINS_12basic_stringIcNS_11char_traitsIcEENS_9allocatorIcEEE5__repELi0ELb0EEC2ENS_18__default_init_tagE: ## @_ZNSt3__122__compressed_pair_elemINS_12basic_stringIcNS_11char_traitsIcEENS_9allocatorIcEEE5__repELi0ELb0EEC2ENS_18__default_init_tagE
	.cfi_startproc
## %bb.0:
	pushq	%rbp
	.cfi_def_cfa_offset 16
	.cfi_offset %rbp, -16
	movq	%rsp, %rbp
	.cfi_def_cfa_register %rbp
	movq	%rdi, -16(%rbp)
	popq	%rbp
	retq
	.cfi_endproc
                                        ## -- End function
	.p2align	4, 0x90                         ## -- Begin function _ZNSt3__122__compressed_pair_elemINS_9allocatorIcEELi1ELb1EEC2ENS_18__default_init_tagE
__ZNSt3__122__compressed_pair_elemINS_9allocatorIcEELi1ELb1EEC2ENS_18__default_init_tagE: ## @_ZNSt3__122__compressed_pair_elemINS_9allocatorIcEELi1ELb1EEC2ENS_18__default_init_tagE
	.cfi_startproc
## %bb.0:
	pushq	%rbp
	.cfi_def_cfa_offset 16
	.cfi_offset %rbp, -16
	movq	%rsp, %rbp
	.cfi_def_cfa_register %rbp
	subq	$16, %rsp
	movq	%rdi, -16(%rbp)
	movq	-16(%rbp), %rdi
	callq	__ZNSt3__19allocatorIcEC2Ev
	addq	$16, %rsp
	popq	%rbp
	retq
	.cfi_endproc
                                        ## -- End function
	.p2align	4, 0x90                         ## -- Begin function _ZNSt3__19allocatorIcEC2Ev
__ZNSt3__19allocatorIcEC2Ev:            ## @_ZNSt3__19allocatorIcEC2Ev
	.cfi_startproc
## %bb.0:
	pushq	%rbp
	.cfi_def_cfa_offset 16
	.cfi_offset %rbp, -16
	movq	%rsp, %rbp
	.cfi_def_cfa_register %rbp
	subq	$16, %rsp
	movq	%rdi, -8(%rbp)
	movq	-8(%rbp), %rdi
	callq	__ZNSt3__116__non_trivial_ifILb1ENS_9allocatorIcEEEC2Ev
	addq	$16, %rsp
	popq	%rbp
	retq
	.cfi_endproc
                                        ## -- End function
	.p2align	4, 0x90                         ## -- Begin function _ZNSt3__116__non_trivial_ifILb1ENS_9allocatorIcEEEC2Ev
__ZNSt3__116__non_trivial_ifILb1ENS_9allocatorIcEEEC2Ev: ## @_ZNSt3__116__non_trivial_ifILb1ENS_9allocatorIcEEEC2Ev
	.cfi_startproc
## %bb.0:
	pushq	%rbp
	.cfi_def_cfa_offset 16
	.cfi_offset %rbp, -16
	movq	%rsp, %rbp
	.cfi_def_cfa_register %rbp
	movq	%rdi, -8(%rbp)
	popq	%rbp
	retq
	.cfi_endproc
                                        ## -- End function
	.p2align	4, 0x90                         ## -- Begin function _ZNSt3__117__compressed_pairINS_12basic_stringIcNS_11char_traitsIcEENS_9allocatorIcEEE5__repES5_E5firstEv
__ZNSt3__117__compressed_pairINS_12basic_stringIcNS_11char_traitsIcEENS_9allocatorIcEEE5__repES5_E5firstEv: ## @_ZNSt3__117__compressed_pairINS_12basic_stringIcNS_11char_traitsIcEENS_9allocatorIcEEE5__repES5_E5firstEv
	.cfi_startproc
## %bb.0:
	pushq	%rbp
	.cfi_def_cfa_offset 16
	.cfi_offset %rbp, -16
	movq	%rsp, %rbp
	.cfi_def_cfa_register %rbp
	subq	$16, %rsp
	movq	%rdi, -8(%rbp)
	movq	-8(%rbp), %rdi
	callq	__ZNSt3__122__compressed_pair_elemINS_12basic_stringIcNS_11char_traitsIcEENS_9allocatorIcEEE5__repELi0ELb0EE5__getEv
	addq	$16, %rsp
	popq	%rbp
	retq
	.cfi_endproc
                                        ## -- End function
	.p2align	4, 0x90                         ## -- Begin function _ZNSt3__122__compressed_pair_elemINS_12basic_stringIcNS_11char_traitsIcEENS_9allocatorIcEEE5__repELi0ELb0EE5__getEv
__ZNSt3__122__compressed_pair_elemINS_12basic_stringIcNS_11char_traitsIcEENS_9allocatorIcEEE5__repELi0ELb0EE5__getEv: ## @_ZNSt3__122__compressed_pair_elemINS_12basic_stringIcNS_11char_traitsIcEENS_9allocatorIcEEE5__repELi0ELb0EE5__getEv
	.cfi_startproc
## %bb.0:
	pushq	%rbp
	.cfi_def_cfa_offset 16
	.cfi_offset %rbp, -16
	movq	%rsp, %rbp
	.cfi_def_cfa_register %rbp
	movq	%rdi, -8(%rbp)
	movq	-8(%rbp), %rax
	popq	%rbp
	retq
	.cfi_endproc
                                        ## -- End function
	.globl	__ZNSt3__124__put_character_sequenceIcNS_11char_traitsIcEEEERNS_13basic_ostreamIT_T0_EES7_PKS4_m ## -- Begin function _ZNSt3__124__put_character_sequenceIcNS_11char_traitsIcEEEERNS_13basic_ostreamIT_T0_EES7_PKS4_m
	.weak_definition	__ZNSt3__124__put_character_sequenceIcNS_11char_traitsIcEEEERNS_13basic_ostreamIT_T0_EES7_PKS4_m
	.p2align	4, 0x90
__ZNSt3__124__put_character_sequenceIcNS_11char_traitsIcEEEERNS_13basic_ostreamIT_T0_EES7_PKS4_m: ## @_ZNSt3__124__put_character_sequenceIcNS_11char_traitsIcEEEERNS_13basic_ostreamIT_T0_EES7_PKS4_m
Lfunc_begin9:
	.cfi_startproc
	.cfi_personality 155, ___gxx_personality_v0
	.cfi_lsda 16, Lexception9
## %bb.0:
	pushq	%rbp
	.cfi_def_cfa_offset 16
	.cfi_offset %rbp, -16
	movq	%rsp, %rbp
	.cfi_def_cfa_register %rbp
	subq	$144, %rsp
	movq	%rdx, %rcx
	movq	%rdi, -8(%rbp)
	movq	%rsi, -16(%rbp)
	movq	%rcx, -24(%rbp)
	movq	-8(%rbp), %rsi
Ltmp137:
	leaq	-40(%rbp), %rdi
	callq	__ZNSt3__113basic_ostreamIcNS_11char_traitsIcEEE6sentryC1ERS3_
Ltmp138:
	jmp	LBB88_1
LBB88_1:
Ltmp139:
	leaq	-40(%rbp), %rdi
	callq	__ZNKSt3__113basic_ostreamIcNS_11char_traitsIcEEE6sentrycvbEv
	movb	%al, %cl
Ltmp140:
	movb	%cl, -73(%rbp)                  ## 1-byte Spill
	jmp	LBB88_2
LBB88_2:
	movb	-73(%rbp), %al                  ## 1-byte Reload
	testb	$1, %al
	jne	LBB88_3
	jmp	LBB88_15
LBB88_3:
	movq	-8(%rbp), %rsi
	leaq	-72(%rbp), %rdi
	callq	__ZNSt3__119ostreambuf_iteratorIcNS_11char_traitsIcEEEC1ERNS_13basic_ostreamIcS2_EE
	movq	-16(%rbp), %rax
	movq	%rax, -88(%rbp)                 ## 8-byte Spill
	movq	-8(%rbp), %rdi
	movq	(%rdi), %rax
	movq	-24(%rax), %rax
	addq	%rax, %rdi
Ltmp141:
	callq	__ZNKSt3__18ios_base5flagsEv
	movl	%eax, %ecx
Ltmp142:
	movl	%ecx, -80(%rbp)                 ## 4-byte Spill
	jmp	LBB88_4
LBB88_4:
	movl	-80(%rbp), %eax                 ## 4-byte Reload
	andl	$176, %eax
	cmpl	$32, %eax
	jne	LBB88_6
## %bb.5:
	movq	-16(%rbp), %rax
	addq	-24(%rbp), %rax
	movq	%rax, -96(%rbp)                 ## 8-byte Spill
	jmp	LBB88_7
LBB88_6:
	movq	-16(%rbp), %rax
	movq	%rax, -96(%rbp)                 ## 8-byte Spill
LBB88_7:
	movq	-96(%rbp), %rcx                 ## 8-byte Reload
	movq	%rcx, -128(%rbp)                ## 8-byte Spill
	movq	-16(%rbp), %rcx
	movq	-24(%rbp), %rsi
	addq	%rsi, %rcx
	movq	%rcx, -120(%rbp)                ## 8-byte Spill
	movq	-8(%rbp), %rdi
	movq	(%rdi), %rcx
	movq	-24(%rcx), %rcx
	addq	%rcx, %rdi
	movq	%rdi, -112(%rbp)                ## 8-byte Spill
Ltmp143:
	callq	__ZNKSt3__19basic_iosIcNS_11char_traitsIcEEE4fillEv
	movb	%al, %cl
Ltmp144:
	movb	%cl, -97(%rbp)                  ## 1-byte Spill
	jmp	LBB88_8
LBB88_8:
	movq	-112(%rbp), %r8                 ## 8-byte Reload
	movq	-120(%rbp), %rcx                ## 8-byte Reload
	movq	-128(%rbp), %rdx                ## 8-byte Reload
	movq	-88(%rbp), %rsi                 ## 8-byte Reload
	movb	-97(%rbp), %al                  ## 1-byte Reload
	movq	-72(%rbp), %rdi
Ltmp145:
	movsbl	%al, %r9d
	callq	__ZNSt3__116__pad_and_outputIcNS_11char_traitsIcEEEENS_19ostreambuf_iteratorIT_T0_EES6_PKS4_S8_S8_RNS_8ios_baseES4_
	movq	%rax, %rcx
Ltmp146:
	movq	%rcx, -136(%rbp)                ## 8-byte Spill
	jmp	LBB88_9
LBB88_9:
	movq	-136(%rbp), %rax                ## 8-byte Reload
	movq	%rax, -64(%rbp)
	leaq	-64(%rbp), %rdi
	callq	__ZNKSt3__119ostreambuf_iteratorIcNS_11char_traitsIcEEE6failedEv
	testb	$1, %al
	jne	LBB88_10
	jmp	LBB88_14
LBB88_10:
	movq	-8(%rbp), %rdi
	movq	(%rdi), %rcx
	movq	-24(%rcx), %rcx
	addq	%rcx, %rdi
Ltmp147:
	movl	$5, %esi
	callq	__ZNSt3__19basic_iosIcNS_11char_traitsIcEEE8setstateEj
Ltmp148:
	jmp	LBB88_11
LBB88_11:
	jmp	LBB88_14
LBB88_12:
Ltmp154:
	movq	%rax, %rcx
	movl	%edx, %eax
	movq	%rcx, -48(%rbp)
	movl	%eax, -52(%rbp)
	jmp	LBB88_18
LBB88_13:
Ltmp149:
	movq	%rdx, %rcx
	movq	%rax, %rsi
                                        ## kill: def $ecx killed $ecx killed $rcx
	movq	%rsi, -48(%rbp)
	movl	%ecx, -52(%rbp)
Ltmp150:
	leaq	-40(%rbp), %rdi
	callq	__ZNSt3__113basic_ostreamIcNS_11char_traitsIcEEE6sentryD1Ev
Ltmp151:
	jmp	LBB88_17
LBB88_14:
	jmp	LBB88_15
LBB88_15:
Ltmp152:
	leaq	-40(%rbp), %rdi
	callq	__ZNSt3__113basic_ostreamIcNS_11char_traitsIcEEE6sentryD1Ev
Ltmp153:
	jmp	LBB88_16
LBB88_16:
	jmp	LBB88_20
LBB88_17:
	jmp	LBB88_18
LBB88_18:
	movq	-48(%rbp), %rdi
	callq	___cxa_begin_catch
                                        ## kill: def $rcx killed $rax
	movq	-8(%rbp), %rdi
	movq	(%rdi), %rcx
	movq	-24(%rcx), %rcx
	addq	%rcx, %rdi
Ltmp155:
	callq	__ZNSt3__18ios_base33__set_badbit_and_consider_rethrowEv
Ltmp156:
	jmp	LBB88_19
LBB88_19:
	callq	___cxa_end_catch
LBB88_20:
	movq	-8(%rbp), %rax
	addq	$144, %rsp
	popq	%rbp
	retq
LBB88_21:
Ltmp157:
	movq	%rdx, %rcx
	movq	%rax, %rsi
                                        ## kill: def $ecx killed $ecx killed $rcx
	movq	%rsi, -48(%rbp)
	movl	%ecx, -52(%rbp)
Ltmp158:
	callq	___cxa_end_catch
Ltmp159:
	jmp	LBB88_22
LBB88_22:
	jmp	LBB88_23
LBB88_23:
	movq	-48(%rbp), %rdi
	callq	__Unwind_Resume
LBB88_24:
Ltmp160:
	movq	%rax, %rdi
	callq	___clang_call_terminate
Lfunc_end9:
	.cfi_endproc
	.section	__TEXT,__gcc_except_tab
	.p2align	2
GCC_except_table88:
Lexception9:
	.byte	255                             ## @LPStart Encoding = omit
	.byte	155                             ## @TType Encoding = indirect pcrel sdata4
	.uleb128 Lttbase7-Lttbaseref7
Lttbaseref7:
	.byte	1                               ## Call site Encoding = uleb128
	.uleb128 Lcst_end9-Lcst_begin9
Lcst_begin9:
	.uleb128 Ltmp137-Lfunc_begin9           ## >> Call Site 1 <<
	.uleb128 Ltmp138-Ltmp137                ##   Call between Ltmp137 and Ltmp138
	.uleb128 Ltmp154-Lfunc_begin9           ##     jumps to Ltmp154
	.byte	1                               ##   On action: 1
	.uleb128 Ltmp139-Lfunc_begin9           ## >> Call Site 2 <<
	.uleb128 Ltmp148-Ltmp139                ##   Call between Ltmp139 and Ltmp148
	.uleb128 Ltmp149-Lfunc_begin9           ##     jumps to Ltmp149
	.byte	1                               ##   On action: 1
	.uleb128 Ltmp150-Lfunc_begin9           ## >> Call Site 3 <<
	.uleb128 Ltmp151-Ltmp150                ##   Call between Ltmp150 and Ltmp151
	.uleb128 Ltmp160-Lfunc_begin9           ##     jumps to Ltmp160
	.byte	1                               ##   On action: 1
	.uleb128 Ltmp152-Lfunc_begin9           ## >> Call Site 4 <<
	.uleb128 Ltmp153-Ltmp152                ##   Call between Ltmp152 and Ltmp153
	.uleb128 Ltmp154-Lfunc_begin9           ##     jumps to Ltmp154
	.byte	1                               ##   On action: 1
	.uleb128 Ltmp153-Lfunc_begin9           ## >> Call Site 5 <<
	.uleb128 Ltmp155-Ltmp153                ##   Call between Ltmp153 and Ltmp155
	.byte	0                               ##     has no landing pad
	.byte	0                               ##   On action: cleanup
	.uleb128 Ltmp155-Lfunc_begin9           ## >> Call Site 6 <<
	.uleb128 Ltmp156-Ltmp155                ##   Call between Ltmp155 and Ltmp156
	.uleb128 Ltmp157-Lfunc_begin9           ##     jumps to Ltmp157
	.byte	0                               ##   On action: cleanup
	.uleb128 Ltmp156-Lfunc_begin9           ## >> Call Site 7 <<
	.uleb128 Ltmp158-Ltmp156                ##   Call between Ltmp156 and Ltmp158
	.byte	0                               ##     has no landing pad
	.byte	0                               ##   On action: cleanup
	.uleb128 Ltmp158-Lfunc_begin9           ## >> Call Site 8 <<
	.uleb128 Ltmp159-Ltmp158                ##   Call between Ltmp158 and Ltmp159
	.uleb128 Ltmp160-Lfunc_begin9           ##     jumps to Ltmp160
	.byte	1                               ##   On action: 1
	.uleb128 Ltmp159-Lfunc_begin9           ## >> Call Site 9 <<
	.uleb128 Lfunc_end9-Ltmp159             ##   Call between Ltmp159 and Lfunc_end9
	.byte	0                               ##     has no landing pad
	.byte	0                               ##   On action: cleanup
Lcst_end9:
	.byte	1                               ## >> Action Record 1 <<
                                        ##   Catch TypeInfo 1
	.byte	0                               ##   No further actions
	.p2align	2
                                        ## >> Catch TypeInfos <<
	.long	0                               ## TypeInfo 1
Lttbase7:
	.p2align	2
                                        ## -- End function
	.section	__TEXT,__text,regular,pure_instructions
	.globl	__ZNSt3__111char_traitsIcE6lengthEPKc ## -- Begin function _ZNSt3__111char_traitsIcE6lengthEPKc
	.weak_definition	__ZNSt3__111char_traitsIcE6lengthEPKc
	.p2align	4, 0x90
__ZNSt3__111char_traitsIcE6lengthEPKc:  ## @_ZNSt3__111char_traitsIcE6lengthEPKc
	.cfi_startproc
## %bb.0:
	pushq	%rbp
	.cfi_def_cfa_offset 16
	.cfi_offset %rbp, -16
	movq	%rsp, %rbp
	.cfi_def_cfa_register %rbp
	subq	$16, %rsp
	movq	%rdi, -8(%rbp)
	movq	-8(%rbp), %rdi
	callq	_strlen
	addq	$16, %rsp
	popq	%rbp
	retq
	.cfi_endproc
                                        ## -- End function
	.p2align	4, 0x90                         ## -- Begin function _ZNKSt3__113basic_ostreamIcNS_11char_traitsIcEEE6sentrycvbEv
__ZNKSt3__113basic_ostreamIcNS_11char_traitsIcEEE6sentrycvbEv: ## @_ZNKSt3__113basic_ostreamIcNS_11char_traitsIcEEE6sentrycvbEv
	.cfi_startproc
## %bb.0:
	pushq	%rbp
	.cfi_def_cfa_offset 16
	.cfi_offset %rbp, -16
	movq	%rsp, %rbp
	.cfi_def_cfa_register %rbp
	movq	%rdi, -8(%rbp)
	movq	-8(%rbp), %rax
	movb	(%rax), %al
	andb	$1, %al
	movzbl	%al, %eax
	popq	%rbp
	retq
	.cfi_endproc
                                        ## -- End function
	.private_extern	__ZNSt3__116__pad_and_outputIcNS_11char_traitsIcEEEENS_19ostreambuf_iteratorIT_T0_EES6_PKS4_S8_S8_RNS_8ios_baseES4_ ## -- Begin function _ZNSt3__116__pad_and_outputIcNS_11char_traitsIcEEEENS_19ostreambuf_iteratorIT_T0_EES6_PKS4_S8_S8_RNS_8ios_baseES4_
	.globl	__ZNSt3__116__pad_and_outputIcNS_11char_traitsIcEEEENS_19ostreambuf_iteratorIT_T0_EES6_PKS4_S8_S8_RNS_8ios_baseES4_
	.weak_definition	__ZNSt3__116__pad_and_outputIcNS_11char_traitsIcEEEENS_19ostreambuf_iteratorIT_T0_EES6_PKS4_S8_S8_RNS_8ios_baseES4_
	.p2align	4, 0x90
__ZNSt3__116__pad_and_outputIcNS_11char_traitsIcEEEENS_19ostreambuf_iteratorIT_T0_EES6_PKS4_S8_S8_RNS_8ios_baseES4_: ## @_ZNSt3__116__pad_and_outputIcNS_11char_traitsIcEEEENS_19ostreambuf_iteratorIT_T0_EES6_PKS4_S8_S8_RNS_8ios_baseES4_
Lfunc_begin10:
	.cfi_startproc
	.cfi_personality 155, ___gxx_personality_v0
	.cfi_lsda 16, Lexception10
## %bb.0:
	pushq	%rbp
	.cfi_def_cfa_offset 16
	.cfi_offset %rbp, -16
	movq	%rsp, %rbp
	.cfi_def_cfa_register %rbp
	subq	$208, %rsp
	movb	%r9b, %al
	movq	%rdi, -16(%rbp)
	movq	%rsi, -24(%rbp)
	movq	%rdx, -32(%rbp)
	movq	%rcx, -40(%rbp)
	movq	%r8, -48(%rbp)
	movb	%al, -49(%rbp)
	movq	-16(%rbp), %rax
	movq	%rax, -168(%rbp)                ## 8-byte Spill
	callq	__ZNSt3__1L15__get_nullptr_tEv
	movq	%rax, -64(%rbp)
	leaq	-64(%rbp), %rdi
	callq	__ZNKSt3__19nullptr_tcvPT_INS_15basic_streambufIcNS_11char_traitsIcEEEEEEv
	movq	%rax, %rcx
	movq	-168(%rbp), %rax                ## 8-byte Reload
	cmpq	%rcx, %rax
	jne	LBB91_2
## %bb.1:
	movq	-16(%rbp), %rax
	movq	%rax, -8(%rbp)
	jmp	LBB91_25
LBB91_2:
	movq	-40(%rbp), %rax
	movq	-24(%rbp), %rcx
	subq	%rcx, %rax
	movq	%rax, -72(%rbp)
	movq	-48(%rbp), %rdi
	callq	__ZNKSt3__18ios_base5widthEv
	movq	%rax, -80(%rbp)
	movq	-80(%rbp), %rax
	cmpq	-72(%rbp), %rax
	jle	LBB91_4
## %bb.3:
	movq	-72(%rbp), %rcx
	movq	-80(%rbp), %rax
	subq	%rcx, %rax
	movq	%rax, -80(%rbp)
	jmp	LBB91_5
LBB91_4:
	movq	$0, -80(%rbp)
LBB91_5:
	movq	-32(%rbp), %rax
	movq	-24(%rbp), %rcx
	subq	%rcx, %rax
	movq	%rax, -88(%rbp)
	cmpq	$0, -88(%rbp)
	jle	LBB91_9
## %bb.6:
	movq	-16(%rbp), %rdi
	movq	-24(%rbp), %rsi
	movq	-88(%rbp), %rdx
	callq	__ZNSt3__115basic_streambufIcNS_11char_traitsIcEEE5sputnEPKcl
	cmpq	-88(%rbp), %rax
	je	LBB91_8
## %bb.7:
	callq	__ZNSt3__1L15__get_nullptr_tEv
	movq	%rax, -96(%rbp)
	leaq	-96(%rbp), %rdi
	callq	__ZNKSt3__19nullptr_tcvPT_INS_15basic_streambufIcNS_11char_traitsIcEEEEEEv
	movq	%rax, -16(%rbp)
	movq	-16(%rbp), %rax
	movq	%rax, -8(%rbp)
	jmp	LBB91_25
LBB91_8:
	jmp	LBB91_9
LBB91_9:
	cmpq	$0, -80(%rbp)
	jle	LBB91_20
## %bb.10:
	movq	-80(%rbp), %rsi
	movsbl	-49(%rbp), %edx
	leaq	-120(%rbp), %rdi
	movq	%rdi, -192(%rbp)                ## 8-byte Spill
	callq	__ZNSt3__112basic_stringIcNS_11char_traitsIcEENS_9allocatorIcEEEC1Emc
	movq	-192(%rbp), %rdi                ## 8-byte Reload
	movq	-16(%rbp), %rax
	movq	%rax, -184(%rbp)                ## 8-byte Spill
	callq	__ZNKSt3__112basic_stringIcNS_11char_traitsIcEENS_9allocatorIcEEE4dataEv
	movq	-184(%rbp), %rdi                ## 8-byte Reload
	movq	%rax, %rsi
	movq	-80(%rbp), %rdx
Ltmp161:
	callq	__ZNSt3__115basic_streambufIcNS_11char_traitsIcEEE5sputnEPKcl
	movq	%rax, %rcx
Ltmp162:
	movq	%rcx, -176(%rbp)                ## 8-byte Spill
	jmp	LBB91_11
LBB91_11:
	movq	-176(%rbp), %rax                ## 8-byte Reload
	cmpq	-80(%rbp), %rax
	je	LBB91_16
## %bb.12:
Ltmp163:
	callq	__ZNSt3__1L15__get_nullptr_tEv
	movq	%rax, %rcx
Ltmp164:
	movq	%rcx, -200(%rbp)                ## 8-byte Spill
	jmp	LBB91_13
LBB91_13:
	movq	-200(%rbp), %rax                ## 8-byte Reload
	movq	%rax, -144(%rbp)
Ltmp165:
	leaq	-144(%rbp), %rdi
	callq	__ZNKSt3__19nullptr_tcvPT_INS_15basic_streambufIcNS_11char_traitsIcEEEEEEv
	movq	%rax, %rcx
Ltmp166:
	movq	%rcx, -208(%rbp)                ## 8-byte Spill
	jmp	LBB91_14
LBB91_14:
	movq	-208(%rbp), %rax                ## 8-byte Reload
	movq	%rax, -16(%rbp)
	movq	-16(%rbp), %rax
	movq	%rax, -8(%rbp)
	movl	$1, -148(%rbp)
	jmp	LBB91_17
LBB91_15:
Ltmp167:
	movq	%rdx, %rcx
	movq	%rax, %rsi
                                        ## kill: def $ecx killed $ecx killed $rcx
	movq	%rsi, -128(%rbp)
	movl	%ecx, -132(%rbp)
Ltmp168:
	leaq	-120(%rbp), %rdi
	callq	__ZNSt3__112basic_stringIcNS_11char_traitsIcEENS_9allocatorIcEEED1Ev
Ltmp169:
	jmp	LBB91_19
LBB91_16:
	movl	$0, -148(%rbp)
LBB91_17:
	leaq	-120(%rbp), %rdi
	callq	__ZNSt3__112basic_stringIcNS_11char_traitsIcEENS_9allocatorIcEEED1Ev
	movl	-148(%rbp), %eax
	testl	%eax, %eax
	je	LBB91_18
	jmp	LBB91_29
LBB91_29:
	jmp	LBB91_25
LBB91_18:
	jmp	LBB91_20
LBB91_19:
	jmp	LBB91_26
LBB91_20:
	movq	-40(%rbp), %rax
	movq	-32(%rbp), %rcx
	subq	%rcx, %rax
	movq	%rax, -88(%rbp)
	cmpq	$0, -88(%rbp)
	jle	LBB91_24
## %bb.21:
	movq	-16(%rbp), %rdi
	movq	-32(%rbp), %rsi
	movq	-88(%rbp), %rdx
	callq	__ZNSt3__115basic_streambufIcNS_11char_traitsIcEEE5sputnEPKcl
	cmpq	-88(%rbp), %rax
	je	LBB91_23
## %bb.22:
	callq	__ZNSt3__1L15__get_nullptr_tEv
	movq	%rax, -160(%rbp)
	leaq	-160(%rbp), %rdi
	callq	__ZNKSt3__19nullptr_tcvPT_INS_15basic_streambufIcNS_11char_traitsIcEEEEEEv
	movq	%rax, -16(%rbp)
	movq	-16(%rbp), %rax
	movq	%rax, -8(%rbp)
	jmp	LBB91_25
LBB91_23:
	jmp	LBB91_24
LBB91_24:
	xorl	%eax, %eax
	movl	%eax, %esi
	movq	-48(%rbp), %rdi
	callq	__ZNSt3__18ios_base5widthEl
	movq	-16(%rbp), %rax
	movq	%rax, -8(%rbp)
LBB91_25:
	movq	-8(%rbp), %rax
	addq	$208, %rsp
	popq	%rbp
	retq
LBB91_26:
	movq	-128(%rbp), %rdi
	callq	__Unwind_Resume
LBB91_27:
Ltmp170:
	movq	%rax, %rdi
	callq	___clang_call_terminate
## %bb.28:
	ud2
Lfunc_end10:
	.cfi_endproc
	.section	__TEXT,__gcc_except_tab
	.p2align	2
GCC_except_table91:
Lexception10:
	.byte	255                             ## @LPStart Encoding = omit
	.byte	155                             ## @TType Encoding = indirect pcrel sdata4
	.uleb128 Lttbase8-Lttbaseref8
Lttbaseref8:
	.byte	1                               ## Call site Encoding = uleb128
	.uleb128 Lcst_end10-Lcst_begin10
Lcst_begin10:
	.uleb128 Lfunc_begin10-Lfunc_begin10    ## >> Call Site 1 <<
	.uleb128 Ltmp161-Lfunc_begin10          ##   Call between Lfunc_begin10 and Ltmp161
	.byte	0                               ##     has no landing pad
	.byte	0                               ##   On action: cleanup
	.uleb128 Ltmp161-Lfunc_begin10          ## >> Call Site 2 <<
	.uleb128 Ltmp166-Ltmp161                ##   Call between Ltmp161 and Ltmp166
	.uleb128 Ltmp167-Lfunc_begin10          ##     jumps to Ltmp167
	.byte	0                               ##   On action: cleanup
	.uleb128 Ltmp168-Lfunc_begin10          ## >> Call Site 3 <<
	.uleb128 Ltmp169-Ltmp168                ##   Call between Ltmp168 and Ltmp169
	.uleb128 Ltmp170-Lfunc_begin10          ##     jumps to Ltmp170
	.byte	1                               ##   On action: 1
	.uleb128 Ltmp169-Lfunc_begin10          ## >> Call Site 4 <<
	.uleb128 Lfunc_end10-Ltmp169            ##   Call between Ltmp169 and Lfunc_end10
	.byte	0                               ##     has no landing pad
	.byte	0                               ##   On action: cleanup
Lcst_end10:
	.byte	1                               ## >> Action Record 1 <<
                                        ##   Catch TypeInfo 1
	.byte	0                               ##   No further actions
	.p2align	2
                                        ## >> Catch TypeInfos <<
	.long	0                               ## TypeInfo 1
Lttbase8:
	.p2align	2
                                        ## -- End function
	.section	__TEXT,__text,regular,pure_instructions
	.p2align	4, 0x90                         ## -- Begin function _ZNSt3__119ostreambuf_iteratorIcNS_11char_traitsIcEEEC1ERNS_13basic_ostreamIcS2_EE
__ZNSt3__119ostreambuf_iteratorIcNS_11char_traitsIcEEEC1ERNS_13basic_ostreamIcS2_EE: ## @_ZNSt3__119ostreambuf_iteratorIcNS_11char_traitsIcEEEC1ERNS_13basic_ostreamIcS2_EE
	.cfi_startproc
## %bb.0:
	pushq	%rbp
	.cfi_def_cfa_offset 16
	.cfi_offset %rbp, -16
	movq	%rsp, %rbp
	.cfi_def_cfa_register %rbp
	subq	$16, %rsp
	movq	%rdi, -8(%rbp)
	movq	%rsi, -16(%rbp)
	movq	-8(%rbp), %rdi
	movq	-16(%rbp), %rsi
	callq	__ZNSt3__119ostreambuf_iteratorIcNS_11char_traitsIcEEEC2ERNS_13basic_ostreamIcS2_EE
	addq	$16, %rsp
	popq	%rbp
	retq
	.cfi_endproc
                                        ## -- End function
	.p2align	4, 0x90                         ## -- Begin function _ZNKSt3__18ios_base5flagsEv
__ZNKSt3__18ios_base5flagsEv:           ## @_ZNKSt3__18ios_base5flagsEv
	.cfi_startproc
## %bb.0:
	pushq	%rbp
	.cfi_def_cfa_offset 16
	.cfi_offset %rbp, -16
	movq	%rsp, %rbp
	.cfi_def_cfa_register %rbp
	movq	%rdi, -8(%rbp)
	movq	-8(%rbp), %rax
	movl	8(%rax), %eax
	popq	%rbp
	retq
	.cfi_endproc
                                        ## -- End function
	.p2align	4, 0x90                         ## -- Begin function _ZNKSt3__19basic_iosIcNS_11char_traitsIcEEE4fillEv
__ZNKSt3__19basic_iosIcNS_11char_traitsIcEEE4fillEv: ## @_ZNKSt3__19basic_iosIcNS_11char_traitsIcEEE4fillEv
	.cfi_startproc
## %bb.0:
	pushq	%rbp
	.cfi_def_cfa_offset 16
	.cfi_offset %rbp, -16
	movq	%rsp, %rbp
	.cfi_def_cfa_register %rbp
	subq	$16, %rsp
	movq	%rdi, -8(%rbp)
	movq	-8(%rbp), %rax
	movq	%rax, -16(%rbp)                 ## 8-byte Spill
	callq	__ZNSt3__111char_traitsIcE3eofEv
	movl	%eax, %edi
	movq	-16(%rbp), %rax                 ## 8-byte Reload
	movl	144(%rax), %esi
	callq	__ZNSt3__111char_traitsIcE11eq_int_typeEii
	testb	$1, %al
	jne	LBB94_1
	jmp	LBB94_2
LBB94_1:
	movq	-16(%rbp), %rdi                 ## 8-byte Reload
	movl	$32, %esi
	callq	__ZNKSt3__19basic_iosIcNS_11char_traitsIcEEE5widenEc
	movb	%al, %cl
	movq	-16(%rbp), %rax                 ## 8-byte Reload
	movsbl	%cl, %ecx
	movl	%ecx, 144(%rax)
LBB94_2:
	movq	-16(%rbp), %rax                 ## 8-byte Reload
	movl	144(%rax), %eax
                                        ## kill: def $al killed $al killed $eax
	movsbl	%al, %eax
	addq	$16, %rsp
	popq	%rbp
	retq
	.cfi_endproc
                                        ## -- End function
	.p2align	4, 0x90                         ## -- Begin function _ZNKSt3__119ostreambuf_iteratorIcNS_11char_traitsIcEEE6failedEv
__ZNKSt3__119ostreambuf_iteratorIcNS_11char_traitsIcEEE6failedEv: ## @_ZNKSt3__119ostreambuf_iteratorIcNS_11char_traitsIcEEE6failedEv
Lfunc_begin11:
	.cfi_startproc
	.cfi_personality 155, ___gxx_personality_v0
	.cfi_lsda 16, Lexception11
## %bb.0:
	pushq	%rbp
	.cfi_def_cfa_offset 16
	.cfi_offset %rbp, -16
	movq	%rsp, %rbp
	.cfi_def_cfa_register %rbp
	subq	$48, %rsp
	movq	%rdi, -8(%rbp)
	movq	-8(%rbp), %rax
	movq	(%rax), %rax
	movq	%rax, -48(%rbp)                 ## 8-byte Spill
Ltmp171:
	callq	__ZNSt3__1L15__get_nullptr_tEv
	movq	%rax, %rcx
Ltmp172:
	movq	%rcx, -40(%rbp)                 ## 8-byte Spill
	jmp	LBB95_1
LBB95_1:
	movq	-40(%rbp), %rax                 ## 8-byte Reload
	movq	%rax, -16(%rbp)
	leaq	-16(%rbp), %rdi
	callq	__ZNKSt3__19nullptr_tcvPT_INS_15basic_streambufIcNS_11char_traitsIcEEEEEEv
	movq	%rax, %rcx
	movq	-48(%rbp), %rax                 ## 8-byte Reload
	cmpq	%rcx, %rax
	sete	%al
	andb	$1, %al
	movzbl	%al, %eax
	addq	$48, %rsp
	popq	%rbp
	retq
LBB95_2:
Ltmp173:
	movq	%rax, %rcx
	movl	%edx, %eax
	movq	%rcx, -24(%rbp)
	movl	%eax, -28(%rbp)
## %bb.3:
	movq	-24(%rbp), %rdi
	callq	___cxa_call_unexpected
Lfunc_end11:
	.cfi_endproc
	.section	__TEXT,__gcc_except_tab
	.p2align	2
GCC_except_table95:
Lexception11:
	.byte	255                             ## @LPStart Encoding = omit
	.byte	155                             ## @TType Encoding = indirect pcrel sdata4
	.uleb128 Lttbase9-Lttbaseref9
Lttbaseref9:
	.byte	1                               ## Call site Encoding = uleb128
	.uleb128 Lcst_end11-Lcst_begin11
Lcst_begin11:
	.uleb128 Ltmp171-Lfunc_begin11          ## >> Call Site 1 <<
	.uleb128 Ltmp172-Ltmp171                ##   Call between Ltmp171 and Ltmp172
	.uleb128 Ltmp173-Lfunc_begin11          ##     jumps to Ltmp173
	.byte	1                               ##   On action: 1
	.uleb128 Ltmp172-Lfunc_begin11          ## >> Call Site 2 <<
	.uleb128 Lfunc_end11-Ltmp172            ##   Call between Ltmp172 and Lfunc_end11
	.byte	0                               ##     has no landing pad
	.byte	0                               ##   On action: cleanup
Lcst_end11:
	.byte	127                             ## >> Action Record 1 <<
                                        ##   Filter TypeInfo -1
	.byte	0                               ##   No further actions
	.p2align	2
Lttbase9:
                                        ## >> Filter TypeInfos <<
	.byte	0
	.p2align	2
                                        ## -- End function
	.section	__TEXT,__text,regular,pure_instructions
	.p2align	4, 0x90                         ## -- Begin function _ZNSt3__19basic_iosIcNS_11char_traitsIcEEE8setstateEj
__ZNSt3__19basic_iosIcNS_11char_traitsIcEEE8setstateEj: ## @_ZNSt3__19basic_iosIcNS_11char_traitsIcEEE8setstateEj
	.cfi_startproc
## %bb.0:
	pushq	%rbp
	.cfi_def_cfa_offset 16
	.cfi_offset %rbp, -16
	movq	%rsp, %rbp
	.cfi_def_cfa_register %rbp
	subq	$16, %rsp
	movq	%rdi, -8(%rbp)
	movl	%esi, -12(%rbp)
	movq	-8(%rbp), %rdi
	movl	-12(%rbp), %esi
	callq	__ZNSt3__18ios_base8setstateEj
	addq	$16, %rsp
	popq	%rbp
	retq
	.cfi_endproc
                                        ## -- End function
	.p2align	4, 0x90                         ## -- Begin function _ZNKSt3__19nullptr_tcvPT_INS_15basic_streambufIcNS_11char_traitsIcEEEEEEv
__ZNKSt3__19nullptr_tcvPT_INS_15basic_streambufIcNS_11char_traitsIcEEEEEEv: ## @_ZNKSt3__19nullptr_tcvPT_INS_15basic_streambufIcNS_11char_traitsIcEEEEEEv
	.cfi_startproc
## %bb.0:
	pushq	%rbp
	.cfi_def_cfa_offset 16
	.cfi_offset %rbp, -16
	movq	%rsp, %rbp
	.cfi_def_cfa_register %rbp
	xorl	%eax, %eax
                                        ## kill: def $rax killed $eax
	movq	%rdi, -8(%rbp)
	popq	%rbp
	retq
	.cfi_endproc
                                        ## -- End function
	.p2align	4, 0x90                         ## -- Begin function _ZNKSt3__18ios_base5widthEv
__ZNKSt3__18ios_base5widthEv:           ## @_ZNKSt3__18ios_base5widthEv
	.cfi_startproc
## %bb.0:
	pushq	%rbp
	.cfi_def_cfa_offset 16
	.cfi_offset %rbp, -16
	movq	%rsp, %rbp
	.cfi_def_cfa_register %rbp
	movq	%rdi, -8(%rbp)
	movq	-8(%rbp), %rax
	movq	24(%rax), %rax
	popq	%rbp
	retq
	.cfi_endproc
                                        ## -- End function
	.p2align	4, 0x90                         ## -- Begin function _ZNSt3__115basic_streambufIcNS_11char_traitsIcEEE5sputnEPKcl
__ZNSt3__115basic_streambufIcNS_11char_traitsIcEEE5sputnEPKcl: ## @_ZNSt3__115basic_streambufIcNS_11char_traitsIcEEE5sputnEPKcl
	.cfi_startproc
## %bb.0:
	pushq	%rbp
	.cfi_def_cfa_offset 16
	.cfi_offset %rbp, -16
	movq	%rsp, %rbp
	.cfi_def_cfa_register %rbp
	subq	$32, %rsp
	movq	%rdi, -8(%rbp)
	movq	%rsi, -16(%rbp)
	movq	%rdx, -24(%rbp)
	movq	-8(%rbp), %rdi
	movq	-16(%rbp), %rsi
	movq	-24(%rbp), %rdx
	movq	(%rdi), %rax
	callq	*96(%rax)
	addq	$32, %rsp
	popq	%rbp
	retq
	.cfi_endproc
                                        ## -- End function
	.p2align	4, 0x90                         ## -- Begin function _ZNSt3__112basic_stringIcNS_11char_traitsIcEENS_9allocatorIcEEEC1Emc
__ZNSt3__112basic_stringIcNS_11char_traitsIcEENS_9allocatorIcEEEC1Emc: ## @_ZNSt3__112basic_stringIcNS_11char_traitsIcEENS_9allocatorIcEEEC1Emc
	.cfi_startproc
## %bb.0:
	pushq	%rbp
	.cfi_def_cfa_offset 16
	.cfi_offset %rbp, -16
	movq	%rsp, %rbp
	.cfi_def_cfa_register %rbp
	subq	$32, %rsp
	movb	%dl, %al
	movq	%rdi, -8(%rbp)
	movq	%rsi, -16(%rbp)
	movb	%al, -17(%rbp)
	movq	-8(%rbp), %rdi
	movq	-16(%rbp), %rsi
	movsbl	-17(%rbp), %edx
	callq	__ZNSt3__112basic_stringIcNS_11char_traitsIcEENS_9allocatorIcEEEC2Emc
	addq	$32, %rsp
	popq	%rbp
	retq
	.cfi_endproc
                                        ## -- End function
	.p2align	4, 0x90                         ## -- Begin function _ZNSt3__18ios_base5widthEl
__ZNSt3__18ios_base5widthEl:            ## @_ZNSt3__18ios_base5widthEl
	.cfi_startproc
## %bb.0:
	pushq	%rbp
	.cfi_def_cfa_offset 16
	.cfi_offset %rbp, -16
	movq	%rsp, %rbp
	.cfi_def_cfa_register %rbp
	movq	%rdi, -8(%rbp)
	movq	%rsi, -16(%rbp)
	movq	-8(%rbp), %rax
	movq	24(%rax), %rcx
	movq	%rcx, -24(%rbp)
	movq	-16(%rbp), %rcx
	movq	%rcx, 24(%rax)
	movq	-24(%rbp), %rax
	popq	%rbp
	retq
	.cfi_endproc
                                        ## -- End function
	.p2align	4, 0x90                         ## -- Begin function _ZNSt3__112basic_stringIcNS_11char_traitsIcEENS_9allocatorIcEEEC2Emc
__ZNSt3__112basic_stringIcNS_11char_traitsIcEENS_9allocatorIcEEEC2Emc: ## @_ZNSt3__112basic_stringIcNS_11char_traitsIcEENS_9allocatorIcEEEC2Emc
	.cfi_startproc
## %bb.0:
	pushq	%rbp
	.cfi_def_cfa_offset 16
	.cfi_offset %rbp, -16
	movq	%rsp, %rbp
	.cfi_def_cfa_register %rbp
	subq	$48, %rsp
	movb	%dl, %al
	movq	%rdi, -8(%rbp)
	movq	%rsi, -16(%rbp)
	movb	%al, -17(%rbp)
	movq	-8(%rbp), %rdi
	movq	%rdi, -40(%rbp)                 ## 8-byte Spill
	leaq	-24(%rbp), %rsi
	leaq	-32(%rbp), %rdx
	callq	__ZNSt3__117__compressed_pairINS_12basic_stringIcNS_11char_traitsIcEENS_9allocatorIcEEE5__repES5_EC1INS_18__default_init_tagESA_EEOT_OT0_
	movq	-40(%rbp), %rdi                 ## 8-byte Reload
	movq	-16(%rbp), %rsi
	movsbl	-17(%rbp), %edx
	callq	__ZNSt3__112basic_stringIcNS_11char_traitsIcEENS_9allocatorIcEEE6__initEmc
	addq	$48, %rsp
	popq	%rbp
	retq
	.cfi_endproc
                                        ## -- End function
	.p2align	4, 0x90                         ## -- Begin function _ZNSt3__119ostreambuf_iteratorIcNS_11char_traitsIcEEEC2ERNS_13basic_ostreamIcS2_EE
__ZNSt3__119ostreambuf_iteratorIcNS_11char_traitsIcEEEC2ERNS_13basic_ostreamIcS2_EE: ## @_ZNSt3__119ostreambuf_iteratorIcNS_11char_traitsIcEEEC2ERNS_13basic_ostreamIcS2_EE
Lfunc_begin12:
	.cfi_startproc
	.cfi_personality 155, ___gxx_personality_v0
	.cfi_lsda 16, Lexception12
## %bb.0:
	pushq	%rbp
	.cfi_def_cfa_offset 16
	.cfi_offset %rbp, -16
	movq	%rsp, %rbp
	.cfi_def_cfa_register %rbp
	subq	$48, %rsp
	movq	%rdi, -8(%rbp)
	movq	%rsi, -16(%rbp)
	movq	-8(%rbp), %rax
	movq	%rax, -48(%rbp)                 ## 8-byte Spill
	movq	-16(%rbp), %rdi
	movq	(%rdi), %rax
	movq	-24(%rax), %rax
	addq	%rax, %rdi
Ltmp174:
	callq	__ZNKSt3__19basic_iosIcNS_11char_traitsIcEEE5rdbufEv
	movq	%rax, %rcx
Ltmp175:
	movq	%rcx, -40(%rbp)                 ## 8-byte Spill
	jmp	LBB103_1
LBB103_1:
	movq	-48(%rbp), %rax                 ## 8-byte Reload
	movq	-40(%rbp), %rcx                 ## 8-byte Reload
	movq	%rcx, (%rax)
	addq	$48, %rsp
	popq	%rbp
	retq
LBB103_2:
Ltmp176:
	movq	%rax, %rcx
	movl	%edx, %eax
	movq	%rcx, -24(%rbp)
	movl	%eax, -28(%rbp)
## %bb.3:
	movq	-24(%rbp), %rdi
	callq	___cxa_call_unexpected
Lfunc_end12:
	.cfi_endproc
	.section	__TEXT,__gcc_except_tab
	.p2align	2
GCC_except_table103:
Lexception12:
	.byte	255                             ## @LPStart Encoding = omit
	.byte	155                             ## @TType Encoding = indirect pcrel sdata4
	.uleb128 Lttbase10-Lttbaseref10
Lttbaseref10:
	.byte	1                               ## Call site Encoding = uleb128
	.uleb128 Lcst_end12-Lcst_begin12
Lcst_begin12:
	.uleb128 Ltmp174-Lfunc_begin12          ## >> Call Site 1 <<
	.uleb128 Ltmp175-Ltmp174                ##   Call between Ltmp174 and Ltmp175
	.uleb128 Ltmp176-Lfunc_begin12          ##     jumps to Ltmp176
	.byte	1                               ##   On action: 1
	.uleb128 Ltmp175-Lfunc_begin12          ## >> Call Site 2 <<
	.uleb128 Lfunc_end12-Ltmp175            ##   Call between Ltmp175 and Lfunc_end12
	.byte	0                               ##     has no landing pad
	.byte	0                               ##   On action: cleanup
Lcst_end12:
	.byte	127                             ## >> Action Record 1 <<
                                        ##   Filter TypeInfo -1
	.byte	0                               ##   No further actions
	.p2align	2
Lttbase10:
                                        ## >> Filter TypeInfos <<
	.byte	0
	.p2align	2
                                        ## -- End function
	.section	__TEXT,__text,regular,pure_instructions
	.p2align	4, 0x90                         ## -- Begin function _ZNKSt3__19basic_iosIcNS_11char_traitsIcEEE5rdbufEv
__ZNKSt3__19basic_iosIcNS_11char_traitsIcEEE5rdbufEv: ## @_ZNKSt3__19basic_iosIcNS_11char_traitsIcEEE5rdbufEv
	.cfi_startproc
## %bb.0:
	pushq	%rbp
	.cfi_def_cfa_offset 16
	.cfi_offset %rbp, -16
	movq	%rsp, %rbp
	.cfi_def_cfa_register %rbp
	subq	$16, %rsp
	movq	%rdi, -8(%rbp)
	movq	-8(%rbp), %rdi
	callq	__ZNKSt3__18ios_base5rdbufEv
	addq	$16, %rsp
	popq	%rbp
	retq
	.cfi_endproc
                                        ## -- End function
	.p2align	4, 0x90                         ## -- Begin function _ZNKSt3__18ios_base5rdbufEv
__ZNKSt3__18ios_base5rdbufEv:           ## @_ZNKSt3__18ios_base5rdbufEv
	.cfi_startproc
## %bb.0:
	pushq	%rbp
	.cfi_def_cfa_offset 16
	.cfi_offset %rbp, -16
	movq	%rsp, %rbp
	.cfi_def_cfa_register %rbp
	movq	%rdi, -8(%rbp)
	movq	-8(%rbp), %rax
	movq	40(%rax), %rax
	popq	%rbp
	retq
	.cfi_endproc
                                        ## -- End function
	.p2align	4, 0x90                         ## -- Begin function _ZNKSt3__19basic_iosIcNS_11char_traitsIcEEE5widenEc
__ZNKSt3__19basic_iosIcNS_11char_traitsIcEEE5widenEc: ## @_ZNKSt3__19basic_iosIcNS_11char_traitsIcEEE5widenEc
Lfunc_begin13:
	.cfi_startproc
	.cfi_personality 155, ___gxx_personality_v0
	.cfi_lsda 16, Lexception13
## %bb.0:
	pushq	%rbp
	.cfi_def_cfa_offset 16
	.cfi_offset %rbp, -16
	movq	%rsp, %rbp
	.cfi_def_cfa_register %rbp
	subq	$64, %rsp
	movb	%sil, %al
	movq	%rdi, -8(%rbp)
	movb	%al, -9(%rbp)
	movq	-8(%rbp), %rsi
	leaq	-24(%rbp), %rdi
	movq	%rdi, -56(%rbp)                 ## 8-byte Spill
	callq	__ZNKSt3__18ios_base6getlocEv
	movq	-56(%rbp), %rdi                 ## 8-byte Reload
Ltmp177:
	callq	__ZNSt3__1L9use_facetINS_5ctypeIcEEEERKT_RKNS_6localeE
	movq	%rax, %rcx
Ltmp178:
	movq	%rcx, -48(%rbp)                 ## 8-byte Spill
	jmp	LBB106_1
LBB106_1:
	movq	-48(%rbp), %rdi                 ## 8-byte Reload
	movsbl	-9(%rbp), %esi
Ltmp179:
	callq	__ZNKSt3__15ctypeIcE5widenEc
	movb	%al, %cl
Ltmp180:
	movb	%cl, -57(%rbp)                  ## 1-byte Spill
	jmp	LBB106_2
LBB106_2:
	leaq	-24(%rbp), %rdi
	callq	__ZNSt3__16localeD1Ev
	movb	-57(%rbp), %al                  ## 1-byte Reload
	movsbl	%al, %eax
	addq	$64, %rsp
	popq	%rbp
	retq
LBB106_3:
Ltmp181:
	movq	%rdx, %rcx
	movq	%rax, %rsi
                                        ## kill: def $ecx killed $ecx killed $rcx
	movq	%rsi, -32(%rbp)
	movl	%ecx, -36(%rbp)
Ltmp182:
	leaq	-24(%rbp), %rdi
	callq	__ZNSt3__16localeD1Ev
Ltmp183:
	jmp	LBB106_4
LBB106_4:
	jmp	LBB106_5
LBB106_5:
	movq	-32(%rbp), %rdi
	callq	__Unwind_Resume
LBB106_6:
Ltmp184:
	movq	%rax, %rdi
	callq	___clang_call_terminate
Lfunc_end13:
	.cfi_endproc
	.section	__TEXT,__gcc_except_tab
	.p2align	2
GCC_except_table106:
Lexception13:
	.byte	255                             ## @LPStart Encoding = omit
	.byte	155                             ## @TType Encoding = indirect pcrel sdata4
	.uleb128 Lttbase11-Lttbaseref11
Lttbaseref11:
	.byte	1                               ## Call site Encoding = uleb128
	.uleb128 Lcst_end13-Lcst_begin13
Lcst_begin13:
	.uleb128 Lfunc_begin13-Lfunc_begin13    ## >> Call Site 1 <<
	.uleb128 Ltmp177-Lfunc_begin13          ##   Call between Lfunc_begin13 and Ltmp177
	.byte	0                               ##     has no landing pad
	.byte	0                               ##   On action: cleanup
	.uleb128 Ltmp177-Lfunc_begin13          ## >> Call Site 2 <<
	.uleb128 Ltmp180-Ltmp177                ##   Call between Ltmp177 and Ltmp180
	.uleb128 Ltmp181-Lfunc_begin13          ##     jumps to Ltmp181
	.byte	0                               ##   On action: cleanup
	.uleb128 Ltmp180-Lfunc_begin13          ## >> Call Site 3 <<
	.uleb128 Ltmp182-Ltmp180                ##   Call between Ltmp180 and Ltmp182
	.byte	0                               ##     has no landing pad
	.byte	0                               ##   On action: cleanup
	.uleb128 Ltmp182-Lfunc_begin13          ## >> Call Site 4 <<
	.uleb128 Ltmp183-Ltmp182                ##   Call between Ltmp182 and Ltmp183
	.uleb128 Ltmp184-Lfunc_begin13          ##     jumps to Ltmp184
	.byte	1                               ##   On action: 1
	.uleb128 Ltmp183-Lfunc_begin13          ## >> Call Site 5 <<
	.uleb128 Lfunc_end13-Ltmp183            ##   Call between Ltmp183 and Lfunc_end13
	.byte	0                               ##     has no landing pad
	.byte	0                               ##   On action: cleanup
Lcst_end13:
	.byte	1                               ## >> Action Record 1 <<
                                        ##   Catch TypeInfo 1
	.byte	0                               ##   No further actions
	.p2align	2
                                        ## >> Catch TypeInfos <<
	.long	0                               ## TypeInfo 1
Lttbase11:
	.p2align	2
                                        ## -- End function
	.section	__TEXT,__text,regular,pure_instructions
	.p2align	4, 0x90                         ## -- Begin function _ZNSt3__1L9use_facetINS_5ctypeIcEEEERKT_RKNS_6localeE
__ZNSt3__1L9use_facetINS_5ctypeIcEEEERKT_RKNS_6localeE: ## @_ZNSt3__1L9use_facetINS_5ctypeIcEEEERKT_RKNS_6localeE
	.cfi_startproc
## %bb.0:
	pushq	%rbp
	.cfi_def_cfa_offset 16
	.cfi_offset %rbp, -16
	movq	%rsp, %rbp
	.cfi_def_cfa_register %rbp
	subq	$16, %rsp
	movq	__ZNSt3__15ctypeIcE2idE@GOTPCREL(%rip), %rsi
	movq	%rdi, -8(%rbp)
	movq	-8(%rbp), %rdi
	callq	__ZNKSt3__16locale9use_facetERNS0_2idE
	addq	$16, %rsp
	popq	%rbp
	retq
	.cfi_endproc
                                        ## -- End function
	.p2align	4, 0x90                         ## -- Begin function _ZNKSt3__15ctypeIcE5widenEc
__ZNKSt3__15ctypeIcE5widenEc:           ## @_ZNKSt3__15ctypeIcE5widenEc
	.cfi_startproc
## %bb.0:
	pushq	%rbp
	.cfi_def_cfa_offset 16
	.cfi_offset %rbp, -16
	movq	%rsp, %rbp
	.cfi_def_cfa_register %rbp
	subq	$16, %rsp
	movb	%sil, %al
	movq	%rdi, -8(%rbp)
	movb	%al, -9(%rbp)
	movq	-8(%rbp), %rdi
	movb	-9(%rbp), %cl
	movq	(%rdi), %rax
	movsbl	%cl, %esi
	callq	*56(%rax)
	movsbl	%al, %eax
	addq	$16, %rsp
	popq	%rbp
	retq
	.cfi_endproc
                                        ## -- End function
	.p2align	4, 0x90                         ## -- Begin function _ZNSt3__18ios_base8setstateEj
__ZNSt3__18ios_base8setstateEj:         ## @_ZNSt3__18ios_base8setstateEj
	.cfi_startproc
## %bb.0:
	pushq	%rbp
	.cfi_def_cfa_offset 16
	.cfi_offset %rbp, -16
	movq	%rsp, %rbp
	.cfi_def_cfa_register %rbp
	subq	$16, %rsp
	movq	%rdi, -8(%rbp)
	movl	%esi, -12(%rbp)
	movq	-8(%rbp), %rdi
	movl	32(%rdi), %esi
	orl	-12(%rbp), %esi
	callq	__ZNSt3__18ios_base5clearEj
	addq	$16, %rsp
	popq	%rbp
	retq
	.cfi_endproc
                                        ## -- End function
	.globl	__ZNSt3__17getlineIcNS_11char_traitsIcEENS_9allocatorIcEEEERNS_13basic_istreamIT_T0_EES9_RNS_12basic_stringIS6_S7_T1_EES6_ ## -- Begin function _ZNSt3__17getlineIcNS_11char_traitsIcEENS_9allocatorIcEEEERNS_13basic_istreamIT_T0_EES9_RNS_12basic_stringIS6_S7_T1_EES6_
	.weak_definition	__ZNSt3__17getlineIcNS_11char_traitsIcEENS_9allocatorIcEEEERNS_13basic_istreamIT_T0_EES9_RNS_12basic_stringIS6_S7_T1_EES6_
	.p2align	4, 0x90
__ZNSt3__17getlineIcNS_11char_traitsIcEENS_9allocatorIcEEEERNS_13basic_istreamIT_T0_EES9_RNS_12basic_stringIS6_S7_T1_EES6_: ## @_ZNSt3__17getlineIcNS_11char_traitsIcEENS_9allocatorIcEEEERNS_13basic_istreamIT_T0_EES9_RNS_12basic_stringIS6_S7_T1_EES6_
Lfunc_begin14:
	.cfi_startproc
	.cfi_personality 155, ___gxx_personality_v0
	.cfi_lsda 16, Lexception14
## %bb.0:
	pushq	%rbp
	.cfi_def_cfa_offset 16
	.cfi_offset %rbp, -16
	movq	%rsp, %rbp
	.cfi_def_cfa_register %rbp
	subq	$96, %rsp
	movb	%dl, %al
	movq	%rdi, -8(%rbp)
	movq	%rsi, -16(%rbp)
	movb	%al, -17(%rbp)
	movl	$0, -24(%rbp)
	movq	-8(%rbp), %rsi
	leaq	-32(%rbp), %rdi
	movl	$1, %edx
	callq	__ZNSt3__113basic_istreamIcNS_11char_traitsIcEEE6sentryC1ERS3_b
	leaq	-32(%rbp), %rdi
	callq	__ZNKSt3__113basic_istreamIcNS_11char_traitsIcEEE6sentrycvbEv
	testb	$1, %al
	jne	LBB110_1
	jmp	LBB110_25
LBB110_1:
	movq	-16(%rbp), %rdi
	callq	__ZNSt3__112basic_stringIcNS_11char_traitsIcEENS_9allocatorIcEEE5clearEv
	movq	$0, -40(%rbp)
LBB110_2:                               ## =>This Inner Loop Header: Depth=1
	jmp	LBB110_3
LBB110_3:                               ##   in Loop: Header=BB110_2 Depth=1
	movq	-8(%rbp), %rdi
	movq	(%rdi), %rax
	movq	-24(%rax), %rax
	addq	%rax, %rdi
Ltmp185:
	callq	__ZNKSt3__19basic_iosIcNS_11char_traitsIcEEE5rdbufEv
	movq	%rax, %rcx
Ltmp186:
	movq	%rcx, -72(%rbp)                 ## 8-byte Spill
	jmp	LBB110_4
LBB110_4:                               ##   in Loop: Header=BB110_2 Depth=1
Ltmp187:
	movq	-72(%rbp), %rdi                 ## 8-byte Reload
	callq	__ZNSt3__115basic_streambufIcNS_11char_traitsIcEEE6sbumpcEv
	movl	%eax, %ecx
Ltmp188:
	movl	%ecx, -76(%rbp)                 ## 4-byte Spill
	jmp	LBB110_5
LBB110_5:                               ##   in Loop: Header=BB110_2 Depth=1
	movl	-76(%rbp), %eax                 ## 4-byte Reload
	movl	%eax, -44(%rbp)
	movl	-44(%rbp), %eax
	movl	%eax, -80(%rbp)                 ## 4-byte Spill
	callq	__ZNSt3__111char_traitsIcE3eofEv
	movl	-80(%rbp), %edi                 ## 4-byte Reload
	movl	%eax, %esi
	callq	__ZNSt3__111char_traitsIcE11eq_int_typeEii
	testb	$1, %al
	jne	LBB110_6
	jmp	LBB110_12
LBB110_6:
	movl	-24(%rbp), %eax
	orl	$2, %eax
	movl	%eax, -24(%rbp)
	jmp	LBB110_18
LBB110_7:
Ltmp191:
	movq	%rax, %rcx
	movl	%edx, %eax
	movq	%rcx, -56(%rbp)
	movl	%eax, -60(%rbp)
## %bb.8:
	movq	-56(%rbp), %rdi
	callq	___cxa_begin_catch
                                        ## kill: def $rcx killed $rax
	movb	-24(%rbp), %cl
	orb	$1, %cl
	movb	%cl, -24(%rbp)
	movq	-8(%rbp), %rdi
	movq	(%rdi), %rcx
	movq	-24(%rcx), %rcx
	addq	%rcx, %rdi
	movl	-24(%rbp), %esi
Ltmp192:
	callq	__ZNSt3__18ios_base18__setstate_nothrowEj
Ltmp193:
	jmp	LBB110_9
LBB110_9:
	movq	-8(%rbp), %rdi
	movq	(%rdi), %rax
	movq	-24(%rax), %rax
	addq	%rax, %rdi
Ltmp194:
	callq	__ZNKSt3__19basic_iosIcNS_11char_traitsIcEEE10exceptionsEv
	movl	%eax, %ecx
Ltmp195:
	movl	%ecx, -84(%rbp)                 ## 4-byte Spill
	jmp	LBB110_10
LBB110_10:
	movl	-84(%rbp), %eax                 ## 4-byte Reload
	andl	$1, %eax
	cmpl	$0, %eax
	je	LBB110_22
## %bb.11:
Ltmp196:
	callq	___cxa_rethrow
Ltmp197:
	jmp	LBB110_28
LBB110_12:                              ##   in Loop: Header=BB110_2 Depth=1
	movq	-40(%rbp), %rax
	addq	$1, %rax
	movq	%rax, -40(%rbp)
	movl	-44(%rbp), %edi
	callq	__ZNSt3__111char_traitsIcE12to_char_typeEi
	movb	%al, -61(%rbp)
	movb	-61(%rbp), %al
	movsbl	%al, %edi
	movsbl	-17(%rbp), %esi
	callq	__ZNSt3__111char_traitsIcE2eqEcc
	testb	$1, %al
	jne	LBB110_13
	jmp	LBB110_14
LBB110_13:
	jmp	LBB110_18
LBB110_14:                              ##   in Loop: Header=BB110_2 Depth=1
	movq	-16(%rbp), %rdi
	movsbl	-61(%rbp), %esi
Ltmp189:
	callq	__ZNSt3__112basic_stringIcNS_11char_traitsIcEENS_9allocatorIcEEE9push_backEc
Ltmp190:
	jmp	LBB110_15
LBB110_15:                              ##   in Loop: Header=BB110_2 Depth=1
	movq	-16(%rbp), %rdi
	callq	__ZNKSt3__112basic_stringIcNS_11char_traitsIcEENS_9allocatorIcEEE4sizeEv
	movq	%rax, -96(%rbp)                 ## 8-byte Spill
	movq	-16(%rbp), %rdi
	callq	__ZNKSt3__112basic_stringIcNS_11char_traitsIcEENS_9allocatorIcEEE8max_sizeEv
	movq	%rax, %rcx
	movq	-96(%rbp), %rax                 ## 8-byte Reload
	cmpq	%rcx, %rax
	jne	LBB110_17
## %bb.16:
	movl	-24(%rbp), %eax
	orl	$4, %eax
	movl	%eax, -24(%rbp)
	jmp	LBB110_18
LBB110_17:                              ##   in Loop: Header=BB110_2 Depth=1
	jmp	LBB110_2
LBB110_18:
	cmpq	$0, -40(%rbp)
	jne	LBB110_20
## %bb.19:
	movl	-24(%rbp), %eax
	orl	$4, %eax
	movl	%eax, -24(%rbp)
LBB110_20:
	jmp	LBB110_23
LBB110_21:
Ltmp198:
	movq	%rdx, %rcx
	movq	%rax, %rsi
                                        ## kill: def $ecx killed $ecx killed $rcx
	movq	%rsi, -56(%rbp)
	movl	%ecx, -60(%rbp)
Ltmp199:
	callq	___cxa_end_catch
Ltmp200:
	jmp	LBB110_24
LBB110_22:
	callq	___cxa_end_catch
LBB110_23:
	movq	-8(%rbp), %rdi
	movq	(%rdi), %rax
	movq	-24(%rax), %rax
	addq	%rax, %rdi
	movl	-24(%rbp), %esi
	callq	__ZNSt3__19basic_iosIcNS_11char_traitsIcEEE8setstateEj
	jmp	LBB110_25
LBB110_24:
	jmp	LBB110_26
LBB110_25:
	movq	-8(%rbp), %rax
	addq	$96, %rsp
	popq	%rbp
	retq
LBB110_26:
	movq	-56(%rbp), %rdi
	callq	__Unwind_Resume
LBB110_27:
Ltmp201:
	movq	%rax, %rdi
	callq	___clang_call_terminate
LBB110_28:
	ud2
Lfunc_end14:
	.cfi_endproc
	.section	__TEXT,__gcc_except_tab
	.p2align	2
GCC_except_table110:
Lexception14:
	.byte	255                             ## @LPStart Encoding = omit
	.byte	155                             ## @TType Encoding = indirect pcrel sdata4
	.uleb128 Lttbase12-Lttbaseref12
Lttbaseref12:
	.byte	1                               ## Call site Encoding = uleb128
	.uleb128 Lcst_end14-Lcst_begin14
Lcst_begin14:
	.uleb128 Lfunc_begin14-Lfunc_begin14    ## >> Call Site 1 <<
	.uleb128 Ltmp185-Lfunc_begin14          ##   Call between Lfunc_begin14 and Ltmp185
	.byte	0                               ##     has no landing pad
	.byte	0                               ##   On action: cleanup
	.uleb128 Ltmp185-Lfunc_begin14          ## >> Call Site 2 <<
	.uleb128 Ltmp188-Ltmp185                ##   Call between Ltmp185 and Ltmp188
	.uleb128 Ltmp191-Lfunc_begin14          ##     jumps to Ltmp191
	.byte	1                               ##   On action: 1
	.uleb128 Ltmp188-Lfunc_begin14          ## >> Call Site 3 <<
	.uleb128 Ltmp192-Ltmp188                ##   Call between Ltmp188 and Ltmp192
	.byte	0                               ##     has no landing pad
	.byte	0                               ##   On action: cleanup
	.uleb128 Ltmp192-Lfunc_begin14          ## >> Call Site 4 <<
	.uleb128 Ltmp197-Ltmp192                ##   Call between Ltmp192 and Ltmp197
	.uleb128 Ltmp198-Lfunc_begin14          ##     jumps to Ltmp198
	.byte	0                               ##   On action: cleanup
	.uleb128 Ltmp189-Lfunc_begin14          ## >> Call Site 5 <<
	.uleb128 Ltmp190-Ltmp189                ##   Call between Ltmp189 and Ltmp190
	.uleb128 Ltmp191-Lfunc_begin14          ##     jumps to Ltmp191
	.byte	1                               ##   On action: 1
	.uleb128 Ltmp199-Lfunc_begin14          ## >> Call Site 6 <<
	.uleb128 Ltmp200-Ltmp199                ##   Call between Ltmp199 and Ltmp200
	.uleb128 Ltmp201-Lfunc_begin14          ##     jumps to Ltmp201
	.byte	1                               ##   On action: 1
	.uleb128 Ltmp200-Lfunc_begin14          ## >> Call Site 7 <<
	.uleb128 Lfunc_end14-Ltmp200            ##   Call between Ltmp200 and Lfunc_end14
	.byte	0                               ##     has no landing pad
	.byte	0                               ##   On action: cleanup
Lcst_end14:
	.byte	1                               ## >> Action Record 1 <<
                                        ##   Catch TypeInfo 1
	.byte	0                               ##   No further actions
	.p2align	2
                                        ## >> Catch TypeInfos <<
	.long	0                               ## TypeInfo 1
Lttbase12:
	.p2align	2
                                        ## -- End function
	.section	__TEXT,__text,regular,pure_instructions
	.p2align	4, 0x90                         ## -- Begin function _ZNKSt3__113basic_istreamIcNS_11char_traitsIcEEE6sentrycvbEv
__ZNKSt3__113basic_istreamIcNS_11char_traitsIcEEE6sentrycvbEv: ## @_ZNKSt3__113basic_istreamIcNS_11char_traitsIcEEE6sentrycvbEv
	.cfi_startproc
## %bb.0:
	pushq	%rbp
	.cfi_def_cfa_offset 16
	.cfi_offset %rbp, -16
	movq	%rsp, %rbp
	.cfi_def_cfa_register %rbp
	movq	%rdi, -8(%rbp)
	movq	-8(%rbp), %rax
	movb	(%rax), %al
	andb	$1, %al
	movzbl	%al, %eax
	popq	%rbp
	retq
	.cfi_endproc
                                        ## -- End function
	.p2align	4, 0x90                         ## -- Begin function _ZNSt3__112basic_stringIcNS_11char_traitsIcEENS_9allocatorIcEEE5clearEv
__ZNSt3__112basic_stringIcNS_11char_traitsIcEENS_9allocatorIcEEE5clearEv: ## @_ZNSt3__112basic_stringIcNS_11char_traitsIcEENS_9allocatorIcEEE5clearEv
Lfunc_begin15:
	.cfi_startproc
	.cfi_personality 155, ___gxx_personality_v0
	.cfi_lsda 16, Lexception15
## %bb.0:
	pushq	%rbp
	.cfi_def_cfa_offset 16
	.cfi_offset %rbp, -16
	movq	%rsp, %rbp
	.cfi_def_cfa_register %rbp
	subq	$32, %rsp
	movq	%rdi, -8(%rbp)
	movq	-8(%rbp), %rdi
	movq	%rdi, -32(%rbp)                 ## 8-byte Spill
Ltmp202:
	callq	__ZNSt3__112basic_stringIcNS_11char_traitsIcEENS_9allocatorIcEEE26__invalidate_all_iteratorsEv
Ltmp203:
	jmp	LBB112_1
LBB112_1:
	movq	-32(%rbp), %rdi                 ## 8-byte Reload
	callq	__ZNKSt3__112basic_stringIcNS_11char_traitsIcEENS_9allocatorIcEEE9__is_longEv
	testb	$1, %al
	jne	LBB112_2
	jmp	LBB112_5
LBB112_2:
	movq	-32(%rbp), %rdi                 ## 8-byte Reload
	callq	__ZNSt3__112basic_stringIcNS_11char_traitsIcEENS_9allocatorIcEEE18__get_long_pointerEv
	movq	%rax, %rdi
	movb	$0, -21(%rbp)
	leaq	-21(%rbp), %rsi
	callq	__ZNSt3__111char_traitsIcE6assignERcRKc
	movq	-32(%rbp), %rdi                 ## 8-byte Reload
	xorl	%eax, %eax
	movl	%eax, %esi
	callq	__ZNSt3__112basic_stringIcNS_11char_traitsIcEENS_9allocatorIcEEE15__set_long_sizeEm
	jmp	LBB112_6
LBB112_3:
Ltmp204:
	movq	%rax, %rcx
	movl	%edx, %eax
	movq	%rcx, -16(%rbp)
	movl	%eax, -20(%rbp)
## %bb.4:
	movq	-16(%rbp), %rdi
	callq	___cxa_call_unexpected
LBB112_5:
	movq	-32(%rbp), %rdi                 ## 8-byte Reload
	callq	__ZNSt3__112basic_stringIcNS_11char_traitsIcEENS_9allocatorIcEEE19__get_short_pointerEv
	movq	%rax, %rdi
	movb	$0, -22(%rbp)
	leaq	-22(%rbp), %rsi
	callq	__ZNSt3__111char_traitsIcE6assignERcRKc
	movq	-32(%rbp), %rdi                 ## 8-byte Reload
	xorl	%eax, %eax
	movl	%eax, %esi
	callq	__ZNSt3__112basic_stringIcNS_11char_traitsIcEENS_9allocatorIcEEE16__set_short_sizeEm
LBB112_6:
	addq	$32, %rsp
	popq	%rbp
	retq
Lfunc_end15:
	.cfi_endproc
	.section	__TEXT,__gcc_except_tab
	.p2align	2
GCC_except_table112:
Lexception15:
	.byte	255                             ## @LPStart Encoding = omit
	.byte	155                             ## @TType Encoding = indirect pcrel sdata4
	.uleb128 Lttbase13-Lttbaseref13
Lttbaseref13:
	.byte	1                               ## Call site Encoding = uleb128
	.uleb128 Lcst_end15-Lcst_begin15
Lcst_begin15:
	.uleb128 Ltmp202-Lfunc_begin15          ## >> Call Site 1 <<
	.uleb128 Ltmp203-Ltmp202                ##   Call between Ltmp202 and Ltmp203
	.uleb128 Ltmp204-Lfunc_begin15          ##     jumps to Ltmp204
	.byte	1                               ##   On action: 1
	.uleb128 Ltmp203-Lfunc_begin15          ## >> Call Site 2 <<
	.uleb128 Lfunc_end15-Ltmp203            ##   Call between Ltmp203 and Lfunc_end15
	.byte	0                               ##     has no landing pad
	.byte	0                               ##   On action: cleanup
Lcst_end15:
	.byte	127                             ## >> Action Record 1 <<
                                        ##   Filter TypeInfo -1
	.byte	0                               ##   No further actions
	.p2align	2
Lttbase13:
                                        ## >> Filter TypeInfos <<
	.byte	0
	.p2align	2
                                        ## -- End function
	.section	__TEXT,__text,regular,pure_instructions
	.p2align	4, 0x90                         ## -- Begin function _ZNSt3__115basic_streambufIcNS_11char_traitsIcEEE6sbumpcEv
__ZNSt3__115basic_streambufIcNS_11char_traitsIcEEE6sbumpcEv: ## @_ZNSt3__115basic_streambufIcNS_11char_traitsIcEEE6sbumpcEv
	.cfi_startproc
## %bb.0:
	pushq	%rbp
	.cfi_def_cfa_offset 16
	.cfi_offset %rbp, -16
	movq	%rsp, %rbp
	.cfi_def_cfa_register %rbp
	subq	$32, %rsp
	movq	%rdi, -16(%rbp)
	movq	-16(%rbp), %rcx
	movq	%rcx, -24(%rbp)                 ## 8-byte Spill
	movq	24(%rcx), %rax
	cmpq	32(%rcx), %rax
	jne	LBB113_2
## %bb.1:
	movq	-24(%rbp), %rdi                 ## 8-byte Reload
	movq	(%rdi), %rax
	callq	*80(%rax)
	movl	%eax, -4(%rbp)
	jmp	LBB113_3
LBB113_2:
	movq	-24(%rbp), %rcx                 ## 8-byte Reload
	movq	24(%rcx), %rax
	movq	%rax, %rdx
	addq	$1, %rdx
	movq	%rdx, 24(%rcx)
	movsbl	(%rax), %edi
	callq	__ZNSt3__111char_traitsIcE11to_int_typeEc
	movl	%eax, -4(%rbp)
LBB113_3:
	movl	-4(%rbp), %eax
	addq	$32, %rsp
	popq	%rbp
	retq
	.cfi_endproc
                                        ## -- End function
	.p2align	4, 0x90                         ## -- Begin function _ZNKSt3__112basic_stringIcNS_11char_traitsIcEENS_9allocatorIcEEE8max_sizeEv
__ZNKSt3__112basic_stringIcNS_11char_traitsIcEENS_9allocatorIcEEE8max_sizeEv: ## @_ZNKSt3__112basic_stringIcNS_11char_traitsIcEENS_9allocatorIcEEE8max_sizeEv
	.cfi_startproc
## %bb.0:
	pushq	%rbp
	.cfi_def_cfa_offset 16
	.cfi_offset %rbp, -16
	movq	%rsp, %rbp
	.cfi_def_cfa_register %rbp
	subq	$16, %rsp
	movq	%rdi, -8(%rbp)
	movq	-8(%rbp), %rdi
	callq	__ZNKSt3__112basic_stringIcNS_11char_traitsIcEENS_9allocatorIcEEE7__allocEv
	movq	%rax, %rdi
	callq	__ZNSt3__116allocator_traitsINS_9allocatorIcEEE8max_sizeIS2_vEEmRKS2_
	movq	%rax, -16(%rbp)
	movq	-16(%rbp), %rax
	subq	$16, %rax
	addq	$16, %rsp
	popq	%rbp
	retq
	.cfi_endproc
                                        ## -- End function
	.p2align	4, 0x90                         ## -- Begin function _ZNSt3__18ios_base18__setstate_nothrowEj
__ZNSt3__18ios_base18__setstate_nothrowEj: ## @_ZNSt3__18ios_base18__setstate_nothrowEj
	.cfi_startproc
## %bb.0:
	pushq	%rbp
	.cfi_def_cfa_offset 16
	.cfi_offset %rbp, -16
	movq	%rsp, %rbp
	.cfi_def_cfa_register %rbp
	movq	%rdi, -8(%rbp)
	movl	%esi, -12(%rbp)
	movq	-8(%rbp), %rax
	movq	%rax, -24(%rbp)                 ## 8-byte Spill
	cmpq	$0, 40(%rax)
	je	LBB115_2
## %bb.1:
	movq	-24(%rbp), %rax                 ## 8-byte Reload
	movl	-12(%rbp), %ecx
	orl	32(%rax), %ecx
	movl	%ecx, 32(%rax)
	jmp	LBB115_3
LBB115_2:
	movq	-24(%rbp), %rax                 ## 8-byte Reload
	movl	-12(%rbp), %ecx
	orl	$1, %ecx
	orl	32(%rax), %ecx
	movl	%ecx, 32(%rax)
LBB115_3:
	popq	%rbp
	retq
	.cfi_endproc
                                        ## -- End function
	.p2align	4, 0x90                         ## -- Begin function _ZNKSt3__19basic_iosIcNS_11char_traitsIcEEE10exceptionsEv
__ZNKSt3__19basic_iosIcNS_11char_traitsIcEEE10exceptionsEv: ## @_ZNKSt3__19basic_iosIcNS_11char_traitsIcEEE10exceptionsEv
	.cfi_startproc
## %bb.0:
	pushq	%rbp
	.cfi_def_cfa_offset 16
	.cfi_offset %rbp, -16
	movq	%rsp, %rbp
	.cfi_def_cfa_register %rbp
	subq	$16, %rsp
	movq	%rdi, -8(%rbp)
	movq	-8(%rbp), %rdi
	callq	__ZNKSt3__18ios_base10exceptionsEv
	addq	$16, %rsp
	popq	%rbp
	retq
	.cfi_endproc
                                        ## -- End function
	.p2align	4, 0x90                         ## -- Begin function _ZNSt3__112basic_stringIcNS_11char_traitsIcEENS_9allocatorIcEEE26__invalidate_all_iteratorsEv
__ZNSt3__112basic_stringIcNS_11char_traitsIcEENS_9allocatorIcEEE26__invalidate_all_iteratorsEv: ## @_ZNSt3__112basic_stringIcNS_11char_traitsIcEENS_9allocatorIcEEE26__invalidate_all_iteratorsEv
	.cfi_startproc
## %bb.0:
	pushq	%rbp
	.cfi_def_cfa_offset 16
	.cfi_offset %rbp, -16
	movq	%rsp, %rbp
	.cfi_def_cfa_register %rbp
	movq	%rdi, -8(%rbp)
	popq	%rbp
	retq
	.cfi_endproc
                                        ## -- End function
	.globl	__ZNSt3__111char_traitsIcE6assignERcRKc ## -- Begin function _ZNSt3__111char_traitsIcE6assignERcRKc
	.weak_definition	__ZNSt3__111char_traitsIcE6assignERcRKc
	.p2align	4, 0x90
__ZNSt3__111char_traitsIcE6assignERcRKc: ## @_ZNSt3__111char_traitsIcE6assignERcRKc
	.cfi_startproc
## %bb.0:
	pushq	%rbp
	.cfi_def_cfa_offset 16
	.cfi_offset %rbp, -16
	movq	%rsp, %rbp
	.cfi_def_cfa_register %rbp
	movq	%rdi, -8(%rbp)
	movq	%rsi, -16(%rbp)
	movq	-16(%rbp), %rax
	movb	(%rax), %cl
	movq	-8(%rbp), %rax
	movb	%cl, (%rax)
	popq	%rbp
	retq
	.cfi_endproc
                                        ## -- End function
	.p2align	4, 0x90                         ## -- Begin function _ZNSt3__112basic_stringIcNS_11char_traitsIcEENS_9allocatorIcEEE18__get_long_pointerEv
__ZNSt3__112basic_stringIcNS_11char_traitsIcEENS_9allocatorIcEEE18__get_long_pointerEv: ## @_ZNSt3__112basic_stringIcNS_11char_traitsIcEENS_9allocatorIcEEE18__get_long_pointerEv
	.cfi_startproc
## %bb.0:
	pushq	%rbp
	.cfi_def_cfa_offset 16
	.cfi_offset %rbp, -16
	movq	%rsp, %rbp
	.cfi_def_cfa_register %rbp
	subq	$16, %rsp
	movq	%rdi, -8(%rbp)
	movq	-8(%rbp), %rdi
	callq	__ZNSt3__117__compressed_pairINS_12basic_stringIcNS_11char_traitsIcEENS_9allocatorIcEEE5__repES5_E5firstEv
	movq	16(%rax), %rax
	addq	$16, %rsp
	popq	%rbp
	retq
	.cfi_endproc
                                        ## -- End function
	.p2align	4, 0x90                         ## -- Begin function _ZNSt3__112basic_stringIcNS_11char_traitsIcEENS_9allocatorIcEEE15__set_long_sizeEm
__ZNSt3__112basic_stringIcNS_11char_traitsIcEENS_9allocatorIcEEE15__set_long_sizeEm: ## @_ZNSt3__112basic_stringIcNS_11char_traitsIcEENS_9allocatorIcEEE15__set_long_sizeEm
	.cfi_startproc
## %bb.0:
	pushq	%rbp
	.cfi_def_cfa_offset 16
	.cfi_offset %rbp, -16
	movq	%rsp, %rbp
	.cfi_def_cfa_register %rbp
	subq	$32, %rsp
	movq	%rdi, -8(%rbp)
	movq	%rsi, -16(%rbp)
	movq	-8(%rbp), %rdi
	movq	-16(%rbp), %rax
	movq	%rax, -24(%rbp)                 ## 8-byte Spill
	callq	__ZNSt3__117__compressed_pairINS_12basic_stringIcNS_11char_traitsIcEENS_9allocatorIcEEE5__repES5_E5firstEv
	movq	-24(%rbp), %rcx                 ## 8-byte Reload
	movq	%rcx, 8(%rax)
	addq	$32, %rsp
	popq	%rbp
	retq
	.cfi_endproc
                                        ## -- End function
	.p2align	4, 0x90                         ## -- Begin function _ZNSt3__112basic_stringIcNS_11char_traitsIcEENS_9allocatorIcEEE19__get_short_pointerEv
__ZNSt3__112basic_stringIcNS_11char_traitsIcEENS_9allocatorIcEEE19__get_short_pointerEv: ## @_ZNSt3__112basic_stringIcNS_11char_traitsIcEENS_9allocatorIcEEE19__get_short_pointerEv
	.cfi_startproc
## %bb.0:
	pushq	%rbp
	.cfi_def_cfa_offset 16
	.cfi_offset %rbp, -16
	movq	%rsp, %rbp
	.cfi_def_cfa_register %rbp
	subq	$16, %rsp
	movq	%rdi, -8(%rbp)
	movq	-8(%rbp), %rdi
	callq	__ZNSt3__117__compressed_pairINS_12basic_stringIcNS_11char_traitsIcEENS_9allocatorIcEEE5__repES5_E5firstEv
	movq	%rax, %rdi
	addq	$1, %rdi
	callq	__ZNSt3__114pointer_traitsIPcE10pointer_toERc
	addq	$16, %rsp
	popq	%rbp
	retq
	.cfi_endproc
                                        ## -- End function
	.p2align	4, 0x90                         ## -- Begin function _ZNSt3__112basic_stringIcNS_11char_traitsIcEENS_9allocatorIcEEE16__set_short_sizeEm
__ZNSt3__112basic_stringIcNS_11char_traitsIcEENS_9allocatorIcEEE16__set_short_sizeEm: ## @_ZNSt3__112basic_stringIcNS_11char_traitsIcEENS_9allocatorIcEEE16__set_short_sizeEm
	.cfi_startproc
## %bb.0:
	pushq	%rbp
	.cfi_def_cfa_offset 16
	.cfi_offset %rbp, -16
	movq	%rsp, %rbp
	.cfi_def_cfa_register %rbp
	subq	$32, %rsp
	movq	%rdi, -8(%rbp)
	movq	%rsi, -16(%rbp)
	movq	-8(%rbp), %rdi
	movq	-16(%rbp), %rax
	shlq	$1, %rax
                                        ## kill: def $al killed $al killed $rax
	movb	%al, -17(%rbp)                  ## 1-byte Spill
	callq	__ZNSt3__117__compressed_pairINS_12basic_stringIcNS_11char_traitsIcEENS_9allocatorIcEEE5__repES5_E5firstEv
	movb	-17(%rbp), %cl                  ## 1-byte Reload
	movb	%cl, (%rax)
	addq	$32, %rsp
	popq	%rbp
	retq
	.cfi_endproc
                                        ## -- End function
	.p2align	4, 0x90                         ## -- Begin function _ZNSt3__114pointer_traitsIPcE10pointer_toERc
__ZNSt3__114pointer_traitsIPcE10pointer_toERc: ## @_ZNSt3__114pointer_traitsIPcE10pointer_toERc
	.cfi_startproc
## %bb.0:
	pushq	%rbp
	.cfi_def_cfa_offset 16
	.cfi_offset %rbp, -16
	movq	%rsp, %rbp
	.cfi_def_cfa_register %rbp
	subq	$16, %rsp
	movq	%rdi, -8(%rbp)
	movq	-8(%rbp), %rdi
	callq	__ZNSt3__1L9addressofIcEEPT_RS1_
	addq	$16, %rsp
	popq	%rbp
	retq
	.cfi_endproc
                                        ## -- End function
	.p2align	4, 0x90                         ## -- Begin function _ZNSt3__1L9addressofIcEEPT_RS1_
__ZNSt3__1L9addressofIcEEPT_RS1_:       ## @_ZNSt3__1L9addressofIcEEPT_RS1_
	.cfi_startproc
## %bb.0:
	pushq	%rbp
	.cfi_def_cfa_offset 16
	.cfi_offset %rbp, -16
	movq	%rsp, %rbp
	.cfi_def_cfa_register %rbp
	movq	%rdi, -8(%rbp)
	movq	-8(%rbp), %rax
	popq	%rbp
	retq
	.cfi_endproc
                                        ## -- End function
	.p2align	4, 0x90                         ## -- Begin function _ZNSt3__116allocator_traitsINS_9allocatorIcEEE8max_sizeIS2_vEEmRKS2_
__ZNSt3__116allocator_traitsINS_9allocatorIcEEE8max_sizeIS2_vEEmRKS2_: ## @_ZNSt3__116allocator_traitsINS_9allocatorIcEEE8max_sizeIS2_vEEmRKS2_
	.cfi_startproc
## %bb.0:
	pushq	%rbp
	.cfi_def_cfa_offset 16
	.cfi_offset %rbp, -16
	movq	%rsp, %rbp
	.cfi_def_cfa_register %rbp
	subq	$16, %rsp
	movq	%rdi, -8(%rbp)
	movq	-8(%rbp), %rdi
	callq	__ZNKSt3__19allocatorIcE8max_sizeEv
	addq	$16, %rsp
	popq	%rbp
	retq
	.cfi_endproc
                                        ## -- End function
	.p2align	4, 0x90                         ## -- Begin function _ZNKSt3__112basic_stringIcNS_11char_traitsIcEENS_9allocatorIcEEE7__allocEv
__ZNKSt3__112basic_stringIcNS_11char_traitsIcEENS_9allocatorIcEEE7__allocEv: ## @_ZNKSt3__112basic_stringIcNS_11char_traitsIcEENS_9allocatorIcEEE7__allocEv
	.cfi_startproc
## %bb.0:
	pushq	%rbp
	.cfi_def_cfa_offset 16
	.cfi_offset %rbp, -16
	movq	%rsp, %rbp
	.cfi_def_cfa_register %rbp
	subq	$16, %rsp
	movq	%rdi, -8(%rbp)
	movq	-8(%rbp), %rdi
	callq	__ZNKSt3__117__compressed_pairINS_12basic_stringIcNS_11char_traitsIcEENS_9allocatorIcEEE5__repES5_E6secondEv
	addq	$16, %rsp
	popq	%rbp
	retq
	.cfi_endproc
                                        ## -- End function
	.p2align	4, 0x90                         ## -- Begin function _ZNKSt3__19allocatorIcE8max_sizeEv
__ZNKSt3__19allocatorIcE8max_sizeEv:    ## @_ZNKSt3__19allocatorIcE8max_sizeEv
	.cfi_startproc
## %bb.0:
	pushq	%rbp
	.cfi_def_cfa_offset 16
	.cfi_offset %rbp, -16
	movq	%rsp, %rbp
	.cfi_def_cfa_register %rbp
	movq	%rdi, -8(%rbp)
	movq	$-1, %rax
	popq	%rbp
	retq
	.cfi_endproc
                                        ## -- End function
	.p2align	4, 0x90                         ## -- Begin function _ZNKSt3__117__compressed_pairINS_12basic_stringIcNS_11char_traitsIcEENS_9allocatorIcEEE5__repES5_E6secondEv
__ZNKSt3__117__compressed_pairINS_12basic_stringIcNS_11char_traitsIcEENS_9allocatorIcEEE5__repES5_E6secondEv: ## @_ZNKSt3__117__compressed_pairINS_12basic_stringIcNS_11char_traitsIcEENS_9allocatorIcEEE5__repES5_E6secondEv
	.cfi_startproc
## %bb.0:
	pushq	%rbp
	.cfi_def_cfa_offset 16
	.cfi_offset %rbp, -16
	movq	%rsp, %rbp
	.cfi_def_cfa_register %rbp
	subq	$16, %rsp
	movq	%rdi, -8(%rbp)
	movq	-8(%rbp), %rdi
	callq	__ZNKSt3__122__compressed_pair_elemINS_9allocatorIcEELi1ELb1EE5__getEv
	addq	$16, %rsp
	popq	%rbp
	retq
	.cfi_endproc
                                        ## -- End function
	.p2align	4, 0x90                         ## -- Begin function _ZNKSt3__122__compressed_pair_elemINS_9allocatorIcEELi1ELb1EE5__getEv
__ZNKSt3__122__compressed_pair_elemINS_9allocatorIcEELi1ELb1EE5__getEv: ## @_ZNKSt3__122__compressed_pair_elemINS_9allocatorIcEELi1ELb1EE5__getEv
	.cfi_startproc
## %bb.0:
	pushq	%rbp
	.cfi_def_cfa_offset 16
	.cfi_offset %rbp, -16
	movq	%rsp, %rbp
	.cfi_def_cfa_register %rbp
	movq	%rdi, -8(%rbp)
	movq	-8(%rbp), %rax
	popq	%rbp
	retq
	.cfi_endproc
                                        ## -- End function
	.p2align	4, 0x90                         ## -- Begin function _ZNKSt3__18ios_base10exceptionsEv
__ZNKSt3__18ios_base10exceptionsEv:     ## @_ZNKSt3__18ios_base10exceptionsEv
	.cfi_startproc
## %bb.0:
	pushq	%rbp
	.cfi_def_cfa_offset 16
	.cfi_offset %rbp, -16
	movq	%rsp, %rbp
	.cfi_def_cfa_register %rbp
	movq	%rdi, -8(%rbp)
	movq	-8(%rbp), %rax
	movl	36(%rax), %eax
	popq	%rbp
	retq
	.cfi_endproc
                                        ## -- End function
	.p2align	4, 0x90                         ## -- Begin function _ZNSt3__19basic_iosIcNS_11char_traitsIcEEEC2Ev
__ZNSt3__19basic_iosIcNS_11char_traitsIcEEEC2Ev: ## @_ZNSt3__19basic_iosIcNS_11char_traitsIcEEEC2Ev
	.cfi_startproc
## %bb.0:
	pushq	%rbp
	.cfi_def_cfa_offset 16
	.cfi_offset %rbp, -16
	movq	%rsp, %rbp
	.cfi_def_cfa_register %rbp
	subq	$16, %rsp
	movq	%rdi, -8(%rbp)
	movq	-8(%rbp), %rdi
	movq	%rdi, -16(%rbp)                 ## 8-byte Spill
	callq	__ZNSt3__18ios_baseC2Ev
	movq	-16(%rbp), %rax                 ## 8-byte Reload
	movq	__ZTVNSt3__19basic_iosIcNS_11char_traitsIcEEEE@GOTPCREL(%rip), %rcx
	addq	$16, %rcx
	movq	%rcx, (%rax)
	addq	$16, %rsp
	popq	%rbp
	retq
	.cfi_endproc
                                        ## -- End function
	.p2align	4, 0x90                         ## -- Begin function _ZNSt3__114basic_iostreamIcNS_11char_traitsIcEEEC2EPNS_15basic_streambufIcS2_EE
__ZNSt3__114basic_iostreamIcNS_11char_traitsIcEEEC2EPNS_15basic_streambufIcS2_EE: ## @_ZNSt3__114basic_iostreamIcNS_11char_traitsIcEEEC2EPNS_15basic_streambufIcS2_EE
Lfunc_begin16:
	.cfi_startproc
	.cfi_personality 155, ___gxx_personality_v0
	.cfi_lsda 16, Lexception16
## %bb.0:
	pushq	%rbp
	.cfi_def_cfa_offset 16
	.cfi_offset %rbp, -16
	movq	%rsp, %rbp
	.cfi_def_cfa_register %rbp
	subq	$64, %rsp
	movq	%rdi, -8(%rbp)
	movq	%rsi, -16(%rbp)
	movq	%rdx, -24(%rbp)
	movq	-8(%rbp), %rdi
	movq	%rdi, -56(%rbp)                 ## 8-byte Spill
	movq	-16(%rbp), %rsi
	movq	%rsi, -48(%rbp)                 ## 8-byte Spill
	movq	-24(%rbp), %rdx
	addq	$8, %rsi
	callq	__ZNSt3__113basic_istreamIcNS_11char_traitsIcEEEC2EPNS_15basic_streambufIcS2_EE
	movq	-56(%rbp), %rdi                 ## 8-byte Reload
	movq	-48(%rbp), %rsi                 ## 8-byte Reload
	addq	$16, %rdi
	addq	$24, %rsi
Ltmp205:
	callq	__ZNSt3__113basic_ostreamIcNS_11char_traitsIcEEEC2Ev
Ltmp206:
	jmp	LBB132_1
LBB132_1:
	movq	-56(%rbp), %rax                 ## 8-byte Reload
	movq	-48(%rbp), %rcx                 ## 8-byte Reload
	movq	(%rcx), %rdx
	movq	%rdx, (%rax)
	movq	40(%rcx), %rsi
	movq	(%rax), %rdx
	movq	-24(%rdx), %rdx
	movq	%rsi, (%rax,%rdx)
	movq	48(%rcx), %rcx
	movq	%rcx, 16(%rax)
	addq	$64, %rsp
	popq	%rbp
	retq
LBB132_2:
Ltmp207:
	movq	-56(%rbp), %rdi                 ## 8-byte Reload
	movq	-48(%rbp), %rsi                 ## 8-byte Reload
	movq	%rdx, %rcx
	movq	%rax, %r8
                                        ## kill: def $ecx killed $ecx killed $rcx
	movq	%r8, -32(%rbp)
	movl	%ecx, -36(%rbp)
	addq	$8, %rsi
Ltmp208:
	callq	__ZNSt3__113basic_istreamIcNS_11char_traitsIcEEED2Ev
Ltmp209:
	jmp	LBB132_3
LBB132_3:
	jmp	LBB132_4
LBB132_4:
	movq	-32(%rbp), %rdi
	callq	__Unwind_Resume
LBB132_5:
Ltmp210:
	movq	%rax, %rdi
	callq	___clang_call_terminate
Lfunc_end16:
	.cfi_endproc
	.section	__TEXT,__gcc_except_tab
	.p2align	2
GCC_except_table132:
Lexception16:
	.byte	255                             ## @LPStart Encoding = omit
	.byte	155                             ## @TType Encoding = indirect pcrel sdata4
	.uleb128 Lttbase14-Lttbaseref14
Lttbaseref14:
	.byte	1                               ## Call site Encoding = uleb128
	.uleb128 Lcst_end16-Lcst_begin16
Lcst_begin16:
	.uleb128 Lfunc_begin16-Lfunc_begin16    ## >> Call Site 1 <<
	.uleb128 Ltmp205-Lfunc_begin16          ##   Call between Lfunc_begin16 and Ltmp205
	.byte	0                               ##     has no landing pad
	.byte	0                               ##   On action: cleanup
	.uleb128 Ltmp205-Lfunc_begin16          ## >> Call Site 2 <<
	.uleb128 Ltmp206-Ltmp205                ##   Call between Ltmp205 and Ltmp206
	.uleb128 Ltmp207-Lfunc_begin16          ##     jumps to Ltmp207
	.byte	0                               ##   On action: cleanup
	.uleb128 Ltmp208-Lfunc_begin16          ## >> Call Site 3 <<
	.uleb128 Ltmp209-Ltmp208                ##   Call between Ltmp208 and Ltmp209
	.uleb128 Ltmp210-Lfunc_begin16          ##     jumps to Ltmp210
	.byte	1                               ##   On action: 1
	.uleb128 Ltmp209-Lfunc_begin16          ## >> Call Site 4 <<
	.uleb128 Lfunc_end16-Ltmp209            ##   Call between Ltmp209 and Lfunc_end16
	.byte	0                               ##     has no landing pad
	.byte	0                               ##   On action: cleanup
Lcst_end16:
	.byte	1                               ## >> Action Record 1 <<
                                        ##   Catch TypeInfo 1
	.byte	0                               ##   No further actions
	.p2align	2
                                        ## >> Catch TypeInfos <<
	.long	0                               ## TypeInfo 1
Lttbase14:
	.p2align	2
                                        ## -- End function
	.section	__TEXT,__text,regular,pure_instructions
	.p2align	4, 0x90                         ## -- Begin function _ZNSt3__115basic_stringbufIcNS_11char_traitsIcEENS_9allocatorIcEEEC1ERKNS_12basic_stringIcS2_S4_EEj
__ZNSt3__115basic_stringbufIcNS_11char_traitsIcEENS_9allocatorIcEEEC1ERKNS_12basic_stringIcS2_S4_EEj: ## @_ZNSt3__115basic_stringbufIcNS_11char_traitsIcEENS_9allocatorIcEEEC1ERKNS_12basic_stringIcS2_S4_EEj
	.cfi_startproc
## %bb.0:
	pushq	%rbp
	.cfi_def_cfa_offset 16
	.cfi_offset %rbp, -16
	movq	%rsp, %rbp
	.cfi_def_cfa_register %rbp
	subq	$32, %rsp
	movq	%rdi, -8(%rbp)
	movq	%rsi, -16(%rbp)
	movl	%edx, -20(%rbp)
	movq	-8(%rbp), %rdi
	movq	-16(%rbp), %rsi
	movl	-20(%rbp), %edx
	callq	__ZNSt3__115basic_stringbufIcNS_11char_traitsIcEENS_9allocatorIcEEEC2ERKNS_12basic_stringIcS2_S4_EEj
	addq	$32, %rsp
	popq	%rbp
	retq
	.cfi_endproc
                                        ## -- End function
	.p2align	4, 0x90                         ## -- Begin function _ZNSt3__18ios_baseC2Ev
__ZNSt3__18ios_baseC2Ev:                ## @_ZNSt3__18ios_baseC2Ev
	.cfi_startproc
## %bb.0:
	pushq	%rbp
	.cfi_def_cfa_offset 16
	.cfi_offset %rbp, -16
	movq	%rsp, %rbp
	.cfi_def_cfa_register %rbp
	movq	__ZTVNSt3__18ios_baseE@GOTPCREL(%rip), %rcx
	addq	$16, %rcx
	movq	%rdi, -8(%rbp)
	movq	-8(%rbp), %rax
	movq	%rcx, (%rax)
	popq	%rbp
	retq
	.cfi_endproc
                                        ## -- End function
	.p2align	4, 0x90                         ## -- Begin function _ZNSt3__113basic_istreamIcNS_11char_traitsIcEEEC2EPNS_15basic_streambufIcS2_EE
__ZNSt3__113basic_istreamIcNS_11char_traitsIcEEEC2EPNS_15basic_streambufIcS2_EE: ## @_ZNSt3__113basic_istreamIcNS_11char_traitsIcEEEC2EPNS_15basic_streambufIcS2_EE
	.cfi_startproc
## %bb.0:
	pushq	%rbp
	.cfi_def_cfa_offset 16
	.cfi_offset %rbp, -16
	movq	%rsp, %rbp
	.cfi_def_cfa_register %rbp
	subq	$32, %rsp
	movq	%rdi, -8(%rbp)
	movq	%rsi, -16(%rbp)
	movq	%rdx, -24(%rbp)
	movq	-8(%rbp), %rdi
	movq	-16(%rbp), %rax
	movq	(%rax), %rcx
	movq	%rcx, (%rdi)
	movq	8(%rax), %rcx
	movq	(%rdi), %rax
	movq	-24(%rax), %rax
	movq	%rcx, (%rdi,%rax)
	movq	$0, 8(%rdi)
	movq	(%rdi), %rax
	movq	-24(%rax), %rax
	addq	%rax, %rdi
	movq	-24(%rbp), %rsi
	callq	__ZNSt3__19basic_iosIcNS_11char_traitsIcEEE4initEPNS_15basic_streambufIcS2_EE
	addq	$32, %rsp
	popq	%rbp
	retq
	.cfi_endproc
                                        ## -- End function
	.p2align	4, 0x90                         ## -- Begin function _ZNSt3__113basic_ostreamIcNS_11char_traitsIcEEEC2Ev
__ZNSt3__113basic_ostreamIcNS_11char_traitsIcEEEC2Ev: ## @_ZNSt3__113basic_ostreamIcNS_11char_traitsIcEEEC2Ev
	.cfi_startproc
## %bb.0:
	pushq	%rbp
	.cfi_def_cfa_offset 16
	.cfi_offset %rbp, -16
	movq	%rsp, %rbp
	.cfi_def_cfa_register %rbp
	movq	%rdi, -8(%rbp)
	movq	%rsi, -16(%rbp)
	movq	-8(%rbp), %rax
	movq	-16(%rbp), %rcx
	movq	(%rcx), %rdx
	movq	%rdx, (%rax)
	movq	8(%rcx), %rdx
	movq	(%rax), %rcx
	movq	-24(%rcx), %rcx
	movq	%rdx, (%rax,%rcx)
	popq	%rbp
	retq
	.cfi_endproc
                                        ## -- End function
	.p2align	4, 0x90                         ## -- Begin function _ZNSt3__19basic_iosIcNS_11char_traitsIcEEE4initEPNS_15basic_streambufIcS2_EE
__ZNSt3__19basic_iosIcNS_11char_traitsIcEEE4initEPNS_15basic_streambufIcS2_EE: ## @_ZNSt3__19basic_iosIcNS_11char_traitsIcEEE4initEPNS_15basic_streambufIcS2_EE
	.cfi_startproc
## %bb.0:
	pushq	%rbp
	.cfi_def_cfa_offset 16
	.cfi_offset %rbp, -16
	movq	%rsp, %rbp
	.cfi_def_cfa_register %rbp
	subq	$32, %rsp
	movq	%rdi, -8(%rbp)
	movq	%rsi, -16(%rbp)
	movq	-8(%rbp), %rdi
	movq	%rdi, -32(%rbp)                 ## 8-byte Spill
	movq	-16(%rbp), %rsi
	callq	__ZNSt3__18ios_base4initEPv
	callq	__ZNSt3__1L15__get_nullptr_tEv
	movq	%rax, -24(%rbp)
	leaq	-24(%rbp), %rdi
	callq	__ZNKSt3__19nullptr_tcvPT_INS_13basic_ostreamIcNS_11char_traitsIcEEEEEEv
	movq	%rax, %rcx
	movq	-32(%rbp), %rax                 ## 8-byte Reload
	movq	%rcx, 136(%rax)
	callq	__ZNSt3__111char_traitsIcE3eofEv
	movl	%eax, %ecx
	movq	-32(%rbp), %rax                 ## 8-byte Reload
	movl	%ecx, 144(%rax)
	addq	$32, %rsp
	popq	%rbp
	retq
	.cfi_endproc
                                        ## -- End function
	.p2align	4, 0x90                         ## -- Begin function _ZNKSt3__19nullptr_tcvPT_INS_13basic_ostreamIcNS_11char_traitsIcEEEEEEv
__ZNKSt3__19nullptr_tcvPT_INS_13basic_ostreamIcNS_11char_traitsIcEEEEEEv: ## @_ZNKSt3__19nullptr_tcvPT_INS_13basic_ostreamIcNS_11char_traitsIcEEEEEEv
	.cfi_startproc
## %bb.0:
	pushq	%rbp
	.cfi_def_cfa_offset 16
	.cfi_offset %rbp, -16
	movq	%rsp, %rbp
	.cfi_def_cfa_register %rbp
	xorl	%eax, %eax
                                        ## kill: def $rax killed $eax
	movq	%rdi, -8(%rbp)
	popq	%rbp
	retq
	.cfi_endproc
                                        ## -- End function
	.p2align	4, 0x90                         ## -- Begin function _ZNSt3__115basic_stringbufIcNS_11char_traitsIcEENS_9allocatorIcEEEC2ERKNS_12basic_stringIcS2_S4_EEj
__ZNSt3__115basic_stringbufIcNS_11char_traitsIcEENS_9allocatorIcEEEC2ERKNS_12basic_stringIcS2_S4_EEj: ## @_ZNSt3__115basic_stringbufIcNS_11char_traitsIcEENS_9allocatorIcEEEC2ERKNS_12basic_stringIcS2_S4_EEj
Lfunc_begin17:
	.cfi_startproc
	.cfi_personality 155, ___gxx_personality_v0
	.cfi_lsda 16, Lexception17
## %bb.0:
	pushq	%rbp
	.cfi_def_cfa_offset 16
	.cfi_offset %rbp, -16
	movq	%rsp, %rbp
	.cfi_def_cfa_register %rbp
	subq	$96, %rsp
	movl	%edx, %ecx
	movq	%rdi, -8(%rbp)
	movq	%rsi, -16(%rbp)
	movl	%ecx, -20(%rbp)
	movq	-8(%rbp), %rdi
	movq	%rdi, -72(%rbp)                 ## 8-byte Spill
	callq	__ZNSt3__115basic_streambufIcNS_11char_traitsIcEEEC2Ev
	movq	-72(%rbp), %rcx                 ## 8-byte Reload
	movq	__ZTVNSt3__115basic_stringbufIcNS_11char_traitsIcEENS_9allocatorIcEEEE@GOTPCREL(%rip), %rsi
	addq	$16, %rsi
	movq	%rsi, (%rcx)
	addq	$64, %rcx
	movq	%rcx, -64(%rbp)                 ## 8-byte Spill
	movq	-16(%rbp), %rdi
	callq	__ZNKSt3__112basic_stringIcNS_11char_traitsIcEENS_9allocatorIcEEE13get_allocatorEv
	movq	-64(%rbp), %rdi                 ## 8-byte Reload
Ltmp211:
	leaq	-24(%rbp), %rsi
	callq	__ZNSt3__112basic_stringIcNS_11char_traitsIcEENS_9allocatorIcEEEC1ERKS4_
Ltmp212:
	jmp	LBB139_1
LBB139_1:
	movq	-72(%rbp), %rax                 ## 8-byte Reload
	addq	$88, %rax
	movq	%rax, -88(%rbp)                 ## 8-byte Spill
Ltmp214:
	callq	__ZNSt3__1L15__get_nullptr_tEv
	movq	%rax, %rcx
Ltmp215:
	movq	%rcx, -80(%rbp)                 ## 8-byte Spill
	jmp	LBB139_2
LBB139_2:
	movq	-80(%rbp), %rax                 ## 8-byte Reload
	movq	%rax, -56(%rbp)
	leaq	-56(%rbp), %rdi
	callq	__ZNKSt3__19nullptr_tcvPT_IcEEv
	movq	-88(%rbp), %rcx                 ## 8-byte Reload
	movq	-72(%rbp), %rdi                 ## 8-byte Reload
	movq	%rax, %rsi
	movq	%rsi, (%rcx)
	movl	-20(%rbp), %ecx
	movl	%ecx, 96(%rdi)
	movq	-16(%rbp), %rsi
Ltmp216:
	callq	__ZNSt3__115basic_stringbufIcNS_11char_traitsIcEENS_9allocatorIcEEE3strERKNS_12basic_stringIcS2_S4_EE
Ltmp217:
	jmp	LBB139_3
LBB139_3:
	addq	$96, %rsp
	popq	%rbp
	retq
LBB139_4:
Ltmp213:
	movq	%rax, %rcx
	movl	%edx, %eax
	movq	%rcx, -40(%rbp)
	movl	%eax, -44(%rbp)
	jmp	LBB139_7
LBB139_5:
Ltmp218:
	movq	-64(%rbp), %rdi                 ## 8-byte Reload
	movq	%rdx, %rcx
	movq	%rax, %rsi
                                        ## kill: def $ecx killed $ecx killed $rcx
	movq	%rsi, -40(%rbp)
	movl	%ecx, -44(%rbp)
Ltmp219:
	callq	__ZNSt3__112basic_stringIcNS_11char_traitsIcEENS_9allocatorIcEEED1Ev
Ltmp220:
	jmp	LBB139_6
LBB139_6:
	jmp	LBB139_7
LBB139_7:
Ltmp221:
	movq	-72(%rbp), %rdi                 ## 8-byte Reload
	callq	__ZNSt3__115basic_streambufIcNS_11char_traitsIcEEED2Ev
Ltmp222:
	jmp	LBB139_8
LBB139_8:
	jmp	LBB139_9
LBB139_9:
	movq	-40(%rbp), %rdi
	callq	__Unwind_Resume
LBB139_10:
Ltmp223:
	movq	%rax, %rdi
	callq	___clang_call_terminate
Lfunc_end17:
	.cfi_endproc
	.section	__TEXT,__gcc_except_tab
	.p2align	2
GCC_except_table139:
Lexception17:
	.byte	255                             ## @LPStart Encoding = omit
	.byte	155                             ## @TType Encoding = indirect pcrel sdata4
	.uleb128 Lttbase15-Lttbaseref15
Lttbaseref15:
	.byte	1                               ## Call site Encoding = uleb128
	.uleb128 Lcst_end17-Lcst_begin17
Lcst_begin17:
	.uleb128 Lfunc_begin17-Lfunc_begin17    ## >> Call Site 1 <<
	.uleb128 Ltmp211-Lfunc_begin17          ##   Call between Lfunc_begin17 and Ltmp211
	.byte	0                               ##     has no landing pad
	.byte	0                               ##   On action: cleanup
	.uleb128 Ltmp211-Lfunc_begin17          ## >> Call Site 2 <<
	.uleb128 Ltmp212-Ltmp211                ##   Call between Ltmp211 and Ltmp212
	.uleb128 Ltmp213-Lfunc_begin17          ##     jumps to Ltmp213
	.byte	0                               ##   On action: cleanup
	.uleb128 Ltmp214-Lfunc_begin17          ## >> Call Site 3 <<
	.uleb128 Ltmp217-Ltmp214                ##   Call between Ltmp214 and Ltmp217
	.uleb128 Ltmp218-Lfunc_begin17          ##     jumps to Ltmp218
	.byte	0                               ##   On action: cleanup
	.uleb128 Ltmp219-Lfunc_begin17          ## >> Call Site 4 <<
	.uleb128 Ltmp222-Ltmp219                ##   Call between Ltmp219 and Ltmp222
	.uleb128 Ltmp223-Lfunc_begin17          ##     jumps to Ltmp223
	.byte	1                               ##   On action: 1
	.uleb128 Ltmp222-Lfunc_begin17          ## >> Call Site 5 <<
	.uleb128 Lfunc_end17-Ltmp222            ##   Call between Ltmp222 and Lfunc_end17
	.byte	0                               ##     has no landing pad
	.byte	0                               ##   On action: cleanup
Lcst_end17:
	.byte	1                               ## >> Action Record 1 <<
                                        ##   Catch TypeInfo 1
	.byte	0                               ##   No further actions
	.p2align	2
                                        ## >> Catch TypeInfos <<
	.long	0                               ## TypeInfo 1
Lttbase15:
	.p2align	2
                                        ## -- End function
	.section	__TEXT,__text,regular,pure_instructions
	.p2align	4, 0x90                         ## -- Begin function _ZNKSt3__112basic_stringIcNS_11char_traitsIcEENS_9allocatorIcEEE13get_allocatorEv
__ZNKSt3__112basic_stringIcNS_11char_traitsIcEENS_9allocatorIcEEE13get_allocatorEv: ## @_ZNKSt3__112basic_stringIcNS_11char_traitsIcEENS_9allocatorIcEEE13get_allocatorEv
	.cfi_startproc
## %bb.0:
	pushq	%rbp
	.cfi_def_cfa_offset 16
	.cfi_offset %rbp, -16
	movq	%rsp, %rbp
	.cfi_def_cfa_register %rbp
	subq	$16, %rsp
	movq	%rdi, -8(%rbp)
	movq	-8(%rbp), %rdi
	callq	__ZNKSt3__112basic_stringIcNS_11char_traitsIcEENS_9allocatorIcEEE7__allocEv
	addq	$16, %rsp
	popq	%rbp
	retq
	.cfi_endproc
                                        ## -- End function
	.p2align	4, 0x90                         ## -- Begin function _ZNSt3__112basic_stringIcNS_11char_traitsIcEENS_9allocatorIcEEEC1ERKS4_
__ZNSt3__112basic_stringIcNS_11char_traitsIcEENS_9allocatorIcEEEC1ERKS4_: ## @_ZNSt3__112basic_stringIcNS_11char_traitsIcEENS_9allocatorIcEEEC1ERKS4_
	.cfi_startproc
## %bb.0:
	pushq	%rbp
	.cfi_def_cfa_offset 16
	.cfi_offset %rbp, -16
	movq	%rsp, %rbp
	.cfi_def_cfa_register %rbp
	subq	$16, %rsp
	movq	%rdi, -8(%rbp)
	movq	%rsi, -16(%rbp)
	movq	-8(%rbp), %rdi
	movq	-16(%rbp), %rsi
	callq	__ZNSt3__112basic_stringIcNS_11char_traitsIcEENS_9allocatorIcEEEC2ERKS4_
	addq	$16, %rsp
	popq	%rbp
	retq
	.cfi_endproc
                                        ## -- End function
	.globl	__ZNSt3__115basic_stringbufIcNS_11char_traitsIcEENS_9allocatorIcEEE3strERKNS_12basic_stringIcS2_S4_EE ## -- Begin function _ZNSt3__115basic_stringbufIcNS_11char_traitsIcEENS_9allocatorIcEEE3strERKNS_12basic_stringIcS2_S4_EE
	.weak_definition	__ZNSt3__115basic_stringbufIcNS_11char_traitsIcEENS_9allocatorIcEEE3strERKNS_12basic_stringIcS2_S4_EE
	.p2align	4, 0x90
__ZNSt3__115basic_stringbufIcNS_11char_traitsIcEENS_9allocatorIcEEE3strERKNS_12basic_stringIcS2_S4_EE: ## @_ZNSt3__115basic_stringbufIcNS_11char_traitsIcEENS_9allocatorIcEEE3strERKNS_12basic_stringIcS2_S4_EE
	.cfi_startproc
## %bb.0:
	pushq	%rbp
	.cfi_def_cfa_offset 16
	.cfi_offset %rbp, -16
	movq	%rsp, %rbp
	.cfi_def_cfa_register %rbp
	subq	$96, %rsp
	movq	%rdi, -8(%rbp)
	movq	%rsi, -16(%rbp)
	movq	-8(%rbp), %rdi
	movq	%rdi, -40(%rbp)                 ## 8-byte Spill
	movq	-16(%rbp), %rsi
	addq	$64, %rdi
	callq	__ZNSt3__112basic_stringIcNS_11char_traitsIcEENS_9allocatorIcEEEaSERKS5_
	callq	__ZNSt3__1L15__get_nullptr_tEv
	movq	%rax, -24(%rbp)
	leaq	-24(%rbp), %rdi
	callq	__ZNKSt3__19nullptr_tcvPT_IcEEv
	movq	%rax, %rcx
	movq	-40(%rbp), %rax                 ## 8-byte Reload
	movq	%rcx, 88(%rax)
	movl	96(%rax), %eax
	andl	$8, %eax
	cmpl	$0, %eax
	je	LBB142_2
## %bb.1:
	movq	-40(%rbp), %rdi                 ## 8-byte Reload
	addq	$64, %rdi
	callq	__ZNKSt3__112basic_stringIcNS_11char_traitsIcEENS_9allocatorIcEEE4dataEv
	movq	-40(%rbp), %rdi                 ## 8-byte Reload
	movq	%rax, -64(%rbp)                 ## 8-byte Spill
	addq	$64, %rdi
	callq	__ZNKSt3__112basic_stringIcNS_11char_traitsIcEENS_9allocatorIcEEE4sizeEv
	movq	-40(%rbp), %rdi                 ## 8-byte Reload
	movq	%rax, %rcx
	movq	-64(%rbp), %rax                 ## 8-byte Reload
	addq	%rcx, %rax
	movq	%rax, 88(%rdi)
	movq	%rdi, %rax
	movq	%rax, -56(%rbp)                 ## 8-byte Spill
	addq	$64, %rdi
	callq	__ZNKSt3__112basic_stringIcNS_11char_traitsIcEENS_9allocatorIcEEE4dataEv
	movq	-40(%rbp), %rdi                 ## 8-byte Reload
	movq	%rax, -48(%rbp)                 ## 8-byte Spill
	addq	$64, %rdi
	callq	__ZNKSt3__112basic_stringIcNS_11char_traitsIcEENS_9allocatorIcEEE4dataEv
	movq	-56(%rbp), %rdi                 ## 8-byte Reload
	movq	-48(%rbp), %rsi                 ## 8-byte Reload
	movq	%rax, %rdx
	movq	-40(%rbp), %rax                 ## 8-byte Reload
	movq	88(%rax), %rcx
	callq	__ZNSt3__115basic_streambufIcNS_11char_traitsIcEEE4setgEPcS4_S4_
LBB142_2:
	movq	-40(%rbp), %rax                 ## 8-byte Reload
	movl	96(%rax), %eax
	andl	$16, %eax
	cmpl	$0, %eax
	je	LBB142_11
## %bb.3:
	movq	-40(%rbp), %rdi                 ## 8-byte Reload
	addq	$64, %rdi
	callq	__ZNKSt3__112basic_stringIcNS_11char_traitsIcEENS_9allocatorIcEEE4sizeEv
	movq	-40(%rbp), %rdi                 ## 8-byte Reload
	movq	%rax, -32(%rbp)
	addq	$64, %rdi
	callq	__ZNKSt3__112basic_stringIcNS_11char_traitsIcEENS_9allocatorIcEEE4dataEv
	movq	-40(%rbp), %rdi                 ## 8-byte Reload
	addq	-32(%rbp), %rax
	movq	%rax, 88(%rdi)
	movq	%rdi, %rax
	addq	$64, %rax
	movq	%rax, -96(%rbp)                 ## 8-byte Spill
	addq	$64, %rdi
	callq	__ZNKSt3__112basic_stringIcNS_11char_traitsIcEENS_9allocatorIcEEE8capacityEv
	movq	-96(%rbp), %rdi                 ## 8-byte Reload
	movq	%rax, %rsi
	callq	__ZNSt3__112basic_stringIcNS_11char_traitsIcEENS_9allocatorIcEEE6resizeEm
	movq	-40(%rbp), %rdi                 ## 8-byte Reload
	movq	%rdi, %rax
	movq	%rax, -80(%rbp)                 ## 8-byte Spill
	addq	$64, %rdi
	callq	__ZNKSt3__112basic_stringIcNS_11char_traitsIcEENS_9allocatorIcEEE4dataEv
	movq	-40(%rbp), %rdi                 ## 8-byte Reload
	movq	%rax, -72(%rbp)                 ## 8-byte Spill
	addq	$64, %rdi
	callq	__ZNKSt3__112basic_stringIcNS_11char_traitsIcEENS_9allocatorIcEEE4dataEv
	movq	-40(%rbp), %rdi                 ## 8-byte Reload
	movq	%rax, -88(%rbp)                 ## 8-byte Spill
	addq	$64, %rdi
	callq	__ZNKSt3__112basic_stringIcNS_11char_traitsIcEENS_9allocatorIcEEE4sizeEv
	movq	-88(%rbp), %rdx                 ## 8-byte Reload
	movq	-80(%rbp), %rdi                 ## 8-byte Reload
	movq	-72(%rbp), %rsi                 ## 8-byte Reload
	addq	%rax, %rdx
	callq	__ZNSt3__115basic_streambufIcNS_11char_traitsIcEEE4setpEPcS4_
	movq	-40(%rbp), %rax                 ## 8-byte Reload
	movl	96(%rax), %eax
	andl	$3, %eax
	cmpl	$0, %eax
	je	LBB142_10
## %bb.4:
	jmp	LBB142_5
LBB142_5:                               ## =>This Inner Loop Header: Depth=1
	cmpq	$2147483647, -32(%rbp)          ## imm = 0x7FFFFFFF
	jbe	LBB142_7
## %bb.6:                               ##   in Loop: Header=BB142_5 Depth=1
	movq	-40(%rbp), %rdi                 ## 8-byte Reload
	movl	$2147483647, %esi               ## imm = 0x7FFFFFFF
	callq	__ZNSt3__115basic_streambufIcNS_11char_traitsIcEEE5pbumpEi
	movq	-32(%rbp), %rax
	subq	$2147483647, %rax               ## imm = 0x7FFFFFFF
	movq	%rax, -32(%rbp)
	jmp	LBB142_5
LBB142_7:
	cmpq	$0, -32(%rbp)
	jbe	LBB142_9
## %bb.8:
	movq	-40(%rbp), %rdi                 ## 8-byte Reload
	movq	-32(%rbp), %rax
	movl	%eax, %esi
	callq	__ZNSt3__115basic_streambufIcNS_11char_traitsIcEEE5pbumpEi
LBB142_9:
	jmp	LBB142_10
LBB142_10:
	jmp	LBB142_11
LBB142_11:
	addq	$96, %rsp
	popq	%rbp
	retq
	.cfi_endproc
                                        ## -- End function
	.p2align	4, 0x90                         ## -- Begin function _ZNSt3__112basic_stringIcNS_11char_traitsIcEENS_9allocatorIcEEEC2ERKS4_
__ZNSt3__112basic_stringIcNS_11char_traitsIcEENS_9allocatorIcEEEC2ERKS4_: ## @_ZNSt3__112basic_stringIcNS_11char_traitsIcEENS_9allocatorIcEEEC2ERKS4_
	.cfi_startproc
## %bb.0:
	pushq	%rbp
	.cfi_def_cfa_offset 16
	.cfi_offset %rbp, -16
	movq	%rsp, %rbp
	.cfi_def_cfa_register %rbp
	subq	$32, %rsp
	movq	%rdi, -8(%rbp)
	movq	%rsi, -16(%rbp)
	movq	-8(%rbp), %rdi
	movq	%rdi, -32(%rbp)                 ## 8-byte Spill
	movq	-16(%rbp), %rdx
	leaq	-24(%rbp), %rsi
	callq	__ZNSt3__117__compressed_pairINS_12basic_stringIcNS_11char_traitsIcEENS_9allocatorIcEEE5__repES5_EC1INS_18__default_init_tagERKS5_EEOT_OT0_
	movq	-32(%rbp), %rdi                 ## 8-byte Reload
	callq	__ZNSt3__112basic_stringIcNS_11char_traitsIcEENS_9allocatorIcEEE6__zeroEv
	addq	$32, %rsp
	popq	%rbp
	retq
	.cfi_endproc
                                        ## -- End function
	.p2align	4, 0x90                         ## -- Begin function _ZNSt3__117__compressed_pairINS_12basic_stringIcNS_11char_traitsIcEENS_9allocatorIcEEE5__repES5_EC1INS_18__default_init_tagERKS5_EEOT_OT0_
__ZNSt3__117__compressed_pairINS_12basic_stringIcNS_11char_traitsIcEENS_9allocatorIcEEE5__repES5_EC1INS_18__default_init_tagERKS5_EEOT_OT0_: ## @_ZNSt3__117__compressed_pairINS_12basic_stringIcNS_11char_traitsIcEENS_9allocatorIcEEE5__repES5_EC1INS_18__default_init_tagERKS5_EEOT_OT0_
	.cfi_startproc
## %bb.0:
	pushq	%rbp
	.cfi_def_cfa_offset 16
	.cfi_offset %rbp, -16
	movq	%rsp, %rbp
	.cfi_def_cfa_register %rbp
	subq	$32, %rsp
	movq	%rdi, -8(%rbp)
	movq	%rsi, -16(%rbp)
	movq	%rdx, -24(%rbp)
	movq	-8(%rbp), %rdi
	movq	-16(%rbp), %rsi
	movq	-24(%rbp), %rdx
	callq	__ZNSt3__117__compressed_pairINS_12basic_stringIcNS_11char_traitsIcEENS_9allocatorIcEEE5__repES5_EC2INS_18__default_init_tagERKS5_EEOT_OT0_
	addq	$32, %rsp
	popq	%rbp
	retq
	.cfi_endproc
                                        ## -- End function
	.p2align	4, 0x90                         ## -- Begin function _ZNSt3__117__compressed_pairINS_12basic_stringIcNS_11char_traitsIcEENS_9allocatorIcEEE5__repES5_EC2INS_18__default_init_tagERKS5_EEOT_OT0_
__ZNSt3__117__compressed_pairINS_12basic_stringIcNS_11char_traitsIcEENS_9allocatorIcEEE5__repES5_EC2INS_18__default_init_tagERKS5_EEOT_OT0_: ## @_ZNSt3__117__compressed_pairINS_12basic_stringIcNS_11char_traitsIcEENS_9allocatorIcEEE5__repES5_EC2INS_18__default_init_tagERKS5_EEOT_OT0_
	.cfi_startproc
## %bb.0:
	pushq	%rbp
	.cfi_def_cfa_offset 16
	.cfi_offset %rbp, -16
	movq	%rsp, %rbp
	.cfi_def_cfa_register %rbp
	subq	$64, %rsp
	movq	%rdi, -8(%rbp)
	movq	%rsi, -16(%rbp)
	movq	%rdx, -24(%rbp)
	movq	-8(%rbp), %rax
	movq	%rax, -48(%rbp)                 ## 8-byte Spill
	movq	%rax, -56(%rbp)                 ## 8-byte Spill
	movq	-16(%rbp), %rdi
	callq	__ZNSt3__1L7forwardINS_18__default_init_tagEEEOT_RNS_16remove_referenceIS2_E4typeE
	movq	-56(%rbp), %rdi                 ## 8-byte Reload
	callq	__ZNSt3__122__compressed_pair_elemINS_12basic_stringIcNS_11char_traitsIcEENS_9allocatorIcEEE5__repELi0ELb0EEC2ENS_18__default_init_tagE
	movq	-48(%rbp), %rax                 ## 8-byte Reload
	movq	%rax, -40(%rbp)                 ## 8-byte Spill
	movq	-24(%rbp), %rdi
	callq	__ZNSt3__1L7forwardIRKNS_9allocatorIcEEEEOT_RNS_16remove_referenceIS5_E4typeE
	movq	-40(%rbp), %rdi                 ## 8-byte Reload
	movq	%rax, %rsi
	callq	__ZNSt3__122__compressed_pair_elemINS_9allocatorIcEELi1ELb1EEC2IRKS2_vEEOT_
	addq	$64, %rsp
	popq	%rbp
	retq
	.cfi_endproc
                                        ## -- End function
	.p2align	4, 0x90                         ## -- Begin function _ZNSt3__1L7forwardIRKNS_9allocatorIcEEEEOT_RNS_16remove_referenceIS5_E4typeE
__ZNSt3__1L7forwardIRKNS_9allocatorIcEEEEOT_RNS_16remove_referenceIS5_E4typeE: ## @_ZNSt3__1L7forwardIRKNS_9allocatorIcEEEEOT_RNS_16remove_referenceIS5_E4typeE
	.cfi_startproc
## %bb.0:
	pushq	%rbp
	.cfi_def_cfa_offset 16
	.cfi_offset %rbp, -16
	movq	%rsp, %rbp
	.cfi_def_cfa_register %rbp
	movq	%rdi, -8(%rbp)
	movq	-8(%rbp), %rax
	popq	%rbp
	retq
	.cfi_endproc
                                        ## -- End function
	.p2align	4, 0x90                         ## -- Begin function _ZNSt3__122__compressed_pair_elemINS_9allocatorIcEELi1ELb1EEC2IRKS2_vEEOT_
__ZNSt3__122__compressed_pair_elemINS_9allocatorIcEELi1ELb1EEC2IRKS2_vEEOT_: ## @_ZNSt3__122__compressed_pair_elemINS_9allocatorIcEELi1ELb1EEC2IRKS2_vEEOT_
	.cfi_startproc
## %bb.0:
	pushq	%rbp
	.cfi_def_cfa_offset 16
	.cfi_offset %rbp, -16
	movq	%rsp, %rbp
	.cfi_def_cfa_register %rbp
	subq	$16, %rsp
	movq	%rdi, -8(%rbp)
	movq	%rsi, -16(%rbp)
	movq	-16(%rbp), %rdi
	callq	__ZNSt3__1L7forwardIRKNS_9allocatorIcEEEEOT_RNS_16remove_referenceIS5_E4typeE
	addq	$16, %rsp
	popq	%rbp
	retq
	.cfi_endproc
                                        ## -- End function
	.p2align	4, 0x90                         ## -- Begin function _ZNSt3__114numeric_limitsIlE3maxEv
__ZNSt3__114numeric_limitsIlE3maxEv:    ## @_ZNSt3__114numeric_limitsIlE3maxEv
	.cfi_startproc
## %bb.0:
	pushq	%rbp
	.cfi_def_cfa_offset 16
	.cfi_offset %rbp, -16
	movq	%rsp, %rbp
	.cfi_def_cfa_register %rbp
	callq	__ZNSt3__123__libcpp_numeric_limitsIlLb1EE3maxEv
	popq	%rbp
	retq
	.cfi_endproc
                                        ## -- End function
	.p2align	4, 0x90                         ## -- Begin function _ZNSt3__115basic_streambufIcNS_11char_traitsIcEEE5sgetcEv
__ZNSt3__115basic_streambufIcNS_11char_traitsIcEEE5sgetcEv: ## @_ZNSt3__115basic_streambufIcNS_11char_traitsIcEEE5sgetcEv
	.cfi_startproc
## %bb.0:
	pushq	%rbp
	.cfi_def_cfa_offset 16
	.cfi_offset %rbp, -16
	movq	%rsp, %rbp
	.cfi_def_cfa_register %rbp
	subq	$32, %rsp
	movq	%rdi, -16(%rbp)
	movq	-16(%rbp), %rcx
	movq	%rcx, -24(%rbp)                 ## 8-byte Spill
	movq	24(%rcx), %rax
	cmpq	32(%rcx), %rax
	jne	LBB149_2
## %bb.1:
	movq	-24(%rbp), %rdi                 ## 8-byte Reload
	movq	(%rdi), %rax
	callq	*72(%rax)
	movl	%eax, -4(%rbp)
	jmp	LBB149_3
LBB149_2:
	movq	-24(%rbp), %rax                 ## 8-byte Reload
	movq	24(%rax), %rax
	movsbl	(%rax), %edi
	callq	__ZNSt3__111char_traitsIcE11to_int_typeEc
	movl	%eax, -4(%rbp)
LBB149_3:
	movl	-4(%rbp), %eax
	addq	$32, %rsp
	popq	%rbp
	retq
	.cfi_endproc
                                        ## -- End function
	.p2align	4, 0x90                         ## -- Begin function _ZNKSt3__15ctypeIcE2isEjc
__ZNKSt3__15ctypeIcE2isEjc:             ## @_ZNKSt3__15ctypeIcE2isEjc
	.cfi_startproc
## %bb.0:
	pushq	%rbp
	.cfi_def_cfa_offset 16
	.cfi_offset %rbp, -16
	movq	%rsp, %rbp
	.cfi_def_cfa_register %rbp
	subq	$32, %rsp
	movb	%dl, %al
	movq	%rdi, -8(%rbp)
	movl	%esi, -12(%rbp)
	movb	%al, -13(%rbp)
	movq	-8(%rbp), %rax
	movq	%rax, -24(%rbp)                 ## 8-byte Spill
	movsbl	-13(%rbp), %edi
	callq	__Z7isasciii
	cmpl	$0, %eax
	je	LBB150_2
## %bb.1:
	movq	-24(%rbp), %rax                 ## 8-byte Reload
	movq	16(%rax), %rax
	movsbl	-13(%rbp), %ecx
	movslq	%ecx, %rcx
	movl	(%rax,%rcx,4), %eax
	andl	-12(%rbp), %eax
	cmpl	$0, %eax
	setne	%al
	movb	%al, -25(%rbp)                  ## 1-byte Spill
	jmp	LBB150_3
LBB150_2:
	xorl	%eax, %eax
                                        ## kill: def $al killed $al killed $eax
	movb	%al, -25(%rbp)                  ## 1-byte Spill
	jmp	LBB150_3
LBB150_3:
	movb	-25(%rbp), %al                  ## 1-byte Reload
	andb	$1, %al
	movzbl	%al, %eax
	addq	$32, %rsp
	popq	%rbp
	retq
	.cfi_endproc
                                        ## -- End function
	.p2align	4, 0x90                         ## -- Begin function _ZNSt3__123__libcpp_numeric_limitsIlLb1EE3maxEv
__ZNSt3__123__libcpp_numeric_limitsIlLb1EE3maxEv: ## @_ZNSt3__123__libcpp_numeric_limitsIlLb1EE3maxEv
	.cfi_startproc
## %bb.0:
	pushq	%rbp
	.cfi_def_cfa_offset 16
	.cfi_offset %rbp, -16
	movq	%rsp, %rbp
	.cfi_def_cfa_register %rbp
	movabsq	$9223372036854775807, %rax      ## imm = 0x7FFFFFFFFFFFFFFF
	popq	%rbp
	retq
	.cfi_endproc
                                        ## -- End function
	.globl	__Z7isasciii                    ## -- Begin function _Z7isasciii
	.weak_definition	__Z7isasciii
	.p2align	4, 0x90
__Z7isasciii:                           ## @_Z7isasciii
	.cfi_startproc
## %bb.0:
	pushq	%rbp
	.cfi_def_cfa_offset 16
	.cfi_offset %rbp, -16
	movq	%rsp, %rbp
	.cfi_def_cfa_register %rbp
	movl	%edi, -4(%rbp)
	movl	-4(%rbp), %eax
	andl	$-128, %eax
	cmpl	$0, %eax
	sete	%al
	andb	$1, %al
	movzbl	%al, %eax
	popq	%rbp
	retq
	.cfi_endproc
                                        ## -- End function
	.section	__TEXT,__cstring,cstring_literals
L_.str:                                 ## @.str
	.asciz	"Enter the sting with white spaces : "

L_.str.1:                               ## @.str.1
	.asciz	"hex : "

L_.str.2:                               ## @.str.2
	.asciz	"dec : "

L_.str.3:                               ## @.str.3
	.asciz	"skipws : "

L_.str.4:                               ## @.str.4
	.asciz	"noskipws : "

	.section	__DATA,__const
	.globl	__ZTVNSt3__118basic_stringstreamIcNS_11char_traitsIcEENS_9allocatorIcEEEE ## @_ZTVNSt3__118basic_stringstreamIcNS_11char_traitsIcEENS_9allocatorIcEEEE
	.weak_def_can_be_hidden	__ZTVNSt3__118basic_stringstreamIcNS_11char_traitsIcEENS_9allocatorIcEEEE
	.p2align	3
__ZTVNSt3__118basic_stringstreamIcNS_11char_traitsIcEENS_9allocatorIcEEEE:
	.quad	128
	.quad	0
	.quad	__ZTINSt3__118basic_stringstreamIcNS_11char_traitsIcEENS_9allocatorIcEEEE
	.quad	__ZNSt3__118basic_stringstreamIcNS_11char_traitsIcEENS_9allocatorIcEEED1Ev
	.quad	__ZNSt3__118basic_stringstreamIcNS_11char_traitsIcEENS_9allocatorIcEEED0Ev
	.quad	112
	.quad	-16
	.quad	__ZTINSt3__118basic_stringstreamIcNS_11char_traitsIcEENS_9allocatorIcEEEE
	.quad	__ZThn16_NSt3__118basic_stringstreamIcNS_11char_traitsIcEENS_9allocatorIcEEED1Ev
	.quad	__ZThn16_NSt3__118basic_stringstreamIcNS_11char_traitsIcEENS_9allocatorIcEEED0Ev
	.quad	-128
	.quad	-128
	.quad	__ZTINSt3__118basic_stringstreamIcNS_11char_traitsIcEENS_9allocatorIcEEEE
	.quad	__ZTv0_n24_NSt3__118basic_stringstreamIcNS_11char_traitsIcEENS_9allocatorIcEEED1Ev
	.quad	__ZTv0_n24_NSt3__118basic_stringstreamIcNS_11char_traitsIcEENS_9allocatorIcEEED0Ev

	.globl	__ZTTNSt3__118basic_stringstreamIcNS_11char_traitsIcEENS_9allocatorIcEEEE ## @_ZTTNSt3__118basic_stringstreamIcNS_11char_traitsIcEENS_9allocatorIcEEEE
	.weak_def_can_be_hidden	__ZTTNSt3__118basic_stringstreamIcNS_11char_traitsIcEENS_9allocatorIcEEEE
	.p2align	3
__ZTTNSt3__118basic_stringstreamIcNS_11char_traitsIcEENS_9allocatorIcEEEE:
	.quad	__ZTVNSt3__118basic_stringstreamIcNS_11char_traitsIcEENS_9allocatorIcEEEE+24
	.quad	__ZTCNSt3__118basic_stringstreamIcNS_11char_traitsIcEENS_9allocatorIcEEEE0_NS_14basic_iostreamIcS2_EE+24
	.quad	__ZTCNSt3__118basic_stringstreamIcNS_11char_traitsIcEENS_9allocatorIcEEEE0_NS_13basic_istreamIcS2_EE+24
	.quad	__ZTCNSt3__118basic_stringstreamIcNS_11char_traitsIcEENS_9allocatorIcEEEE0_NS_13basic_istreamIcS2_EE+64
	.quad	__ZTCNSt3__118basic_stringstreamIcNS_11char_traitsIcEENS_9allocatorIcEEEE16_NS_13basic_ostreamIcS2_EE+24
	.quad	__ZTCNSt3__118basic_stringstreamIcNS_11char_traitsIcEENS_9allocatorIcEEEE16_NS_13basic_ostreamIcS2_EE+64
	.quad	__ZTCNSt3__118basic_stringstreamIcNS_11char_traitsIcEENS_9allocatorIcEEEE0_NS_14basic_iostreamIcS2_EE+104
	.quad	__ZTCNSt3__118basic_stringstreamIcNS_11char_traitsIcEENS_9allocatorIcEEEE0_NS_14basic_iostreamIcS2_EE+64
	.quad	__ZTVNSt3__118basic_stringstreamIcNS_11char_traitsIcEENS_9allocatorIcEEEE+104
	.quad	__ZTVNSt3__118basic_stringstreamIcNS_11char_traitsIcEENS_9allocatorIcEEEE+64

	.globl	__ZTCNSt3__118basic_stringstreamIcNS_11char_traitsIcEENS_9allocatorIcEEEE0_NS_14basic_iostreamIcS2_EE ## @_ZTCNSt3__118basic_stringstreamIcNS_11char_traitsIcEENS_9allocatorIcEEEE0_NS_14basic_iostreamIcS2_EE
	.weak_def_can_be_hidden	__ZTCNSt3__118basic_stringstreamIcNS_11char_traitsIcEENS_9allocatorIcEEEE0_NS_14basic_iostreamIcS2_EE
	.p2align	3
__ZTCNSt3__118basic_stringstreamIcNS_11char_traitsIcEENS_9allocatorIcEEEE0_NS_14basic_iostreamIcS2_EE:
	.quad	128
	.quad	0
	.quad	__ZTINSt3__114basic_iostreamIcNS_11char_traitsIcEEEE
	.quad	__ZNSt3__114basic_iostreamIcNS_11char_traitsIcEEED1Ev
	.quad	__ZNSt3__114basic_iostreamIcNS_11char_traitsIcEEED0Ev
	.quad	112
	.quad	-16
	.quad	__ZTINSt3__114basic_iostreamIcNS_11char_traitsIcEEEE
	.quad	__ZThn16_NSt3__114basic_iostreamIcNS_11char_traitsIcEEED1Ev
	.quad	__ZThn16_NSt3__114basic_iostreamIcNS_11char_traitsIcEEED0Ev
	.quad	-128
	.quad	-128
	.quad	__ZTINSt3__114basic_iostreamIcNS_11char_traitsIcEEEE
	.quad	__ZTv0_n24_NSt3__114basic_iostreamIcNS_11char_traitsIcEEED1Ev
	.quad	__ZTv0_n24_NSt3__114basic_iostreamIcNS_11char_traitsIcEEED0Ev

	.globl	__ZTCNSt3__118basic_stringstreamIcNS_11char_traitsIcEENS_9allocatorIcEEEE0_NS_13basic_istreamIcS2_EE ## @_ZTCNSt3__118basic_stringstreamIcNS_11char_traitsIcEENS_9allocatorIcEEEE0_NS_13basic_istreamIcS2_EE
	.weak_def_can_be_hidden	__ZTCNSt3__118basic_stringstreamIcNS_11char_traitsIcEENS_9allocatorIcEEEE0_NS_13basic_istreamIcS2_EE
	.p2align	3
__ZTCNSt3__118basic_stringstreamIcNS_11char_traitsIcEENS_9allocatorIcEEEE0_NS_13basic_istreamIcS2_EE:
	.quad	128
	.quad	0
	.quad	__ZTINSt3__113basic_istreamIcNS_11char_traitsIcEEEE
	.quad	__ZNSt3__113basic_istreamIcNS_11char_traitsIcEEED1Ev
	.quad	__ZNSt3__113basic_istreamIcNS_11char_traitsIcEEED0Ev
	.quad	-128
	.quad	-128
	.quad	__ZTINSt3__113basic_istreamIcNS_11char_traitsIcEEEE
	.quad	__ZTv0_n24_NSt3__113basic_istreamIcNS_11char_traitsIcEEED1Ev
	.quad	__ZTv0_n24_NSt3__113basic_istreamIcNS_11char_traitsIcEEED0Ev

	.globl	__ZTCNSt3__118basic_stringstreamIcNS_11char_traitsIcEENS_9allocatorIcEEEE16_NS_13basic_ostreamIcS2_EE ## @_ZTCNSt3__118basic_stringstreamIcNS_11char_traitsIcEENS_9allocatorIcEEEE16_NS_13basic_ostreamIcS2_EE
	.weak_def_can_be_hidden	__ZTCNSt3__118basic_stringstreamIcNS_11char_traitsIcEENS_9allocatorIcEEEE16_NS_13basic_ostreamIcS2_EE
	.p2align	3
__ZTCNSt3__118basic_stringstreamIcNS_11char_traitsIcEENS_9allocatorIcEEEE16_NS_13basic_ostreamIcS2_EE:
	.quad	112
	.quad	0
	.quad	__ZTINSt3__113basic_ostreamIcNS_11char_traitsIcEEEE
	.quad	__ZNSt3__113basic_ostreamIcNS_11char_traitsIcEEED1Ev
	.quad	__ZNSt3__113basic_ostreamIcNS_11char_traitsIcEEED0Ev
	.quad	-112
	.quad	-112
	.quad	__ZTINSt3__113basic_ostreamIcNS_11char_traitsIcEEEE
	.quad	__ZTv0_n24_NSt3__113basic_ostreamIcNS_11char_traitsIcEEED1Ev
	.quad	__ZTv0_n24_NSt3__113basic_ostreamIcNS_11char_traitsIcEEED0Ev

	.section	__TEXT,__const
	.globl	__ZTSNSt3__118basic_stringstreamIcNS_11char_traitsIcEENS_9allocatorIcEEEE ## @_ZTSNSt3__118basic_stringstreamIcNS_11char_traitsIcEENS_9allocatorIcEEEE
	.weak_definition	__ZTSNSt3__118basic_stringstreamIcNS_11char_traitsIcEENS_9allocatorIcEEEE
__ZTSNSt3__118basic_stringstreamIcNS_11char_traitsIcEENS_9allocatorIcEEEE:
	.asciz	"NSt3__118basic_stringstreamIcNS_11char_traitsIcEENS_9allocatorIcEEEE"

	.section	__DATA,__const
	.globl	__ZTINSt3__118basic_stringstreamIcNS_11char_traitsIcEENS_9allocatorIcEEEE ## @_ZTINSt3__118basic_stringstreamIcNS_11char_traitsIcEENS_9allocatorIcEEEE
	.weak_definition	__ZTINSt3__118basic_stringstreamIcNS_11char_traitsIcEENS_9allocatorIcEEEE
	.p2align	3
__ZTINSt3__118basic_stringstreamIcNS_11char_traitsIcEENS_9allocatorIcEEEE:
	.quad	__ZTVN10__cxxabiv120__si_class_type_infoE+16
	.quad	__ZTSNSt3__118basic_stringstreamIcNS_11char_traitsIcEENS_9allocatorIcEEEE
	.quad	__ZTINSt3__114basic_iostreamIcNS_11char_traitsIcEEEE

	.globl	__ZTVNSt3__115basic_stringbufIcNS_11char_traitsIcEENS_9allocatorIcEEEE ## @_ZTVNSt3__115basic_stringbufIcNS_11char_traitsIcEENS_9allocatorIcEEEE
	.weak_def_can_be_hidden	__ZTVNSt3__115basic_stringbufIcNS_11char_traitsIcEENS_9allocatorIcEEEE
	.p2align	3
__ZTVNSt3__115basic_stringbufIcNS_11char_traitsIcEENS_9allocatorIcEEEE:
	.quad	0
	.quad	__ZTINSt3__115basic_stringbufIcNS_11char_traitsIcEENS_9allocatorIcEEEE
	.quad	__ZNSt3__115basic_stringbufIcNS_11char_traitsIcEENS_9allocatorIcEEED1Ev
	.quad	__ZNSt3__115basic_stringbufIcNS_11char_traitsIcEENS_9allocatorIcEEED0Ev
	.quad	__ZNSt3__115basic_streambufIcNS_11char_traitsIcEEE5imbueERKNS_6localeE
	.quad	__ZNSt3__115basic_streambufIcNS_11char_traitsIcEEE6setbufEPcl
	.quad	__ZNSt3__115basic_stringbufIcNS_11char_traitsIcEENS_9allocatorIcEEE7seekoffExNS_8ios_base7seekdirEj
	.quad	__ZNSt3__115basic_stringbufIcNS_11char_traitsIcEENS_9allocatorIcEEE7seekposENS_4fposI11__mbstate_tEEj
	.quad	__ZNSt3__115basic_streambufIcNS_11char_traitsIcEEE4syncEv
	.quad	__ZNSt3__115basic_streambufIcNS_11char_traitsIcEEE9showmanycEv
	.quad	__ZNSt3__115basic_streambufIcNS_11char_traitsIcEEE6xsgetnEPcl
	.quad	__ZNSt3__115basic_stringbufIcNS_11char_traitsIcEENS_9allocatorIcEEE9underflowEv
	.quad	__ZNSt3__115basic_streambufIcNS_11char_traitsIcEEE5uflowEv
	.quad	__ZNSt3__115basic_stringbufIcNS_11char_traitsIcEENS_9allocatorIcEEE9pbackfailEi
	.quad	__ZNSt3__115basic_streambufIcNS_11char_traitsIcEEE6xsputnEPKcl
	.quad	__ZNSt3__115basic_stringbufIcNS_11char_traitsIcEENS_9allocatorIcEEE8overflowEi

	.section	__TEXT,__const
	.globl	__ZTSNSt3__115basic_stringbufIcNS_11char_traitsIcEENS_9allocatorIcEEEE ## @_ZTSNSt3__115basic_stringbufIcNS_11char_traitsIcEENS_9allocatorIcEEEE
	.weak_definition	__ZTSNSt3__115basic_stringbufIcNS_11char_traitsIcEENS_9allocatorIcEEEE
__ZTSNSt3__115basic_stringbufIcNS_11char_traitsIcEENS_9allocatorIcEEEE:
	.asciz	"NSt3__115basic_stringbufIcNS_11char_traitsIcEENS_9allocatorIcEEEE"

	.section	__DATA,__const
	.globl	__ZTINSt3__115basic_stringbufIcNS_11char_traitsIcEENS_9allocatorIcEEEE ## @_ZTINSt3__115basic_stringbufIcNS_11char_traitsIcEENS_9allocatorIcEEEE
	.weak_definition	__ZTINSt3__115basic_stringbufIcNS_11char_traitsIcEENS_9allocatorIcEEEE
	.p2align	3
__ZTINSt3__115basic_stringbufIcNS_11char_traitsIcEENS_9allocatorIcEEEE:
	.quad	__ZTVN10__cxxabiv120__si_class_type_infoE+16
	.quad	__ZTSNSt3__115basic_stringbufIcNS_11char_traitsIcEENS_9allocatorIcEEEE
	.quad	__ZTINSt3__115basic_streambufIcNS_11char_traitsIcEEEE

.subsections_via_symbols
