	.section	__TEXT,__text,regular,pure_instructions
	.build_version macos, 11, 0	sdk_version 12, 1
	.globl	_main                           ## -- Begin function main
	.p2align	4, 0x90
_main:                                  ## @main
Lfunc_begin0:
	.cfi_startproc
	.cfi_personality 155, ___gxx_personality_v0
	.cfi_lsda 16, Lexception0
## %bb.0:
	pushq	%rbp
	.cfi_def_cfa_offset 16
	.cfi_offset %rbp, -16
	movq	%rsp, %rbp
	.cfi_def_cfa_register %rbp
	subq	$672, %rsp                      ## imm = 0x2A0
	movq	___stack_chk_guard@GOTPCREL(%rip), %rcx
	movq	(%rcx), %rcx
	movq	%rcx, -8(%rbp)
	movl	$0, -588(%rbp)
	leaq	-584(%rbp), %rdi
	movq	%rdi, -640(%rbp)                ## 8-byte Spill
	callq	__ZNSt3__114basic_ifstreamIcNS_11char_traitsIcEEEC1Ev
	movq	-640(%rbp), %rdi                ## 8-byte Reload
Ltmp0:
	leaq	L_.str(%rip), %rsi
	movl	$8, %edx
	callq	__ZNSt3__114basic_ifstreamIcNS_11char_traitsIcEEE4openEPKcj
Ltmp1:
	jmp	LBB0_1
LBB0_1:
Ltmp2:
	leaq	-632(%rbp), %rdi
	callq	__ZNSt3__112basic_stringIcNS_11char_traitsIcEENS_9allocatorIcEEEC1Ev
Ltmp3:
	jmp	LBB0_2
LBB0_2:
Ltmp4:
	movq	__ZNSt3__12wsIcNS_11char_traitsIcEEEERNS_13basic_istreamIT_T0_EES7_@GOTPCREL(%rip), %rsi
	leaq	-584(%rbp), %rdi
	callq	__ZNSt3__113basic_istreamIcNS_11char_traitsIcEEErsEPFRS3_S4_E
	movq	%rax, %rcx
Ltmp5:
	movq	%rcx, -648(%rbp)                ## 8-byte Spill
	jmp	LBB0_3
LBB0_3:
Ltmp6:
	movq	-648(%rbp), %rdi                ## 8-byte Reload
	leaq	-632(%rbp), %rsi
	callq	__ZNSt3__1L7getlineIcNS_11char_traitsIcEENS_9allocatorIcEEEERNS_13basic_istreamIT_T0_EES9_RNS_12basic_stringIS6_S7_T1_EE
                                        ## kill: def $rcx killed $rax
Ltmp7:
	jmp	LBB0_4
LBB0_4:
Ltmp8:
	movq	__ZNSt3__14coutE@GOTPCREL(%rip), %rdi
	leaq	L_.str.1(%rip), %rsi
	callq	__ZNSt3__1lsINS_11char_traitsIcEEEERNS_13basic_ostreamIcT_EES6_PKc
	movq	%rax, %rcx
Ltmp9:
	movq	%rcx, -656(%rbp)                ## 8-byte Spill
	jmp	LBB0_5
LBB0_5:
Ltmp10:
	movq	-656(%rbp), %rdi                ## 8-byte Reload
	leaq	-632(%rbp), %rsi
	callq	__ZNSt3__1lsIcNS_11char_traitsIcEENS_9allocatorIcEEEERNS_13basic_ostreamIT_T0_EES9_RKNS_12basic_stringIS6_S7_T1_EE
	movq	%rax, %rcx
Ltmp11:
	movq	%rcx, -664(%rbp)                ## 8-byte Spill
	jmp	LBB0_6
LBB0_6:
Ltmp12:
	movq	-664(%rbp), %rdi                ## 8-byte Reload
	movq	__ZNSt3__14endlIcNS_11char_traitsIcEEEERNS_13basic_ostreamIT_T0_EES7_@GOTPCREL(%rip), %rsi
	callq	__ZNSt3__113basic_ostreamIcNS_11char_traitsIcEEElsEPFRS3_S4_E
                                        ## kill: def $rcx killed $rax
Ltmp13:
	jmp	LBB0_7
LBB0_7:
Ltmp14:
	leaq	-584(%rbp), %rdi
	callq	__ZNSt3__114basic_ifstreamIcNS_11char_traitsIcEEE5closeEv
Ltmp15:
	jmp	LBB0_8
LBB0_8:
	movl	$0, -588(%rbp)
Ltmp19:
	leaq	-632(%rbp), %rdi
	callq	__ZNSt3__112basic_stringIcNS_11char_traitsIcEENS_9allocatorIcEEED1Ev
Ltmp20:
	jmp	LBB0_11
LBB0_9:
Ltmp21:
	movq	%rax, %rcx
	movl	%edx, %eax
	movq	%rcx, -600(%rbp)
	movl	%eax, -604(%rbp)
	jmp	LBB0_14
LBB0_10:
Ltmp16:
	movq	%rdx, %rcx
	movq	%rax, %rsi
                                        ## kill: def $ecx killed $ecx killed $rcx
	movq	%rsi, -600(%rbp)
	movl	%ecx, -604(%rbp)
Ltmp17:
	leaq	-632(%rbp), %rdi
	callq	__ZNSt3__112basic_stringIcNS_11char_traitsIcEENS_9allocatorIcEEED1Ev
Ltmp18:
	jmp	LBB0_13
LBB0_11:
	leaq	-584(%rbp), %rdi
	callq	__ZNSt3__114basic_ifstreamIcNS_11char_traitsIcEEED1Ev
	movl	-588(%rbp), %eax
	movl	%eax, -668(%rbp)                ## 4-byte Spill
	movq	___stack_chk_guard@GOTPCREL(%rip), %rax
	movq	(%rax), %rax
	movq	-8(%rbp), %rcx
	cmpq	%rcx, %rax
	jne	LBB0_18
## %bb.12:
	movl	-668(%rbp), %eax                ## 4-byte Reload
	addq	$672, %rsp                      ## imm = 0x2A0
	popq	%rbp
	retq
LBB0_13:
	jmp	LBB0_14
LBB0_14:
Ltmp22:
	leaq	-584(%rbp), %rdi
	callq	__ZNSt3__114basic_ifstreamIcNS_11char_traitsIcEEED1Ev
Ltmp23:
	jmp	LBB0_15
LBB0_15:
	jmp	LBB0_16
LBB0_16:
	movq	-600(%rbp), %rdi
	callq	__Unwind_Resume
LBB0_17:
Ltmp24:
	movq	%rax, %rdi
	callq	___clang_call_terminate
LBB0_18:
	callq	___stack_chk_fail
	ud2
Lfunc_end0:
	.cfi_endproc
	.section	__TEXT,__gcc_except_tab
	.p2align	2
GCC_except_table0:
Lexception0:
	.byte	255                             ## @LPStart Encoding = omit
	.byte	155                             ## @TType Encoding = indirect pcrel sdata4
	.uleb128 Lttbase0-Lttbaseref0
Lttbaseref0:
	.byte	1                               ## Call site Encoding = uleb128
	.uleb128 Lcst_end0-Lcst_begin0
Lcst_begin0:
	.uleb128 Lfunc_begin0-Lfunc_begin0      ## >> Call Site 1 <<
	.uleb128 Ltmp0-Lfunc_begin0             ##   Call between Lfunc_begin0 and Ltmp0
	.byte	0                               ##     has no landing pad
	.byte	0                               ##   On action: cleanup
	.uleb128 Ltmp0-Lfunc_begin0             ## >> Call Site 2 <<
	.uleb128 Ltmp3-Ltmp0                    ##   Call between Ltmp0 and Ltmp3
	.uleb128 Ltmp21-Lfunc_begin0            ##     jumps to Ltmp21
	.byte	0                               ##   On action: cleanup
	.uleb128 Ltmp4-Lfunc_begin0             ## >> Call Site 3 <<
	.uleb128 Ltmp15-Ltmp4                   ##   Call between Ltmp4 and Ltmp15
	.uleb128 Ltmp16-Lfunc_begin0            ##     jumps to Ltmp16
	.byte	0                               ##   On action: cleanup
	.uleb128 Ltmp19-Lfunc_begin0            ## >> Call Site 4 <<
	.uleb128 Ltmp20-Ltmp19                  ##   Call between Ltmp19 and Ltmp20
	.uleb128 Ltmp21-Lfunc_begin0            ##     jumps to Ltmp21
	.byte	0                               ##   On action: cleanup
	.uleb128 Ltmp17-Lfunc_begin0            ## >> Call Site 5 <<
	.uleb128 Ltmp18-Ltmp17                  ##   Call between Ltmp17 and Ltmp18
	.uleb128 Ltmp24-Lfunc_begin0            ##     jumps to Ltmp24
	.byte	1                               ##   On action: 1
	.uleb128 Ltmp18-Lfunc_begin0            ## >> Call Site 6 <<
	.uleb128 Ltmp22-Ltmp18                  ##   Call between Ltmp18 and Ltmp22
	.byte	0                               ##     has no landing pad
	.byte	0                               ##   On action: cleanup
	.uleb128 Ltmp22-Lfunc_begin0            ## >> Call Site 7 <<
	.uleb128 Ltmp23-Ltmp22                  ##   Call between Ltmp22 and Ltmp23
	.uleb128 Ltmp24-Lfunc_begin0            ##     jumps to Ltmp24
	.byte	1                               ##   On action: 1
	.uleb128 Ltmp23-Lfunc_begin0            ## >> Call Site 8 <<
	.uleb128 Lfunc_end0-Ltmp23              ##   Call between Ltmp23 and Lfunc_end0
	.byte	0                               ##     has no landing pad
	.byte	0                               ##   On action: cleanup
Lcst_end0:
	.byte	1                               ## >> Action Record 1 <<
                                        ##   Catch TypeInfo 1
	.byte	0                               ##   No further actions
	.p2align	2
                                        ## >> Catch TypeInfos <<
	.long	0                               ## TypeInfo 1
Lttbase0:
	.p2align	2
                                        ## -- End function
	.section	__TEXT,__text,regular,pure_instructions
	.p2align	4, 0x90                         ## -- Begin function _ZNSt3__114basic_ifstreamIcNS_11char_traitsIcEEEC1Ev
__ZNSt3__114basic_ifstreamIcNS_11char_traitsIcEEEC1Ev: ## @_ZNSt3__114basic_ifstreamIcNS_11char_traitsIcEEEC1Ev
Lfunc_begin1:
	.cfi_startproc
	.cfi_personality 155, ___gxx_personality_v0
	.cfi_lsda 16, Lexception1
## %bb.0:
	pushq	%rbp
	.cfi_def_cfa_offset 16
	.cfi_offset %rbp, -16
	movq	%rsp, %rbp
	.cfi_def_cfa_register %rbp
	subq	$32, %rsp
	movq	%rdi, -8(%rbp)
	movq	-8(%rbp), %rdi
	movq	%rdi, -32(%rbp)                 ## 8-byte Spill
	addq	$424, %rdi                      ## imm = 0x1A8
	callq	__ZNSt3__19basic_iosIcNS_11char_traitsIcEEEC2Ev
	movq	-32(%rbp), %rdi                 ## 8-byte Reload
	movq	__ZTVNSt3__114basic_ifstreamIcNS_11char_traitsIcEEEE@GOTPCREL(%rip), %rcx
	movq	%rcx, %rdx
	addq	$24, %rdx
	movq	%rdx, (%rdi)
	addq	$64, %rcx
	movq	%rcx, 424(%rdi)
	movq	%rdi, %rdx
	addq	$16, %rdx
Ltmp25:
	movq	__ZTTNSt3__114basic_ifstreamIcNS_11char_traitsIcEEEE@GOTPCREL(%rip), %rsi
	addq	$8, %rsi
	callq	__ZNSt3__113basic_istreamIcNS_11char_traitsIcEEEC2EPNS_15basic_streambufIcS2_EE
Ltmp26:
	jmp	LBB1_1
LBB1_1:
	movq	-32(%rbp), %rdi                 ## 8-byte Reload
	movq	__ZTVNSt3__114basic_ifstreamIcNS_11char_traitsIcEEEE@GOTPCREL(%rip), %rcx
	movq	%rcx, %rsi
	addq	$24, %rsi
	movq	%rsi, (%rdi)
	addq	$64, %rcx
	movq	%rcx, 424(%rdi)
	addq	$16, %rdi
Ltmp28:
	callq	__ZNSt3__113basic_filebufIcNS_11char_traitsIcEEEC1Ev
Ltmp29:
	jmp	LBB1_2
LBB1_2:
	addq	$32, %rsp
	popq	%rbp
	retq
LBB1_3:
Ltmp27:
	movq	%rax, %rcx
	movl	%edx, %eax
	movq	%rcx, -16(%rbp)
	movl	%eax, -20(%rbp)
	jmp	LBB1_6
LBB1_4:
Ltmp30:
	movq	-32(%rbp), %rdi                 ## 8-byte Reload
	movq	%rdx, %rcx
	movq	%rax, %rsi
                                        ## kill: def $ecx killed $ecx killed $rcx
	movq	%rsi, -16(%rbp)
	movl	%ecx, -20(%rbp)
Ltmp31:
	movq	__ZTTNSt3__114basic_ifstreamIcNS_11char_traitsIcEEEE@GOTPCREL(%rip), %rsi
	addq	$8, %rsi
	callq	__ZNSt3__113basic_istreamIcNS_11char_traitsIcEEED2Ev
Ltmp32:
	jmp	LBB1_5
LBB1_5:
	jmp	LBB1_6
LBB1_6:
	movq	-32(%rbp), %rdi                 ## 8-byte Reload
	addq	$424, %rdi                      ## imm = 0x1A8
Ltmp33:
	callq	__ZNSt3__19basic_iosIcNS_11char_traitsIcEEED2Ev
Ltmp34:
	jmp	LBB1_7
LBB1_7:
	jmp	LBB1_8
LBB1_8:
	movq	-16(%rbp), %rdi
	callq	__Unwind_Resume
LBB1_9:
Ltmp35:
	movq	%rax, %rdi
	callq	___clang_call_terminate
Lfunc_end1:
	.cfi_endproc
	.section	__TEXT,__gcc_except_tab
	.p2align	2
GCC_except_table1:
Lexception1:
	.byte	255                             ## @LPStart Encoding = omit
	.byte	155                             ## @TType Encoding = indirect pcrel sdata4
	.uleb128 Lttbase1-Lttbaseref1
Lttbaseref1:
	.byte	1                               ## Call site Encoding = uleb128
	.uleb128 Lcst_end1-Lcst_begin1
Lcst_begin1:
	.uleb128 Lfunc_begin1-Lfunc_begin1      ## >> Call Site 1 <<
	.uleb128 Ltmp25-Lfunc_begin1            ##   Call between Lfunc_begin1 and Ltmp25
	.byte	0                               ##     has no landing pad
	.byte	0                               ##   On action: cleanup
	.uleb128 Ltmp25-Lfunc_begin1            ## >> Call Site 2 <<
	.uleb128 Ltmp26-Ltmp25                  ##   Call between Ltmp25 and Ltmp26
	.uleb128 Ltmp27-Lfunc_begin1            ##     jumps to Ltmp27
	.byte	0                               ##   On action: cleanup
	.uleb128 Ltmp28-Lfunc_begin1            ## >> Call Site 3 <<
	.uleb128 Ltmp29-Ltmp28                  ##   Call between Ltmp28 and Ltmp29
	.uleb128 Ltmp30-Lfunc_begin1            ##     jumps to Ltmp30
	.byte	0                               ##   On action: cleanup
	.uleb128 Ltmp31-Lfunc_begin1            ## >> Call Site 4 <<
	.uleb128 Ltmp34-Ltmp31                  ##   Call between Ltmp31 and Ltmp34
	.uleb128 Ltmp35-Lfunc_begin1            ##     jumps to Ltmp35
	.byte	1                               ##   On action: 1
	.uleb128 Ltmp34-Lfunc_begin1            ## >> Call Site 5 <<
	.uleb128 Lfunc_end1-Ltmp34              ##   Call between Ltmp34 and Lfunc_end1
	.byte	0                               ##     has no landing pad
	.byte	0                               ##   On action: cleanup
Lcst_end1:
	.byte	1                               ## >> Action Record 1 <<
                                        ##   Catch TypeInfo 1
	.byte	0                               ##   No further actions
	.p2align	2
                                        ## >> Catch TypeInfos <<
	.long	0                               ## TypeInfo 1
Lttbase1:
	.p2align	2
                                        ## -- End function
	.section	__TEXT,__text,regular,pure_instructions
	.globl	__ZNSt3__114basic_ifstreamIcNS_11char_traitsIcEEE4openEPKcj ## -- Begin function _ZNSt3__114basic_ifstreamIcNS_11char_traitsIcEEE4openEPKcj
	.weak_definition	__ZNSt3__114basic_ifstreamIcNS_11char_traitsIcEEE4openEPKcj
	.p2align	4, 0x90
__ZNSt3__114basic_ifstreamIcNS_11char_traitsIcEEE4openEPKcj: ## @_ZNSt3__114basic_ifstreamIcNS_11char_traitsIcEEE4openEPKcj
	.cfi_startproc
## %bb.0:
	pushq	%rbp
	.cfi_def_cfa_offset 16
	.cfi_offset %rbp, -16
	movq	%rsp, %rbp
	.cfi_def_cfa_register %rbp
	subq	$32, %rsp
	movq	%rdi, -8(%rbp)
	movq	%rsi, -16(%rbp)
	movl	%edx, -20(%rbp)
	movq	-8(%rbp), %rdi
	movq	%rdi, -32(%rbp)                 ## 8-byte Spill
	addq	$16, %rdi
	movq	-16(%rbp), %rsi
	movl	-20(%rbp), %edx
	orl	$8, %edx
	callq	__ZNSt3__113basic_filebufIcNS_11char_traitsIcEEE4openEPKcj
	cmpq	$0, %rax
	je	LBB2_2
## %bb.1:
	movq	-32(%rbp), %rdi                 ## 8-byte Reload
	xorl	%esi, %esi
	movq	(%rdi), %rax
	movq	-24(%rax), %rax
	addq	%rax, %rdi
	callq	__ZNSt3__19basic_iosIcNS_11char_traitsIcEEE5clearEj
	jmp	LBB2_3
LBB2_2:
	movq	-32(%rbp), %rdi                 ## 8-byte Reload
	movq	(%rdi), %rax
	movq	-24(%rax), %rax
	addq	%rax, %rdi
	movl	$4, %esi
	callq	__ZNSt3__19basic_iosIcNS_11char_traitsIcEEE8setstateEj
LBB2_3:
	addq	$32, %rsp
	popq	%rbp
	retq
	.cfi_endproc
                                        ## -- End function
	.p2align	4, 0x90                         ## -- Begin function _ZNSt3__112basic_stringIcNS_11char_traitsIcEENS_9allocatorIcEEEC1Ev
__ZNSt3__112basic_stringIcNS_11char_traitsIcEENS_9allocatorIcEEEC1Ev: ## @_ZNSt3__112basic_stringIcNS_11char_traitsIcEENS_9allocatorIcEEEC1Ev
	.cfi_startproc
## %bb.0:
	pushq	%rbp
	.cfi_def_cfa_offset 16
	.cfi_offset %rbp, -16
	movq	%rsp, %rbp
	.cfi_def_cfa_register %rbp
	subq	$16, %rsp
	movq	%rdi, -8(%rbp)
	movq	-8(%rbp), %rdi
	callq	__ZNSt3__112basic_stringIcNS_11char_traitsIcEENS_9allocatorIcEEEC2Ev
	addq	$16, %rsp
	popq	%rbp
	retq
	.cfi_endproc
                                        ## -- End function
	.p2align	4, 0x90                         ## -- Begin function _ZNSt3__1L7getlineIcNS_11char_traitsIcEENS_9allocatorIcEEEERNS_13basic_istreamIT_T0_EES9_RNS_12basic_stringIS6_S7_T1_EE
__ZNSt3__1L7getlineIcNS_11char_traitsIcEENS_9allocatorIcEEEERNS_13basic_istreamIT_T0_EES9_RNS_12basic_stringIS6_S7_T1_EE: ## @_ZNSt3__1L7getlineIcNS_11char_traitsIcEENS_9allocatorIcEEEERNS_13basic_istreamIT_T0_EES9_RNS_12basic_stringIS6_S7_T1_EE
	.cfi_startproc
## %bb.0:
	pushq	%rbp
	.cfi_def_cfa_offset 16
	.cfi_offset %rbp, -16
	movq	%rsp, %rbp
	.cfi_def_cfa_register %rbp
	subq	$32, %rsp
	movq	%rdi, -8(%rbp)
	movq	%rsi, -16(%rbp)
	movq	-8(%rbp), %rax
	movq	%rax, -32(%rbp)                 ## 8-byte Spill
	movq	-16(%rbp), %rax
	movq	%rax, -24(%rbp)                 ## 8-byte Spill
	movq	-8(%rbp), %rdi
	movq	(%rdi), %rax
	movq	-24(%rax), %rax
	addq	%rax, %rdi
	movl	$10, %esi
	callq	__ZNKSt3__19basic_iosIcNS_11char_traitsIcEEE5widenEc
	movq	-32(%rbp), %rdi                 ## 8-byte Reload
	movq	-24(%rbp), %rsi                 ## 8-byte Reload
	movsbl	%al, %edx
	callq	__ZNSt3__17getlineIcNS_11char_traitsIcEENS_9allocatorIcEEEERNS_13basic_istreamIT_T0_EES9_RNS_12basic_stringIS6_S7_T1_EES6_
	addq	$32, %rsp
	popq	%rbp
	retq
	.cfi_endproc
                                        ## -- End function
	.p2align	4, 0x90                         ## -- Begin function _ZNSt3__113basic_istreamIcNS_11char_traitsIcEEErsEPFRS3_S4_E
__ZNSt3__113basic_istreamIcNS_11char_traitsIcEEErsEPFRS3_S4_E: ## @_ZNSt3__113basic_istreamIcNS_11char_traitsIcEEErsEPFRS3_S4_E
	.cfi_startproc
## %bb.0:
	pushq	%rbp
	.cfi_def_cfa_offset 16
	.cfi_offset %rbp, -16
	movq	%rsp, %rbp
	.cfi_def_cfa_register %rbp
	subq	$16, %rsp
	movq	%rdi, -8(%rbp)
	movq	%rsi, -16(%rbp)
	movq	-8(%rbp), %rdi
	callq	*-16(%rbp)
	addq	$16, %rsp
	popq	%rbp
	retq
	.cfi_endproc
                                        ## -- End function
	.globl	__ZNSt3__12wsIcNS_11char_traitsIcEEEERNS_13basic_istreamIT_T0_EES7_ ## -- Begin function _ZNSt3__12wsIcNS_11char_traitsIcEEEERNS_13basic_istreamIT_T0_EES7_
	.weak_definition	__ZNSt3__12wsIcNS_11char_traitsIcEEEERNS_13basic_istreamIT_T0_EES7_
	.p2align	4, 0x90
__ZNSt3__12wsIcNS_11char_traitsIcEEEERNS_13basic_istreamIT_T0_EES7_: ## @_ZNSt3__12wsIcNS_11char_traitsIcEEEERNS_13basic_istreamIT_T0_EES7_
Lfunc_begin2:
	.cfi_startproc
	.cfi_personality 155, ___gxx_personality_v0
	.cfi_lsda 16, Lexception2
## %bb.0:
	pushq	%rbp
	.cfi_def_cfa_offset 16
	.cfi_offset %rbp, -16
	movq	%rsp, %rbp
	.cfi_def_cfa_register %rbp
	subq	$96, %rsp
	movq	%rdi, -8(%rbp)
	movl	$0, -12(%rbp)
	movq	-8(%rbp), %rsi
	leaq	-16(%rbp), %rdi
	movl	$1, %edx
	callq	__ZNSt3__113basic_istreamIcNS_11char_traitsIcEEE6sentryC1ERS3_b
	leaq	-16(%rbp), %rdi
	callq	__ZNKSt3__113basic_istreamIcNS_11char_traitsIcEEE6sentrycvbEv
	testb	$1, %al
	jne	LBB6_1
	jmp	LBB6_28
LBB6_1:
	movq	-8(%rbp), %rsi
	movq	(%rsi), %rcx
	movq	-24(%rcx), %rcx
	addq	%rcx, %rsi
Ltmp36:
	leaq	-32(%rbp), %rdi
	callq	__ZNKSt3__18ios_base6getlocEv
Ltmp37:
	jmp	LBB6_2
LBB6_2:
Ltmp38:
	leaq	-32(%rbp), %rdi
	callq	__ZNSt3__1L9use_facetINS_5ctypeIcEEEERKT_RKNS_6localeE
	movq	%rax, %rcx
Ltmp39:
	movq	%rcx, -56(%rbp)                 ## 8-byte Spill
	jmp	LBB6_3
LBB6_3:
Ltmp43:
	leaq	-32(%rbp), %rdi
	callq	__ZNSt3__16localeD1Ev
Ltmp44:
	jmp	LBB6_4
LBB6_4:
	movq	-56(%rbp), %rax                 ## 8-byte Reload
	movq	%rax, -24(%rbp)
LBB6_5:                                 ## =>This Inner Loop Header: Depth=1
	jmp	LBB6_6
LBB6_6:                                 ##   in Loop: Header=BB6_5 Depth=1
	movq	-8(%rbp), %rdi
	movq	(%rdi), %rax
	movq	-24(%rax), %rax
	addq	%rax, %rdi
Ltmp45:
	callq	__ZNKSt3__19basic_iosIcNS_11char_traitsIcEEE5rdbufEv
	movq	%rax, %rcx
Ltmp46:
	movq	%rcx, -64(%rbp)                 ## 8-byte Spill
	jmp	LBB6_7
LBB6_7:                                 ##   in Loop: Header=BB6_5 Depth=1
Ltmp47:
	movq	-64(%rbp), %rdi                 ## 8-byte Reload
	callq	__ZNSt3__115basic_streambufIcNS_11char_traitsIcEEE5sgetcEv
	movl	%eax, %ecx
Ltmp48:
	movl	%ecx, -68(%rbp)                 ## 4-byte Spill
	jmp	LBB6_8
LBB6_8:                                 ##   in Loop: Header=BB6_5 Depth=1
	movl	-68(%rbp), %eax                 ## 4-byte Reload
	movl	%eax, -48(%rbp)
	movl	-48(%rbp), %eax
	movl	%eax, -72(%rbp)                 ## 4-byte Spill
	callq	__ZNSt3__111char_traitsIcE3eofEv
	movl	-72(%rbp), %edi                 ## 4-byte Reload
	movl	%eax, %esi
	callq	__ZNSt3__111char_traitsIcE11eq_int_typeEii
	testb	$1, %al
	jne	LBB6_9
	jmp	LBB6_17
LBB6_9:
	movl	-12(%rbp), %eax
	orl	$2, %eax
	movl	%eax, -12(%rbp)
	jmp	LBB6_23
LBB6_10:
Ltmp55:
	movq	%rax, %rcx
	movl	%edx, %eax
	movq	%rcx, -40(%rbp)
	movl	%eax, -44(%rbp)
	jmp	LBB6_13
LBB6_11:
Ltmp40:
	movq	%rdx, %rcx
	movq	%rax, %rsi
                                        ## kill: def $ecx killed $ecx killed $rcx
	movq	%rsi, -40(%rbp)
	movl	%ecx, -44(%rbp)
Ltmp41:
	leaq	-32(%rbp), %rdi
	callq	__ZNSt3__16localeD1Ev
Ltmp42:
	jmp	LBB6_12
LBB6_12:
	jmp	LBB6_13
LBB6_13:
	movq	-40(%rbp), %rdi
	callq	___cxa_begin_catch
                                        ## kill: def $rcx killed $rax
	movb	-12(%rbp), %cl
	orb	$1, %cl
	movb	%cl, -12(%rbp)
	movq	-8(%rbp), %rdi
	movq	(%rdi), %rcx
	movq	-24(%rcx), %rcx
	addq	%rcx, %rdi
	movl	-12(%rbp), %esi
Ltmp56:
	callq	__ZNSt3__18ios_base18__setstate_nothrowEj
Ltmp57:
	jmp	LBB6_14
LBB6_14:
	movq	-8(%rbp), %rdi
	movq	(%rdi), %rax
	movq	-24(%rax), %rax
	addq	%rax, %rdi
Ltmp58:
	callq	__ZNKSt3__19basic_iosIcNS_11char_traitsIcEEE10exceptionsEv
	movl	%eax, %ecx
Ltmp59:
	movl	%ecx, -76(%rbp)                 ## 4-byte Spill
	jmp	LBB6_15
LBB6_15:
	movl	-76(%rbp), %eax                 ## 4-byte Reload
	andl	$1, %eax
	cmpl	$0, %eax
	je	LBB6_25
## %bb.16:
Ltmp60:
	callq	___cxa_rethrow
Ltmp61:
	jmp	LBB6_31
LBB6_17:                                ##   in Loop: Header=BB6_5 Depth=1
	movq	-24(%rbp), %rcx
	movq	%rcx, -88(%rbp)                 ## 8-byte Spill
	movl	-48(%rbp), %edi
	callq	__ZNSt3__111char_traitsIcE12to_char_typeEi
	movq	-88(%rbp), %rdi                 ## 8-byte Reload
Ltmp49:
	movsbl	%al, %edx
	movl	$16384, %esi                    ## imm = 0x4000
	callq	__ZNKSt3__15ctypeIcE2isEjc
	movb	%al, %cl
Ltmp50:
	movb	%cl, -77(%rbp)                  ## 1-byte Spill
	jmp	LBB6_18
LBB6_18:                                ##   in Loop: Header=BB6_5 Depth=1
	movb	-77(%rbp), %al                  ## 1-byte Reload
	testb	$1, %al
	jne	LBB6_20
	jmp	LBB6_19
LBB6_19:
	jmp	LBB6_23
LBB6_20:                                ##   in Loop: Header=BB6_5 Depth=1
	movq	-8(%rbp), %rdi
	movq	(%rdi), %rax
	movq	-24(%rax), %rax
	addq	%rax, %rdi
Ltmp51:
	callq	__ZNKSt3__19basic_iosIcNS_11char_traitsIcEEE5rdbufEv
	movq	%rax, %rcx
Ltmp52:
	movq	%rcx, -96(%rbp)                 ## 8-byte Spill
	jmp	LBB6_21
LBB6_21:                                ##   in Loop: Header=BB6_5 Depth=1
Ltmp53:
	movq	-96(%rbp), %rdi                 ## 8-byte Reload
	callq	__ZNSt3__115basic_streambufIcNS_11char_traitsIcEEE6sbumpcEv
                                        ## kill: def $ecx killed $eax
Ltmp54:
	jmp	LBB6_22
LBB6_22:                                ##   in Loop: Header=BB6_5 Depth=1
	jmp	LBB6_5
LBB6_23:
	jmp	LBB6_26
LBB6_24:
Ltmp62:
	movq	%rdx, %rcx
	movq	%rax, %rsi
                                        ## kill: def $ecx killed $ecx killed $rcx
	movq	%rsi, -40(%rbp)
	movl	%ecx, -44(%rbp)
Ltmp63:
	callq	___cxa_end_catch
Ltmp64:
	jmp	LBB6_27
LBB6_25:
	callq	___cxa_end_catch
LBB6_26:
	movq	-8(%rbp), %rdi
	movq	(%rdi), %rax
	movq	-24(%rax), %rax
	addq	%rax, %rdi
	movl	-12(%rbp), %esi
	callq	__ZNSt3__19basic_iosIcNS_11char_traitsIcEEE8setstateEj
	jmp	LBB6_28
LBB6_27:
	jmp	LBB6_29
LBB6_28:
	movq	-8(%rbp), %rax
	addq	$96, %rsp
	popq	%rbp
	retq
LBB6_29:
	movq	-40(%rbp), %rdi
	callq	__Unwind_Resume
LBB6_30:
Ltmp65:
	movq	%rax, %rdi
	callq	___clang_call_terminate
LBB6_31:
	ud2
Lfunc_end2:
	.cfi_endproc
	.section	__TEXT,__gcc_except_tab
	.p2align	2
GCC_except_table6:
Lexception2:
	.byte	255                             ## @LPStart Encoding = omit
	.byte	155                             ## @TType Encoding = indirect pcrel sdata4
	.uleb128 Lttbase2-Lttbaseref2
Lttbaseref2:
	.byte	1                               ## Call site Encoding = uleb128
	.uleb128 Lcst_end2-Lcst_begin2
Lcst_begin2:
	.uleb128 Lfunc_begin2-Lfunc_begin2      ## >> Call Site 1 <<
	.uleb128 Ltmp36-Lfunc_begin2            ##   Call between Lfunc_begin2 and Ltmp36
	.byte	0                               ##     has no landing pad
	.byte	0                               ##   On action: cleanup
	.uleb128 Ltmp36-Lfunc_begin2            ## >> Call Site 2 <<
	.uleb128 Ltmp37-Ltmp36                  ##   Call between Ltmp36 and Ltmp37
	.uleb128 Ltmp55-Lfunc_begin2            ##     jumps to Ltmp55
	.byte	1                               ##   On action: 1
	.uleb128 Ltmp38-Lfunc_begin2            ## >> Call Site 3 <<
	.uleb128 Ltmp39-Ltmp38                  ##   Call between Ltmp38 and Ltmp39
	.uleb128 Ltmp40-Lfunc_begin2            ##     jumps to Ltmp40
	.byte	1                               ##   On action: 1
	.uleb128 Ltmp43-Lfunc_begin2            ## >> Call Site 4 <<
	.uleb128 Ltmp48-Ltmp43                  ##   Call between Ltmp43 and Ltmp48
	.uleb128 Ltmp55-Lfunc_begin2            ##     jumps to Ltmp55
	.byte	1                               ##   On action: 1
	.uleb128 Ltmp41-Lfunc_begin2            ## >> Call Site 5 <<
	.uleb128 Ltmp42-Ltmp41                  ##   Call between Ltmp41 and Ltmp42
	.uleb128 Ltmp65-Lfunc_begin2            ##     jumps to Ltmp65
	.byte	1                               ##   On action: 1
	.uleb128 Ltmp42-Lfunc_begin2            ## >> Call Site 6 <<
	.uleb128 Ltmp56-Ltmp42                  ##   Call between Ltmp42 and Ltmp56
	.byte	0                               ##     has no landing pad
	.byte	0                               ##   On action: cleanup
	.uleb128 Ltmp56-Lfunc_begin2            ## >> Call Site 7 <<
	.uleb128 Ltmp61-Ltmp56                  ##   Call between Ltmp56 and Ltmp61
	.uleb128 Ltmp62-Lfunc_begin2            ##     jumps to Ltmp62
	.byte	0                               ##   On action: cleanup
	.uleb128 Ltmp49-Lfunc_begin2            ## >> Call Site 8 <<
	.uleb128 Ltmp54-Ltmp49                  ##   Call between Ltmp49 and Ltmp54
	.uleb128 Ltmp55-Lfunc_begin2            ##     jumps to Ltmp55
	.byte	1                               ##   On action: 1
	.uleb128 Ltmp63-Lfunc_begin2            ## >> Call Site 9 <<
	.uleb128 Ltmp64-Ltmp63                  ##   Call between Ltmp63 and Ltmp64
	.uleb128 Ltmp65-Lfunc_begin2            ##     jumps to Ltmp65
	.byte	1                               ##   On action: 1
	.uleb128 Ltmp64-Lfunc_begin2            ## >> Call Site 10 <<
	.uleb128 Lfunc_end2-Ltmp64              ##   Call between Ltmp64 and Lfunc_end2
	.byte	0                               ##     has no landing pad
	.byte	0                               ##   On action: cleanup
Lcst_end2:
	.byte	1                               ## >> Action Record 1 <<
                                        ##   Catch TypeInfo 1
	.byte	0                               ##   No further actions
	.p2align	2
                                        ## >> Catch TypeInfos <<
	.long	0                               ## TypeInfo 1
Lttbase2:
	.p2align	2
                                        ## -- End function
	.section	__TEXT,__text,regular,pure_instructions
	.globl	__ZNSt3__1lsIcNS_11char_traitsIcEENS_9allocatorIcEEEERNS_13basic_ostreamIT_T0_EES9_RKNS_12basic_stringIS6_S7_T1_EE ## -- Begin function _ZNSt3__1lsIcNS_11char_traitsIcEENS_9allocatorIcEEEERNS_13basic_ostreamIT_T0_EES9_RKNS_12basic_stringIS6_S7_T1_EE
	.weak_definition	__ZNSt3__1lsIcNS_11char_traitsIcEENS_9allocatorIcEEEERNS_13basic_ostreamIT_T0_EES9_RKNS_12basic_stringIS6_S7_T1_EE
	.p2align	4, 0x90
__ZNSt3__1lsIcNS_11char_traitsIcEENS_9allocatorIcEEEERNS_13basic_ostreamIT_T0_EES9_RKNS_12basic_stringIS6_S7_T1_EE: ## @_ZNSt3__1lsIcNS_11char_traitsIcEENS_9allocatorIcEEEERNS_13basic_ostreamIT_T0_EES9_RKNS_12basic_stringIS6_S7_T1_EE
	.cfi_startproc
## %bb.0:
	pushq	%rbp
	.cfi_def_cfa_offset 16
	.cfi_offset %rbp, -16
	movq	%rsp, %rbp
	.cfi_def_cfa_register %rbp
	subq	$32, %rsp
	movq	%rdi, -8(%rbp)
	movq	%rsi, -16(%rbp)
	movq	-8(%rbp), %rax
	movq	%rax, -32(%rbp)                 ## 8-byte Spill
	movq	-16(%rbp), %rdi
	callq	__ZNKSt3__112basic_stringIcNS_11char_traitsIcEENS_9allocatorIcEEE4dataEv
	movq	%rax, -24(%rbp)                 ## 8-byte Spill
	movq	-16(%rbp), %rdi
	callq	__ZNKSt3__112basic_stringIcNS_11char_traitsIcEENS_9allocatorIcEEE4sizeEv
	movq	-32(%rbp), %rdi                 ## 8-byte Reload
	movq	-24(%rbp), %rsi                 ## 8-byte Reload
	movq	%rax, %rdx
	callq	__ZNSt3__124__put_character_sequenceIcNS_11char_traitsIcEEEERNS_13basic_ostreamIT_T0_EES7_PKS4_m
	addq	$32, %rsp
	popq	%rbp
	retq
	.cfi_endproc
                                        ## -- End function
	.globl	__ZNSt3__1lsINS_11char_traitsIcEEEERNS_13basic_ostreamIcT_EES6_PKc ## -- Begin function _ZNSt3__1lsINS_11char_traitsIcEEEERNS_13basic_ostreamIcT_EES6_PKc
	.weak_definition	__ZNSt3__1lsINS_11char_traitsIcEEEERNS_13basic_ostreamIcT_EES6_PKc
	.p2align	4, 0x90
__ZNSt3__1lsINS_11char_traitsIcEEEERNS_13basic_ostreamIcT_EES6_PKc: ## @_ZNSt3__1lsINS_11char_traitsIcEEEERNS_13basic_ostreamIcT_EES6_PKc
	.cfi_startproc
## %bb.0:
	pushq	%rbp
	.cfi_def_cfa_offset 16
	.cfi_offset %rbp, -16
	movq	%rsp, %rbp
	.cfi_def_cfa_register %rbp
	subq	$32, %rsp
	movq	%rdi, -8(%rbp)
	movq	%rsi, -16(%rbp)
	movq	-8(%rbp), %rax
	movq	%rax, -32(%rbp)                 ## 8-byte Spill
	movq	-16(%rbp), %rax
	movq	%rax, -24(%rbp)                 ## 8-byte Spill
	movq	-16(%rbp), %rdi
	callq	__ZNSt3__111char_traitsIcE6lengthEPKc
	movq	-32(%rbp), %rdi                 ## 8-byte Reload
	movq	-24(%rbp), %rsi                 ## 8-byte Reload
	movq	%rax, %rdx
	callq	__ZNSt3__124__put_character_sequenceIcNS_11char_traitsIcEEEERNS_13basic_ostreamIT_T0_EES7_PKS4_m
	addq	$32, %rsp
	popq	%rbp
	retq
	.cfi_endproc
                                        ## -- End function
	.p2align	4, 0x90                         ## -- Begin function _ZNSt3__113basic_ostreamIcNS_11char_traitsIcEEElsEPFRS3_S4_E
__ZNSt3__113basic_ostreamIcNS_11char_traitsIcEEElsEPFRS3_S4_E: ## @_ZNSt3__113basic_ostreamIcNS_11char_traitsIcEEElsEPFRS3_S4_E
	.cfi_startproc
## %bb.0:
	pushq	%rbp
	.cfi_def_cfa_offset 16
	.cfi_offset %rbp, -16
	movq	%rsp, %rbp
	.cfi_def_cfa_register %rbp
	subq	$16, %rsp
	movq	%rdi, -8(%rbp)
	movq	%rsi, -16(%rbp)
	movq	-8(%rbp), %rdi
	callq	*-16(%rbp)
	addq	$16, %rsp
	popq	%rbp
	retq
	.cfi_endproc
                                        ## -- End function
	.globl	__ZNSt3__14endlIcNS_11char_traitsIcEEEERNS_13basic_ostreamIT_T0_EES7_ ## -- Begin function _ZNSt3__14endlIcNS_11char_traitsIcEEEERNS_13basic_ostreamIT_T0_EES7_
	.weak_definition	__ZNSt3__14endlIcNS_11char_traitsIcEEEERNS_13basic_ostreamIT_T0_EES7_
	.p2align	4, 0x90
__ZNSt3__14endlIcNS_11char_traitsIcEEEERNS_13basic_ostreamIT_T0_EES7_: ## @_ZNSt3__14endlIcNS_11char_traitsIcEEEERNS_13basic_ostreamIT_T0_EES7_
	.cfi_startproc
## %bb.0:
	pushq	%rbp
	.cfi_def_cfa_offset 16
	.cfi_offset %rbp, -16
	movq	%rsp, %rbp
	.cfi_def_cfa_register %rbp
	subq	$16, %rsp
	movq	%rdi, -8(%rbp)
	movq	-8(%rbp), %rax
	movq	%rax, -16(%rbp)                 ## 8-byte Spill
	movq	-8(%rbp), %rdi
	movq	(%rdi), %rax
	movq	-24(%rax), %rax
	addq	%rax, %rdi
	movl	$10, %esi
	callq	__ZNKSt3__19basic_iosIcNS_11char_traitsIcEEE5widenEc
	movq	-16(%rbp), %rdi                 ## 8-byte Reload
	movsbl	%al, %esi
	callq	__ZNSt3__113basic_ostreamIcNS_11char_traitsIcEEE3putEc
	movq	-8(%rbp), %rdi
	callq	__ZNSt3__113basic_ostreamIcNS_11char_traitsIcEEE5flushEv
	movq	-8(%rbp), %rax
	addq	$16, %rsp
	popq	%rbp
	retq
	.cfi_endproc
                                        ## -- End function
	.p2align	4, 0x90                         ## -- Begin function _ZNSt3__114basic_ifstreamIcNS_11char_traitsIcEEE5closeEv
__ZNSt3__114basic_ifstreamIcNS_11char_traitsIcEEE5closeEv: ## @_ZNSt3__114basic_ifstreamIcNS_11char_traitsIcEEE5closeEv
	.cfi_startproc
## %bb.0:
	pushq	%rbp
	.cfi_def_cfa_offset 16
	.cfi_offset %rbp, -16
	movq	%rsp, %rbp
	.cfi_def_cfa_register %rbp
	subq	$16, %rsp
	movq	%rdi, -8(%rbp)
	movq	-8(%rbp), %rdi
	movq	%rdi, -16(%rbp)                 ## 8-byte Spill
	addq	$16, %rdi
	callq	__ZNSt3__113basic_filebufIcNS_11char_traitsIcEEE5closeEv
	cmpq	$0, %rax
	jne	LBB11_2
## %bb.1:
	movq	-16(%rbp), %rdi                 ## 8-byte Reload
	movq	(%rdi), %rax
	movq	-24(%rax), %rax
	addq	%rax, %rdi
	movl	$4, %esi
	callq	__ZNSt3__19basic_iosIcNS_11char_traitsIcEEE8setstateEj
LBB11_2:
	addq	$16, %rsp
	popq	%rbp
	retq
	.cfi_endproc
                                        ## -- End function
	.private_extern	___clang_call_terminate ## -- Begin function __clang_call_terminate
	.globl	___clang_call_terminate
	.weak_definition	___clang_call_terminate
	.p2align	4, 0x90
___clang_call_terminate:                ## @__clang_call_terminate
## %bb.0:
	pushq	%rax
	callq	___cxa_begin_catch
	callq	__ZSt9terminatev
                                        ## -- End function
	.globl	__ZNSt3__114basic_ifstreamIcNS_11char_traitsIcEEED1Ev ## -- Begin function _ZNSt3__114basic_ifstreamIcNS_11char_traitsIcEEED1Ev
	.weak_def_can_be_hidden	__ZNSt3__114basic_ifstreamIcNS_11char_traitsIcEEED1Ev
	.p2align	4, 0x90
__ZNSt3__114basic_ifstreamIcNS_11char_traitsIcEEED1Ev: ## @_ZNSt3__114basic_ifstreamIcNS_11char_traitsIcEEED1Ev
Lfunc_begin3:
	.cfi_startproc
	.cfi_personality 155, ___gxx_personality_v0
	.cfi_lsda 16, Lexception3
## %bb.0:
	pushq	%rbp
	.cfi_def_cfa_offset 16
	.cfi_offset %rbp, -16
	movq	%rsp, %rbp
	.cfi_def_cfa_register %rbp
	subq	$32, %rsp
	movq	%rdi, -8(%rbp)
	movq	-8(%rbp), %rdi
	movq	%rdi, -32(%rbp)                 ## 8-byte Spill
Ltmp66:
	movq	__ZTTNSt3__114basic_ifstreamIcNS_11char_traitsIcEEEE@GOTPCREL(%rip), %rsi
	callq	__ZNSt3__114basic_ifstreamIcNS_11char_traitsIcEEED2Ev
Ltmp67:
	jmp	LBB13_1
LBB13_1:
	movq	-32(%rbp), %rdi                 ## 8-byte Reload
	addq	$424, %rdi                      ## imm = 0x1A8
	callq	__ZNSt3__19basic_iosIcNS_11char_traitsIcEEED2Ev
	addq	$32, %rsp
	popq	%rbp
	retq
LBB13_2:
Ltmp68:
	movq	-32(%rbp), %rdi                 ## 8-byte Reload
	movq	%rdx, %rcx
	movq	%rax, %rsi
                                        ## kill: def $ecx killed $ecx killed $rcx
	movq	%rsi, -16(%rbp)
	movl	%ecx, -20(%rbp)
	addq	$424, %rdi                      ## imm = 0x1A8
Ltmp69:
	callq	__ZNSt3__19basic_iosIcNS_11char_traitsIcEEED2Ev
Ltmp70:
	jmp	LBB13_3
LBB13_3:
	jmp	LBB13_4
LBB13_4:
	movq	-16(%rbp), %rdi
	callq	__Unwind_Resume
LBB13_5:
Ltmp71:
	movq	%rax, %rdi
	callq	___clang_call_terminate
Lfunc_end3:
	.cfi_endproc
	.section	__TEXT,__gcc_except_tab
	.p2align	2
GCC_except_table13:
Lexception3:
	.byte	255                             ## @LPStart Encoding = omit
	.byte	155                             ## @TType Encoding = indirect pcrel sdata4
	.uleb128 Lttbase3-Lttbaseref3
Lttbaseref3:
	.byte	1                               ## Call site Encoding = uleb128
	.uleb128 Lcst_end3-Lcst_begin3
Lcst_begin3:
	.uleb128 Ltmp66-Lfunc_begin3            ## >> Call Site 1 <<
	.uleb128 Ltmp67-Ltmp66                  ##   Call between Ltmp66 and Ltmp67
	.uleb128 Ltmp68-Lfunc_begin3            ##     jumps to Ltmp68
	.byte	0                               ##   On action: cleanup
	.uleb128 Ltmp67-Lfunc_begin3            ## >> Call Site 2 <<
	.uleb128 Ltmp69-Ltmp67                  ##   Call between Ltmp67 and Ltmp69
	.byte	0                               ##     has no landing pad
	.byte	0                               ##   On action: cleanup
	.uleb128 Ltmp69-Lfunc_begin3            ## >> Call Site 3 <<
	.uleb128 Ltmp70-Ltmp69                  ##   Call between Ltmp69 and Ltmp70
	.uleb128 Ltmp71-Lfunc_begin3            ##     jumps to Ltmp71
	.byte	1                               ##   On action: 1
	.uleb128 Ltmp70-Lfunc_begin3            ## >> Call Site 4 <<
	.uleb128 Lfunc_end3-Ltmp70              ##   Call between Ltmp70 and Lfunc_end3
	.byte	0                               ##     has no landing pad
	.byte	0                               ##   On action: cleanup
Lcst_end3:
	.byte	1                               ## >> Action Record 1 <<
                                        ##   Catch TypeInfo 1
	.byte	0                               ##   No further actions
	.p2align	2
                                        ## >> Catch TypeInfos <<
	.long	0                               ## TypeInfo 1
Lttbase3:
	.p2align	2
                                        ## -- End function
	.section	__TEXT,__text,regular,pure_instructions
	.globl	__ZNSt3__114basic_ifstreamIcNS_11char_traitsIcEEED2Ev ## -- Begin function _ZNSt3__114basic_ifstreamIcNS_11char_traitsIcEEED2Ev
	.weak_def_can_be_hidden	__ZNSt3__114basic_ifstreamIcNS_11char_traitsIcEEED2Ev
	.p2align	4, 0x90
__ZNSt3__114basic_ifstreamIcNS_11char_traitsIcEEED2Ev: ## @_ZNSt3__114basic_ifstreamIcNS_11char_traitsIcEEED2Ev
Lfunc_begin4:
	.cfi_startproc
	.cfi_personality 155, ___gxx_personality_v0
	.cfi_lsda 16, Lexception4
## %bb.0:
	pushq	%rbp
	.cfi_def_cfa_offset 16
	.cfi_offset %rbp, -16
	movq	%rsp, %rbp
	.cfi_def_cfa_register %rbp
	subq	$48, %rsp
	movq	%rdi, -8(%rbp)
	movq	%rsi, -16(%rbp)
	movq	-8(%rbp), %rdi
	movq	%rdi, -48(%rbp)                 ## 8-byte Spill
	movq	-16(%rbp), %rcx
	movq	%rcx, -40(%rbp)                 ## 8-byte Spill
	movq	(%rcx), %rsi
	movq	%rsi, (%rdi)
	movq	24(%rcx), %rsi
	movq	(%rdi), %rcx
	movq	-24(%rcx), %rcx
	movq	%rsi, (%rdi,%rcx)
	addq	$16, %rdi
Ltmp72:
	callq	__ZNSt3__113basic_filebufIcNS_11char_traitsIcEEED1Ev
Ltmp73:
	jmp	LBB14_1
LBB14_1:
	movq	-40(%rbp), %rsi                 ## 8-byte Reload
	movq	-48(%rbp), %rdi                 ## 8-byte Reload
	addq	$8, %rsi
	callq	__ZNSt3__113basic_istreamIcNS_11char_traitsIcEEED2Ev
	addq	$48, %rsp
	popq	%rbp
	retq
LBB14_2:
Ltmp74:
	movq	-48(%rbp), %rdi                 ## 8-byte Reload
	movq	-40(%rbp), %rsi                 ## 8-byte Reload
	movq	%rdx, %rcx
	movq	%rax, %r8
                                        ## kill: def $ecx killed $ecx killed $rcx
	movq	%r8, -24(%rbp)
	movl	%ecx, -28(%rbp)
	addq	$8, %rsi
Ltmp75:
	callq	__ZNSt3__113basic_istreamIcNS_11char_traitsIcEEED2Ev
Ltmp76:
	jmp	LBB14_3
LBB14_3:
	jmp	LBB14_4
LBB14_4:
	movq	-24(%rbp), %rdi
	callq	__Unwind_Resume
LBB14_5:
Ltmp77:
	movq	%rax, %rdi
	callq	___clang_call_terminate
Lfunc_end4:
	.cfi_endproc
	.section	__TEXT,__gcc_except_tab
	.p2align	2
GCC_except_table14:
Lexception4:
	.byte	255                             ## @LPStart Encoding = omit
	.byte	155                             ## @TType Encoding = indirect pcrel sdata4
	.uleb128 Lttbase4-Lttbaseref4
Lttbaseref4:
	.byte	1                               ## Call site Encoding = uleb128
	.uleb128 Lcst_end4-Lcst_begin4
Lcst_begin4:
	.uleb128 Ltmp72-Lfunc_begin4            ## >> Call Site 1 <<
	.uleb128 Ltmp73-Ltmp72                  ##   Call between Ltmp72 and Ltmp73
	.uleb128 Ltmp74-Lfunc_begin4            ##     jumps to Ltmp74
	.byte	0                               ##   On action: cleanup
	.uleb128 Ltmp73-Lfunc_begin4            ## >> Call Site 2 <<
	.uleb128 Ltmp75-Ltmp73                  ##   Call between Ltmp73 and Ltmp75
	.byte	0                               ##     has no landing pad
	.byte	0                               ##   On action: cleanup
	.uleb128 Ltmp75-Lfunc_begin4            ## >> Call Site 3 <<
	.uleb128 Ltmp76-Ltmp75                  ##   Call between Ltmp75 and Ltmp76
	.uleb128 Ltmp77-Lfunc_begin4            ##     jumps to Ltmp77
	.byte	1                               ##   On action: 1
	.uleb128 Ltmp76-Lfunc_begin4            ## >> Call Site 4 <<
	.uleb128 Lfunc_end4-Ltmp76              ##   Call between Ltmp76 and Lfunc_end4
	.byte	0                               ##     has no landing pad
	.byte	0                               ##   On action: cleanup
Lcst_end4:
	.byte	1                               ## >> Action Record 1 <<
                                        ##   Catch TypeInfo 1
	.byte	0                               ##   No further actions
	.p2align	2
                                        ## >> Catch TypeInfos <<
	.long	0                               ## TypeInfo 1
Lttbase4:
	.p2align	2
                                        ## -- End function
	.section	__TEXT,__text,regular,pure_instructions
	.globl	__ZTv0_n24_NSt3__114basic_ifstreamIcNS_11char_traitsIcEEED1Ev ## -- Begin function _ZTv0_n24_NSt3__114basic_ifstreamIcNS_11char_traitsIcEEED1Ev
	.weak_def_can_be_hidden	__ZTv0_n24_NSt3__114basic_ifstreamIcNS_11char_traitsIcEEED1Ev
	.p2align	4, 0x90
__ZTv0_n24_NSt3__114basic_ifstreamIcNS_11char_traitsIcEEED1Ev: ## @_ZTv0_n24_NSt3__114basic_ifstreamIcNS_11char_traitsIcEEED1Ev
	.cfi_startproc
## %bb.0:
	pushq	%rbp
	.cfi_def_cfa_offset 16
	.cfi_offset %rbp, -16
	movq	%rsp, %rbp
	.cfi_def_cfa_register %rbp
	movq	%rdi, -8(%rbp)
	movq	-8(%rbp), %rdi
	movq	(%rdi), %rax
	movq	-24(%rax), %rax
	addq	%rax, %rdi
	popq	%rbp
	jmp	__ZNSt3__114basic_ifstreamIcNS_11char_traitsIcEEED1Ev ## TAILCALL
	.cfi_endproc
                                        ## -- End function
	.globl	__ZNSt3__114basic_ifstreamIcNS_11char_traitsIcEEED0Ev ## -- Begin function _ZNSt3__114basic_ifstreamIcNS_11char_traitsIcEEED0Ev
	.weak_def_can_be_hidden	__ZNSt3__114basic_ifstreamIcNS_11char_traitsIcEEED0Ev
	.p2align	4, 0x90
__ZNSt3__114basic_ifstreamIcNS_11char_traitsIcEEED0Ev: ## @_ZNSt3__114basic_ifstreamIcNS_11char_traitsIcEEED0Ev
Lfunc_begin5:
	.cfi_startproc
	.cfi_personality 155, ___gxx_personality_v0
	.cfi_lsda 16, Lexception5
## %bb.0:
	pushq	%rbp
	.cfi_def_cfa_offset 16
	.cfi_offset %rbp, -16
	movq	%rsp, %rbp
	.cfi_def_cfa_register %rbp
	subq	$32, %rsp
	movq	%rdi, -8(%rbp)
	movq	-8(%rbp), %rdi
	movq	%rdi, -32(%rbp)                 ## 8-byte Spill
Ltmp78:
	callq	__ZNSt3__114basic_ifstreamIcNS_11char_traitsIcEEED1Ev
Ltmp79:
	jmp	LBB16_1
LBB16_1:
	movq	-32(%rbp), %rdi                 ## 8-byte Reload
	callq	__ZdlPv
	addq	$32, %rsp
	popq	%rbp
	retq
LBB16_2:
Ltmp80:
	movq	-32(%rbp), %rdi                 ## 8-byte Reload
	movq	%rax, %rcx
	movl	%edx, %eax
	movq	%rcx, -16(%rbp)
	movl	%eax, -20(%rbp)
	callq	__ZdlPv
## %bb.3:
	movq	-16(%rbp), %rdi
	callq	__Unwind_Resume
Lfunc_end5:
	.cfi_endproc
	.section	__TEXT,__gcc_except_tab
	.p2align	2
GCC_except_table16:
Lexception5:
	.byte	255                             ## @LPStart Encoding = omit
	.byte	255                             ## @TType Encoding = omit
	.byte	1                               ## Call site Encoding = uleb128
	.uleb128 Lcst_end5-Lcst_begin5
Lcst_begin5:
	.uleb128 Ltmp78-Lfunc_begin5            ## >> Call Site 1 <<
	.uleb128 Ltmp79-Ltmp78                  ##   Call between Ltmp78 and Ltmp79
	.uleb128 Ltmp80-Lfunc_begin5            ##     jumps to Ltmp80
	.byte	0                               ##   On action: cleanup
	.uleb128 Ltmp79-Lfunc_begin5            ## >> Call Site 2 <<
	.uleb128 Lfunc_end5-Ltmp79              ##   Call between Ltmp79 and Lfunc_end5
	.byte	0                               ##     has no landing pad
	.byte	0                               ##   On action: cleanup
Lcst_end5:
	.p2align	2
                                        ## -- End function
	.section	__TEXT,__text,regular,pure_instructions
	.globl	__ZTv0_n24_NSt3__114basic_ifstreamIcNS_11char_traitsIcEEED0Ev ## -- Begin function _ZTv0_n24_NSt3__114basic_ifstreamIcNS_11char_traitsIcEEED0Ev
	.weak_def_can_be_hidden	__ZTv0_n24_NSt3__114basic_ifstreamIcNS_11char_traitsIcEEED0Ev
	.p2align	4, 0x90
__ZTv0_n24_NSt3__114basic_ifstreamIcNS_11char_traitsIcEEED0Ev: ## @_ZTv0_n24_NSt3__114basic_ifstreamIcNS_11char_traitsIcEEED0Ev
	.cfi_startproc
## %bb.0:
	pushq	%rbp
	.cfi_def_cfa_offset 16
	.cfi_offset %rbp, -16
	movq	%rsp, %rbp
	.cfi_def_cfa_register %rbp
	movq	%rdi, -8(%rbp)
	movq	-8(%rbp), %rdi
	movq	(%rdi), %rax
	movq	-24(%rax), %rax
	addq	%rax, %rdi
	popq	%rbp
	jmp	__ZNSt3__114basic_ifstreamIcNS_11char_traitsIcEEED0Ev ## TAILCALL
	.cfi_endproc
                                        ## -- End function
	.globl	__ZNSt3__113basic_filebufIcNS_11char_traitsIcEEED1Ev ## -- Begin function _ZNSt3__113basic_filebufIcNS_11char_traitsIcEEED1Ev
	.weak_def_can_be_hidden	__ZNSt3__113basic_filebufIcNS_11char_traitsIcEEED1Ev
	.p2align	4, 0x90
__ZNSt3__113basic_filebufIcNS_11char_traitsIcEEED1Ev: ## @_ZNSt3__113basic_filebufIcNS_11char_traitsIcEEED1Ev
	.cfi_startproc
## %bb.0:
	pushq	%rbp
	.cfi_def_cfa_offset 16
	.cfi_offset %rbp, -16
	movq	%rsp, %rbp
	.cfi_def_cfa_register %rbp
	subq	$16, %rsp
	movq	%rdi, -8(%rbp)
	movq	-8(%rbp), %rdi
	callq	__ZNSt3__113basic_filebufIcNS_11char_traitsIcEEED2Ev
	addq	$16, %rsp
	popq	%rbp
	retq
	.cfi_endproc
                                        ## -- End function
	.globl	__ZNSt3__113basic_filebufIcNS_11char_traitsIcEEED2Ev ## -- Begin function _ZNSt3__113basic_filebufIcNS_11char_traitsIcEEED2Ev
	.weak_def_can_be_hidden	__ZNSt3__113basic_filebufIcNS_11char_traitsIcEEED2Ev
	.p2align	4, 0x90
__ZNSt3__113basic_filebufIcNS_11char_traitsIcEEED2Ev: ## @_ZNSt3__113basic_filebufIcNS_11char_traitsIcEEED2Ev
Lfunc_begin6:
	.cfi_startproc
	.cfi_personality 155, ___gxx_personality_v0
	.cfi_lsda 16, Lexception6
## %bb.0:
	pushq	%rbp
	.cfi_def_cfa_offset 16
	.cfi_offset %rbp, -16
	movq	%rsp, %rbp
	.cfi_def_cfa_register %rbp
	subq	$48, %rsp
	movq	%rdi, -8(%rbp)
	movq	-8(%rbp), %rdi
	movq	%rdi, -32(%rbp)                 ## 8-byte Spill
	movq	__ZTVNSt3__113basic_filebufIcNS_11char_traitsIcEEEE@GOTPCREL(%rip), %rax
	addq	$16, %rax
	movq	%rax, (%rdi)
Ltmp81:
	callq	__ZNSt3__113basic_filebufIcNS_11char_traitsIcEEE5closeEv
                                        ## kill: def $rcx killed $rax
Ltmp82:
	jmp	LBB19_1
LBB19_1:
	jmp	LBB19_5
LBB19_2:
Ltmp83:
	movq	%rax, %rcx
	movl	%edx, %eax
	movq	%rcx, -16(%rbp)
	movl	%eax, -20(%rbp)
## %bb.3:
	movq	-16(%rbp), %rdi
	callq	___cxa_begin_catch
                                        ## kill: def $rcx killed $rax
Ltmp84:
	callq	___cxa_end_catch
Ltmp85:
	jmp	LBB19_4
LBB19_4:
	jmp	LBB19_5
LBB19_5:
	movq	-32(%rbp), %rax                 ## 8-byte Reload
	testb	$1, 400(%rax)
	je	LBB19_10
## %bb.6:
	movq	-32(%rbp), %rax                 ## 8-byte Reload
	movq	64(%rax), %rax
	movq	%rax, -40(%rbp)                 ## 8-byte Spill
	cmpq	$0, %rax
	je	LBB19_8
## %bb.7:
	movq	-40(%rbp), %rdi                 ## 8-byte Reload
	callq	__ZdaPv
LBB19_8:
	jmp	LBB19_10
LBB19_9:
Ltmp86:
	movq	-32(%rbp), %rdi                 ## 8-byte Reload
	movq	%rdx, %rcx
	movq	%rax, %rsi
                                        ## kill: def $ecx killed $ecx killed $rcx
	movq	%rsi, -16(%rbp)
	movl	%ecx, -20(%rbp)
Ltmp87:
	callq	__ZNSt3__115basic_streambufIcNS_11char_traitsIcEEED2Ev
Ltmp88:
	jmp	LBB19_15
LBB19_10:
	movq	-32(%rbp), %rax                 ## 8-byte Reload
	testb	$1, 401(%rax)
	je	LBB19_14
## %bb.11:
	movq	-32(%rbp), %rax                 ## 8-byte Reload
	movq	104(%rax), %rax
	movq	%rax, -48(%rbp)                 ## 8-byte Spill
	cmpq	$0, %rax
	je	LBB19_13
## %bb.12:
	movq	-48(%rbp), %rdi                 ## 8-byte Reload
	callq	__ZdaPv
LBB19_13:
	jmp	LBB19_14
LBB19_14:
	movq	-32(%rbp), %rdi                 ## 8-byte Reload
	callq	__ZNSt3__115basic_streambufIcNS_11char_traitsIcEEED2Ev
	addq	$48, %rsp
	popq	%rbp
	retq
LBB19_15:
	jmp	LBB19_16
LBB19_16:
	movq	-16(%rbp), %rdi
	callq	__Unwind_Resume
LBB19_17:
Ltmp89:
	movq	%rax, %rdi
	callq	___clang_call_terminate
Lfunc_end6:
	.cfi_endproc
	.section	__TEXT,__gcc_except_tab
	.p2align	2
GCC_except_table19:
Lexception6:
	.byte	255                             ## @LPStart Encoding = omit
	.byte	155                             ## @TType Encoding = indirect pcrel sdata4
	.uleb128 Lttbase5-Lttbaseref5
Lttbaseref5:
	.byte	1                               ## Call site Encoding = uleb128
	.uleb128 Lcst_end6-Lcst_begin6
Lcst_begin6:
	.uleb128 Ltmp81-Lfunc_begin6            ## >> Call Site 1 <<
	.uleb128 Ltmp82-Ltmp81                  ##   Call between Ltmp81 and Ltmp82
	.uleb128 Ltmp83-Lfunc_begin6            ##     jumps to Ltmp83
	.byte	1                               ##   On action: 1
	.uleb128 Ltmp82-Lfunc_begin6            ## >> Call Site 2 <<
	.uleb128 Ltmp84-Ltmp82                  ##   Call between Ltmp82 and Ltmp84
	.byte	0                               ##     has no landing pad
	.byte	0                               ##   On action: cleanup
	.uleb128 Ltmp84-Lfunc_begin6            ## >> Call Site 3 <<
	.uleb128 Ltmp85-Ltmp84                  ##   Call between Ltmp84 and Ltmp85
	.uleb128 Ltmp86-Lfunc_begin6            ##     jumps to Ltmp86
	.byte	0                               ##   On action: cleanup
	.uleb128 Ltmp87-Lfunc_begin6            ## >> Call Site 4 <<
	.uleb128 Ltmp88-Ltmp87                  ##   Call between Ltmp87 and Ltmp88
	.uleb128 Ltmp89-Lfunc_begin6            ##     jumps to Ltmp89
	.byte	1                               ##   On action: 1
	.uleb128 Ltmp88-Lfunc_begin6            ## >> Call Site 5 <<
	.uleb128 Lfunc_end6-Ltmp88              ##   Call between Ltmp88 and Lfunc_end6
	.byte	0                               ##     has no landing pad
	.byte	0                               ##   On action: cleanup
Lcst_end6:
	.byte	1                               ## >> Action Record 1 <<
                                        ##   Catch TypeInfo 1
	.byte	0                               ##   No further actions
	.p2align	2
                                        ## >> Catch TypeInfos <<
	.long	0                               ## TypeInfo 1
Lttbase5:
	.p2align	2
                                        ## -- End function
	.section	__TEXT,__text,regular,pure_instructions
	.globl	__ZNSt3__113basic_filebufIcNS_11char_traitsIcEEE5closeEv ## -- Begin function _ZNSt3__113basic_filebufIcNS_11char_traitsIcEEE5closeEv
	.weak_definition	__ZNSt3__113basic_filebufIcNS_11char_traitsIcEEE5closeEv
	.p2align	4, 0x90
__ZNSt3__113basic_filebufIcNS_11char_traitsIcEEE5closeEv: ## @_ZNSt3__113basic_filebufIcNS_11char_traitsIcEEE5closeEv
Lfunc_begin7:
	.cfi_startproc
	.cfi_personality 155, ___gxx_personality_v0
	.cfi_lsda 16, Lexception7
## %bb.0:
	pushq	%rbp
	.cfi_def_cfa_offset 16
	.cfi_offset %rbp, -16
	movq	%rsp, %rbp
	.cfi_def_cfa_register %rbp
	subq	$160, %rsp
	movq	%rdi, -8(%rbp)
	movq	-8(%rbp), %rax
	movq	%rax, -96(%rbp)                 ## 8-byte Spill
	callq	__ZNSt3__1L15__get_nullptr_tEv
	movq	%rax, -24(%rbp)
	leaq	-24(%rbp), %rdi
	callq	__ZNKSt3__19nullptr_tcvPT_INS_13basic_filebufIcNS_11char_traitsIcEEEEEEv
	movq	%rax, %rcx
	movq	-96(%rbp), %rax                 ## 8-byte Reload
	movq	%rcx, -16(%rbp)
	cmpq	$0, 120(%rax)
	je	LBB20_17
## %bb.1:
	movq	-96(%rbp), %rax                 ## 8-byte Reload
	movq	%rax, -16(%rbp)
	movq	120(%rax), %rsi
	movq	_fclose@GOTPCREL(%rip), %rax
	movq	%rax, -48(%rbp)
	leaq	-40(%rbp), %rdi
	leaq	-48(%rbp), %rdx
	callq	__ZNSt3__110unique_ptrI7__sFILEPFiPS1_EEC1ILb1EvEES2_NS_16__dependent_typeINS_27__unique_ptr_deleter_sfinaeIS4_EEXT_EE20__good_rval_ref_typeE
	movq	-96(%rbp), %rdi                 ## 8-byte Reload
	movq	(%rdi), %rax
	movq	48(%rax), %rax
Ltmp90:
	callq	*%rax
	movl	%eax, %ecx
Ltmp91:
	movl	%ecx, -100(%rbp)                ## 4-byte Spill
	jmp	LBB20_2
LBB20_2:
	movl	-100(%rbp), %eax                ## 4-byte Reload
	cmpl	$0, %eax
	je	LBB20_7
## %bb.3:
Ltmp92:
	callq	__ZNSt3__1L15__get_nullptr_tEv
	movq	%rax, %rcx
Ltmp93:
	movq	%rcx, -112(%rbp)                ## 8-byte Spill
	jmp	LBB20_4
LBB20_4:
	movq	-112(%rbp), %rax                ## 8-byte Reload
	movq	%rax, -72(%rbp)
Ltmp94:
	leaq	-72(%rbp), %rdi
	callq	__ZNKSt3__19nullptr_tcvPT_INS_13basic_filebufIcNS_11char_traitsIcEEEEEEv
	movq	%rax, %rcx
Ltmp95:
	movq	%rcx, -120(%rbp)                ## 8-byte Spill
	jmp	LBB20_5
LBB20_5:
	movq	-120(%rbp), %rax                ## 8-byte Reload
	movq	%rax, -16(%rbp)
	jmp	LBB20_7
LBB20_6:
Ltmp108:
	movq	%rdx, %rcx
	movq	%rax, %rsi
                                        ## kill: def $ecx killed $ecx killed $rcx
	movq	%rsi, -56(%rbp)
	movl	%ecx, -60(%rbp)
Ltmp109:
	leaq	-40(%rbp), %rdi
	callq	__ZNSt3__110unique_ptrI7__sFILEPFiPS1_EED1Ev
Ltmp110:
	jmp	LBB20_16
LBB20_7:
	leaq	-40(%rbp), %rdi
	callq	__ZNSt3__110unique_ptrI7__sFILEPFiPS1_EE7releaseEv
	movq	%rax, %rdi
Ltmp96:
	callq	_fclose
	movl	%eax, %ecx
Ltmp97:
	movl	%ecx, -124(%rbp)                ## 4-byte Spill
	jmp	LBB20_8
LBB20_8:
	movl	-124(%rbp), %eax                ## 4-byte Reload
	cmpl	$0, %eax
	je	LBB20_12
## %bb.9:
Ltmp98:
	callq	__ZNSt3__1L15__get_nullptr_tEv
	movq	%rax, %rcx
Ltmp99:
	movq	%rcx, -136(%rbp)                ## 8-byte Spill
	jmp	LBB20_10
LBB20_10:
	movq	-136(%rbp), %rax                ## 8-byte Reload
	movq	%rax, -80(%rbp)
Ltmp100:
	leaq	-80(%rbp), %rdi
	callq	__ZNKSt3__19nullptr_tcvPT_INS_13basic_filebufIcNS_11char_traitsIcEEEEEEv
	movq	%rax, %rcx
Ltmp101:
	movq	%rcx, -144(%rbp)                ## 8-byte Spill
	jmp	LBB20_11
LBB20_11:
	movq	-144(%rbp), %rax                ## 8-byte Reload
	movq	%rax, -16(%rbp)
LBB20_12:
Ltmp102:
	callq	__ZNSt3__1L15__get_nullptr_tEv
	movq	%rax, %rcx
Ltmp103:
	movq	%rcx, -152(%rbp)                ## 8-byte Spill
	jmp	LBB20_13
LBB20_13:
	movq	-152(%rbp), %rax                ## 8-byte Reload
	movq	%rax, -88(%rbp)
Ltmp104:
	leaq	-88(%rbp), %rdi
	callq	__ZNKSt3__19nullptr_tcvPT_I7__sFILEEEv
	movq	%rax, %rcx
Ltmp105:
	movq	%rcx, -160(%rbp)                ## 8-byte Spill
	jmp	LBB20_14
LBB20_14:
	movq	-96(%rbp), %rdi                 ## 8-byte Reload
	movq	-160(%rbp), %rax                ## 8-byte Reload
	movq	%rax, 120(%rdi)
	movq	(%rdi), %rax
	movq	24(%rax), %rax
Ltmp106:
	xorl	%ecx, %ecx
	movl	%ecx, %edx
	movq	%rdx, %rsi
	callq	*%rax
                                        ## kill: def $rcx killed $rax
Ltmp107:
	jmp	LBB20_15
LBB20_15:
	leaq	-40(%rbp), %rdi
	callq	__ZNSt3__110unique_ptrI7__sFILEPFiPS1_EED1Ev
	jmp	LBB20_17
LBB20_16:
	jmp	LBB20_18
LBB20_17:
	movq	-16(%rbp), %rax
	addq	$160, %rsp
	popq	%rbp
	retq
LBB20_18:
	movq	-56(%rbp), %rdi
	callq	__Unwind_Resume
LBB20_19:
Ltmp111:
	movq	%rax, %rdi
	callq	___clang_call_terminate
Lfunc_end7:
	.cfi_endproc
	.section	__TEXT,__gcc_except_tab
	.p2align	2
GCC_except_table20:
Lexception7:
	.byte	255                             ## @LPStart Encoding = omit
	.byte	155                             ## @TType Encoding = indirect pcrel sdata4
	.uleb128 Lttbase6-Lttbaseref6
Lttbaseref6:
	.byte	1                               ## Call site Encoding = uleb128
	.uleb128 Lcst_end7-Lcst_begin7
Lcst_begin7:
	.uleb128 Lfunc_begin7-Lfunc_begin7      ## >> Call Site 1 <<
	.uleb128 Ltmp90-Lfunc_begin7            ##   Call between Lfunc_begin7 and Ltmp90
	.byte	0                               ##     has no landing pad
	.byte	0                               ##   On action: cleanup
	.uleb128 Ltmp90-Lfunc_begin7            ## >> Call Site 2 <<
	.uleb128 Ltmp95-Ltmp90                  ##   Call between Ltmp90 and Ltmp95
	.uleb128 Ltmp108-Lfunc_begin7           ##     jumps to Ltmp108
	.byte	0                               ##   On action: cleanup
	.uleb128 Ltmp109-Lfunc_begin7           ## >> Call Site 3 <<
	.uleb128 Ltmp110-Ltmp109                ##   Call between Ltmp109 and Ltmp110
	.uleb128 Ltmp111-Lfunc_begin7           ##     jumps to Ltmp111
	.byte	1                               ##   On action: 1
	.uleb128 Ltmp96-Lfunc_begin7            ## >> Call Site 4 <<
	.uleb128 Ltmp107-Ltmp96                 ##   Call between Ltmp96 and Ltmp107
	.uleb128 Ltmp108-Lfunc_begin7           ##     jumps to Ltmp108
	.byte	0                               ##   On action: cleanup
	.uleb128 Ltmp107-Lfunc_begin7           ## >> Call Site 5 <<
	.uleb128 Lfunc_end7-Ltmp107             ##   Call between Ltmp107 and Lfunc_end7
	.byte	0                               ##     has no landing pad
	.byte	0                               ##   On action: cleanup
Lcst_end7:
	.byte	1                               ## >> Action Record 1 <<
                                        ##   Catch TypeInfo 1
	.byte	0                               ##   No further actions
	.p2align	2
                                        ## >> Catch TypeInfos <<
	.long	0                               ## TypeInfo 1
Lttbase6:
	.p2align	2
                                        ## -- End function
	.section	__TEXT,__text,regular,pure_instructions
	.globl	__ZNSt3__113basic_filebufIcNS_11char_traitsIcEEED0Ev ## -- Begin function _ZNSt3__113basic_filebufIcNS_11char_traitsIcEEED0Ev
	.weak_def_can_be_hidden	__ZNSt3__113basic_filebufIcNS_11char_traitsIcEEED0Ev
	.p2align	4, 0x90
__ZNSt3__113basic_filebufIcNS_11char_traitsIcEEED0Ev: ## @_ZNSt3__113basic_filebufIcNS_11char_traitsIcEEED0Ev
Lfunc_begin8:
	.cfi_startproc
	.cfi_personality 155, ___gxx_personality_v0
	.cfi_lsda 16, Lexception8
## %bb.0:
	pushq	%rbp
	.cfi_def_cfa_offset 16
	.cfi_offset %rbp, -16
	movq	%rsp, %rbp
	.cfi_def_cfa_register %rbp
	subq	$32, %rsp
	movq	%rdi, -8(%rbp)
	movq	-8(%rbp), %rdi
	movq	%rdi, -32(%rbp)                 ## 8-byte Spill
Ltmp112:
	callq	__ZNSt3__113basic_filebufIcNS_11char_traitsIcEEED1Ev
Ltmp113:
	jmp	LBB21_1
LBB21_1:
	movq	-32(%rbp), %rdi                 ## 8-byte Reload
	callq	__ZdlPv
	addq	$32, %rsp
	popq	%rbp
	retq
LBB21_2:
Ltmp114:
	movq	-32(%rbp), %rdi                 ## 8-byte Reload
	movq	%rax, %rcx
	movl	%edx, %eax
	movq	%rcx, -16(%rbp)
	movl	%eax, -20(%rbp)
	callq	__ZdlPv
## %bb.3:
	movq	-16(%rbp), %rdi
	callq	__Unwind_Resume
Lfunc_end8:
	.cfi_endproc
	.section	__TEXT,__gcc_except_tab
	.p2align	2
GCC_except_table21:
Lexception8:
	.byte	255                             ## @LPStart Encoding = omit
	.byte	255                             ## @TType Encoding = omit
	.byte	1                               ## Call site Encoding = uleb128
	.uleb128 Lcst_end8-Lcst_begin8
Lcst_begin8:
	.uleb128 Ltmp112-Lfunc_begin8           ## >> Call Site 1 <<
	.uleb128 Ltmp113-Ltmp112                ##   Call between Ltmp112 and Ltmp113
	.uleb128 Ltmp114-Lfunc_begin8           ##     jumps to Ltmp114
	.byte	0                               ##   On action: cleanup
	.uleb128 Ltmp113-Lfunc_begin8           ## >> Call Site 2 <<
	.uleb128 Lfunc_end8-Ltmp113             ##   Call between Ltmp113 and Lfunc_end8
	.byte	0                               ##     has no landing pad
	.byte	0                               ##   On action: cleanup
Lcst_end8:
	.p2align	2
                                        ## -- End function
	.section	__TEXT,__text,regular,pure_instructions
	.globl	__ZNSt3__113basic_filebufIcNS_11char_traitsIcEEE5imbueERKNS_6localeE ## -- Begin function _ZNSt3__113basic_filebufIcNS_11char_traitsIcEEE5imbueERKNS_6localeE
	.weak_def_can_be_hidden	__ZNSt3__113basic_filebufIcNS_11char_traitsIcEEE5imbueERKNS_6localeE
	.p2align	4, 0x90
__ZNSt3__113basic_filebufIcNS_11char_traitsIcEEE5imbueERKNS_6localeE: ## @_ZNSt3__113basic_filebufIcNS_11char_traitsIcEEE5imbueERKNS_6localeE
	.cfi_startproc
## %bb.0:
	pushq	%rbp
	.cfi_def_cfa_offset 16
	.cfi_offset %rbp, -16
	movq	%rsp, %rbp
	.cfi_def_cfa_register %rbp
	subq	$128, %rsp
	movq	%rdi, -8(%rbp)
	movq	%rsi, -16(%rbp)
	movq	-8(%rbp), %rdi
	movq	%rdi, -80(%rbp)                 ## 8-byte Spill
	movq	(%rdi), %rax
	callq	*48(%rax)
	movq	-16(%rbp), %rdi
	callq	__ZNSt3__1L9use_facetINS_7codecvtIcc11__mbstate_tEEEERKT_RKNS_6localeE
	movq	%rax, %rcx
	movq	-80(%rbp), %rax                 ## 8-byte Reload
	movq	%rcx, 128(%rax)
	movb	402(%rax), %cl
	andb	$1, %cl
	movb	%cl, -17(%rbp)
	movq	128(%rax), %rdi
	callq	__ZNKSt3__17codecvtIcc11__mbstate_tE13always_noconvEv
	movq	-80(%rbp), %rcx                 ## 8-byte Reload
	andb	$1, %al
	movb	%al, 402(%rcx)
	movb	-17(%rbp), %al
	andb	$1, %al
	movzbl	%al, %eax
	movb	402(%rcx), %cl
	andb	$1, %cl
	movzbl	%cl, %ecx
	cmpl	%ecx, %eax
	je	LBB22_13
## %bb.1:
	movq	-80(%rbp), %rax                 ## 8-byte Reload
	movq	%rax, -120(%rbp)                ## 8-byte Spill
	callq	__ZNSt3__1L15__get_nullptr_tEv
	movq	%rax, -32(%rbp)
	leaq	-32(%rbp), %rdi
	callq	__ZNKSt3__19nullptr_tcvPT_IcEEv
	movq	%rax, -112(%rbp)                ## 8-byte Spill
	callq	__ZNSt3__1L15__get_nullptr_tEv
	movq	%rax, -40(%rbp)
	leaq	-40(%rbp), %rdi
	callq	__ZNKSt3__19nullptr_tcvPT_IcEEv
	movq	%rax, -104(%rbp)                ## 8-byte Spill
	callq	__ZNSt3__1L15__get_nullptr_tEv
	movq	%rax, -48(%rbp)
	leaq	-48(%rbp), %rdi
	callq	__ZNKSt3__19nullptr_tcvPT_IcEEv
	movq	-120(%rbp), %rdi                ## 8-byte Reload
	movq	-112(%rbp), %rsi                ## 8-byte Reload
	movq	-104(%rbp), %rdx                ## 8-byte Reload
	movq	%rax, %rcx
	callq	__ZNSt3__115basic_streambufIcNS_11char_traitsIcEEE4setgEPcS4_S4_
	movq	-80(%rbp), %rax                 ## 8-byte Reload
	movq	%rax, -96(%rbp)                 ## 8-byte Spill
	callq	__ZNSt3__1L15__get_nullptr_tEv
	movq	%rax, -56(%rbp)
	leaq	-56(%rbp), %rdi
	callq	__ZNKSt3__19nullptr_tcvPT_IcEEv
	movq	%rax, -88(%rbp)                 ## 8-byte Spill
	callq	__ZNSt3__1L15__get_nullptr_tEv
	movq	%rax, -64(%rbp)
	leaq	-64(%rbp), %rdi
	callq	__ZNKSt3__19nullptr_tcvPT_IcEEv
	movq	-96(%rbp), %rdi                 ## 8-byte Reload
	movq	-88(%rbp), %rsi                 ## 8-byte Reload
	movq	%rax, %rdx
	callq	__ZNSt3__115basic_streambufIcNS_11char_traitsIcEEE4setpEPcS4_
	movq	-80(%rbp), %rax                 ## 8-byte Reload
	testb	$1, 402(%rax)
	je	LBB22_7
## %bb.2:
	movq	-80(%rbp), %rax                 ## 8-byte Reload
	testb	$1, 400(%rax)
	je	LBB22_6
## %bb.3:
	movq	-80(%rbp), %rax                 ## 8-byte Reload
	movq	64(%rax), %rax
	movq	%rax, -128(%rbp)                ## 8-byte Spill
	cmpq	$0, %rax
	je	LBB22_5
## %bb.4:
	movq	-128(%rbp), %rdi                ## 8-byte Reload
	callq	__ZdaPv
LBB22_5:
	jmp	LBB22_6
LBB22_6:
	movq	-80(%rbp), %rax                 ## 8-byte Reload
	movb	401(%rax), %cl
	andb	$1, %cl
	movb	%cl, 400(%rax)
	movq	112(%rax), %rcx
	movq	%rcx, 96(%rax)
	movq	104(%rax), %rcx
	movq	%rcx, 64(%rax)
	movq	$0, 112(%rax)
	callq	__ZNSt3__1L15__get_nullptr_tEv
	movq	%rax, -72(%rbp)
	leaq	-72(%rbp), %rdi
	callq	__ZNKSt3__19nullptr_tcvPT_IcEEv
	movq	%rax, %rcx
	movq	-80(%rbp), %rax                 ## 8-byte Reload
	movq	%rcx, 104(%rax)
	movb	$0, 401(%rax)
	jmp	LBB22_12
LBB22_7:
	movq	-80(%rbp), %rax                 ## 8-byte Reload
	testb	$1, 400(%rax)
	jne	LBB22_10
## %bb.8:
	movq	-80(%rbp), %rcx                 ## 8-byte Reload
	movq	64(%rcx), %rax
	addq	$88, %rcx
	cmpq	%rcx, %rax
	je	LBB22_10
## %bb.9:
	movq	-80(%rbp), %rax                 ## 8-byte Reload
	movq	96(%rax), %rcx
	movq	%rcx, 112(%rax)
	movq	64(%rax), %rcx
	movq	%rcx, 104(%rax)
	movb	$0, 401(%rax)
	movq	96(%rax), %rdi
	callq	__Znam
	movq	%rax, %rcx
	movq	-80(%rbp), %rax                 ## 8-byte Reload
	movq	%rcx, 64(%rax)
	movb	$1, 400(%rax)
	jmp	LBB22_11
LBB22_10:
	movq	-80(%rbp), %rax                 ## 8-byte Reload
	movq	96(%rax), %rcx
	movq	%rcx, 112(%rax)
	movq	112(%rax), %rdi
	callq	__Znam
	movq	%rax, %rcx
	movq	-80(%rbp), %rax                 ## 8-byte Reload
	movq	%rcx, 104(%rax)
	movb	$1, 401(%rax)
LBB22_11:
	jmp	LBB22_12
LBB22_12:
	jmp	LBB22_13
LBB22_13:
	addq	$128, %rsp
	popq	%rbp
	retq
	.cfi_endproc
                                        ## -- End function
	.globl	__ZNSt3__113basic_filebufIcNS_11char_traitsIcEEE6setbufEPcl ## -- Begin function _ZNSt3__113basic_filebufIcNS_11char_traitsIcEEE6setbufEPcl
	.weak_def_can_be_hidden	__ZNSt3__113basic_filebufIcNS_11char_traitsIcEEE6setbufEPcl
	.p2align	4, 0x90
__ZNSt3__113basic_filebufIcNS_11char_traitsIcEEE6setbufEPcl: ## @_ZNSt3__113basic_filebufIcNS_11char_traitsIcEEE6setbufEPcl
	.cfi_startproc
## %bb.0:
	pushq	%rbp
	.cfi_def_cfa_offset 16
	.cfi_offset %rbp, -16
	movq	%rsp, %rbp
	.cfi_def_cfa_register %rbp
	subq	$144, %rsp
	movq	%rdi, -8(%rbp)
	movq	%rsi, -16(%rbp)
	movq	%rdx, -24(%rbp)
	movq	-8(%rbp), %rax
	movq	%rax, -88(%rbp)                 ## 8-byte Spill
	movq	%rax, -128(%rbp)                ## 8-byte Spill
	callq	__ZNSt3__1L15__get_nullptr_tEv
	movq	%rax, -32(%rbp)
	leaq	-32(%rbp), %rdi
	callq	__ZNKSt3__19nullptr_tcvPT_IcEEv
	movq	%rax, -120(%rbp)                ## 8-byte Spill
	callq	__ZNSt3__1L15__get_nullptr_tEv
	movq	%rax, -40(%rbp)
	leaq	-40(%rbp), %rdi
	callq	__ZNKSt3__19nullptr_tcvPT_IcEEv
	movq	%rax, -112(%rbp)                ## 8-byte Spill
	callq	__ZNSt3__1L15__get_nullptr_tEv
	movq	%rax, -48(%rbp)
	leaq	-48(%rbp), %rdi
	callq	__ZNKSt3__19nullptr_tcvPT_IcEEv
	movq	-128(%rbp), %rdi                ## 8-byte Reload
	movq	-120(%rbp), %rsi                ## 8-byte Reload
	movq	-112(%rbp), %rdx                ## 8-byte Reload
	movq	%rax, %rcx
	callq	__ZNSt3__115basic_streambufIcNS_11char_traitsIcEEE4setgEPcS4_S4_
	movq	-88(%rbp), %rax                 ## 8-byte Reload
	movq	%rax, -104(%rbp)                ## 8-byte Spill
	callq	__ZNSt3__1L15__get_nullptr_tEv
	movq	%rax, -56(%rbp)
	leaq	-56(%rbp), %rdi
	callq	__ZNKSt3__19nullptr_tcvPT_IcEEv
	movq	%rax, -96(%rbp)                 ## 8-byte Spill
	callq	__ZNSt3__1L15__get_nullptr_tEv
	movq	%rax, -64(%rbp)
	leaq	-64(%rbp), %rdi
	callq	__ZNKSt3__19nullptr_tcvPT_IcEEv
	movq	-104(%rbp), %rdi                ## 8-byte Reload
	movq	-96(%rbp), %rsi                 ## 8-byte Reload
	movq	%rax, %rdx
	callq	__ZNSt3__115basic_streambufIcNS_11char_traitsIcEEE4setpEPcS4_
	movq	-88(%rbp), %rax                 ## 8-byte Reload
	testb	$1, 400(%rax)
	je	LBB23_4
## %bb.1:
	movq	-88(%rbp), %rax                 ## 8-byte Reload
	movq	64(%rax), %rax
	movq	%rax, -136(%rbp)                ## 8-byte Spill
	cmpq	$0, %rax
	je	LBB23_3
## %bb.2:
	movq	-136(%rbp), %rdi                ## 8-byte Reload
	callq	__ZdaPv
LBB23_3:
	jmp	LBB23_4
LBB23_4:
	movq	-88(%rbp), %rax                 ## 8-byte Reload
	testb	$1, 401(%rax)
	je	LBB23_8
## %bb.5:
	movq	-88(%rbp), %rax                 ## 8-byte Reload
	movq	104(%rax), %rax
	movq	%rax, -144(%rbp)                ## 8-byte Spill
	cmpq	$0, %rax
	je	LBB23_7
## %bb.6:
	movq	-144(%rbp), %rdi                ## 8-byte Reload
	callq	__ZdaPv
LBB23_7:
	jmp	LBB23_8
LBB23_8:
	movq	-88(%rbp), %rax                 ## 8-byte Reload
	movq	-24(%rbp), %rcx
	movq	%rcx, 96(%rax)
	cmpq	$8, 96(%rax)
	jbe	LBB23_14
## %bb.9:
	movq	-88(%rbp), %rax                 ## 8-byte Reload
	testb	$1, 402(%rax)
	je	LBB23_12
## %bb.10:
	cmpq	$0, -16(%rbp)
	je	LBB23_12
## %bb.11:
	movq	-88(%rbp), %rax                 ## 8-byte Reload
	movq	-16(%rbp), %rcx
	movq	%rcx, 64(%rax)
	movb	$0, 400(%rax)
	jmp	LBB23_13
LBB23_12:
	movq	-88(%rbp), %rax                 ## 8-byte Reload
	movq	96(%rax), %rdi
	callq	__Znam
	movq	%rax, %rcx
	movq	-88(%rbp), %rax                 ## 8-byte Reload
	movq	%rcx, 64(%rax)
	movb	$1, 400(%rax)
LBB23_13:
	jmp	LBB23_15
LBB23_14:
	movq	-88(%rbp), %rax                 ## 8-byte Reload
	movq	%rax, %rcx
	addq	$88, %rcx
	movq	%rcx, 64(%rax)
	movq	$8, 96(%rax)
	movb	$0, 400(%rax)
LBB23_15:
	movq	-88(%rbp), %rax                 ## 8-byte Reload
	testb	$1, 402(%rax)
	jne	LBB23_21
## %bb.16:
	movq	$8, -72(%rbp)
	leaq	-24(%rbp), %rdi
	leaq	-72(%rbp), %rsi
	callq	__ZNSt3__1L3maxIlEERKT_S3_S3_
	movq	%rax, %rcx
	movq	-88(%rbp), %rax                 ## 8-byte Reload
	movq	(%rcx), %rcx
	movq	%rcx, 112(%rax)
	cmpq	$0, -16(%rbp)
	je	LBB23_19
## %bb.17:
	movq	-88(%rbp), %rax                 ## 8-byte Reload
	cmpq	$8, 112(%rax)
	jb	LBB23_19
## %bb.18:
	movq	-88(%rbp), %rax                 ## 8-byte Reload
	movq	-16(%rbp), %rcx
	movq	%rcx, 104(%rax)
	movb	$0, 401(%rax)
	jmp	LBB23_20
LBB23_19:
	movq	-88(%rbp), %rax                 ## 8-byte Reload
	movq	112(%rax), %rdi
	callq	__Znam
	movq	%rax, %rcx
	movq	-88(%rbp), %rax                 ## 8-byte Reload
	movq	%rcx, 104(%rax)
	movb	$1, 401(%rax)
LBB23_20:
	jmp	LBB23_22
LBB23_21:
	movq	-88(%rbp), %rax                 ## 8-byte Reload
	movq	$0, 112(%rax)
	callq	__ZNSt3__1L15__get_nullptr_tEv
	movq	%rax, -80(%rbp)
	leaq	-80(%rbp), %rdi
	callq	__ZNKSt3__19nullptr_tcvPT_IcEEv
	movq	%rax, %rcx
	movq	-88(%rbp), %rax                 ## 8-byte Reload
	movq	%rcx, 104(%rax)
	movb	$0, 401(%rax)
LBB23_22:
	movq	-88(%rbp), %rax                 ## 8-byte Reload
	addq	$144, %rsp
	popq	%rbp
	retq
	.cfi_endproc
                                        ## -- End function
	.globl	__ZNSt3__113basic_filebufIcNS_11char_traitsIcEEE7seekoffExNS_8ios_base7seekdirEj ## -- Begin function _ZNSt3__113basic_filebufIcNS_11char_traitsIcEEE7seekoffExNS_8ios_base7seekdirEj
	.weak_def_can_be_hidden	__ZNSt3__113basic_filebufIcNS_11char_traitsIcEEE7seekoffExNS_8ios_base7seekdirEj
	.p2align	4, 0x90
__ZNSt3__113basic_filebufIcNS_11char_traitsIcEEE7seekoffExNS_8ios_base7seekdirEj: ## @_ZNSt3__113basic_filebufIcNS_11char_traitsIcEEE7seekoffExNS_8ios_base7seekdirEj
	.cfi_startproc
## %bb.0:
	pushq	%rbp
	.cfi_def_cfa_offset 16
	.cfi_offset %rbp, -16
	movq	%rsp, %rbp
	.cfi_def_cfa_register %rbp
	subq	$528, %rsp                      ## imm = 0x210
	movq	%rdi, -344(%rbp)                ## 8-byte Spill
	movq	%rdi, -336(%rbp)                ## 8-byte Spill
	movq	___stack_chk_guard@GOTPCREL(%rip), %rax
	movq	(%rax), %rax
	movq	%rax, -8(%rbp)
	movq	%rsi, -280(%rbp)
	movq	%rdx, -288(%rbp)
	movl	%ecx, -292(%rbp)
	movl	%r8d, -296(%rbp)
	movq	-280(%rbp), %rax
	movq	%rax, -328(%rbp)                ## 8-byte Spill
	cmpq	$0, 128(%rax)
	jne	LBB24_2
## %bb.1:
	callq	__ZNSt3__1L16__throw_bad_castEv
LBB24_2:
	movq	-328(%rbp), %rax                ## 8-byte Reload
	movq	128(%rax), %rdi
	callq	__ZNKSt3__17codecvtIcc11__mbstate_tE8encodingEv
	movl	%eax, %ecx
	movq	-328(%rbp), %rax                ## 8-byte Reload
	movl	%ecx, -300(%rbp)
	movq	120(%rax), %rax
	movq	%rax, -360(%rbp)                ## 8-byte Spill
	callq	__ZNSt3__1L15__get_nullptr_tEv
	movq	%rax, -312(%rbp)
	leaq	-312(%rbp), %rdi
	callq	__ZNKSt3__19nullptr_tcvPT_I7__sFILEEEv
	movq	%rax, %rcx
	movq	-360(%rbp), %rax                ## 8-byte Reload
	cmpq	%rcx, %rax
	movb	$1, %al
	movb	%al, -345(%rbp)                 ## 1-byte Spill
	je	LBB24_6
## %bb.3:
	cmpl	$0, -300(%rbp)
	jg	LBB24_5
## %bb.4:
	cmpq	$0, -288(%rbp)
	movb	$1, %al
	movb	%al, -345(%rbp)                 ## 1-byte Spill
	jne	LBB24_6
LBB24_5:
	movq	-328(%rbp), %rdi                ## 8-byte Reload
	movq	(%rdi), %rax
	callq	*48(%rax)
	cmpl	$0, %eax
	setne	%al
	movb	%al, -345(%rbp)                 ## 1-byte Spill
LBB24_6:
	movb	-345(%rbp), %al                 ## 1-byte Reload
	testb	$1, %al
	jne	LBB24_7
	jmp	LBB24_8
LBB24_7:
	movq	-344(%rbp), %rdi                ## 8-byte Reload
	movq	$-1, %rsi
	callq	__ZNSt3__14fposI11__mbstate_tEC1Ex
	jmp	LBB24_19
LBB24_8:
	movl	-292(%rbp), %eax
	movl	%eax, -364(%rbp)                ## 4-byte Spill
	testl	%eax, %eax
	je	LBB24_9
	jmp	LBB24_22
LBB24_22:
	movl	-364(%rbp), %eax                ## 4-byte Reload
	subl	$1, %eax
	je	LBB24_10
	jmp	LBB24_23
LBB24_23:
	movl	-364(%rbp), %eax                ## 4-byte Reload
	subl	$2, %eax
	je	LBB24_11
	jmp	LBB24_12
LBB24_9:
	movl	$0, -316(%rbp)
	jmp	LBB24_13
LBB24_10:
	movl	$1, -316(%rbp)
	jmp	LBB24_13
LBB24_11:
	movl	$2, -316(%rbp)
	jmp	LBB24_13
LBB24_12:
	movq	-344(%rbp), %rdi                ## 8-byte Reload
	movq	$-1, %rsi
	callq	__ZNSt3__14fposI11__mbstate_tEC1Ex
	jmp	LBB24_19
LBB24_13:
	movq	-328(%rbp), %rax                ## 8-byte Reload
	movq	120(%rax), %rax
	movq	%rax, -376(%rbp)                ## 8-byte Spill
	cmpl	$0, -300(%rbp)
	jle	LBB24_15
## %bb.14:
	movslq	-300(%rbp), %rax
	imulq	-288(%rbp), %rax
	movq	%rax, -384(%rbp)                ## 8-byte Spill
	jmp	LBB24_16
LBB24_15:
	xorl	%eax, %eax
                                        ## kill: def $rax killed $eax
	movq	%rax, -384(%rbp)                ## 8-byte Spill
	jmp	LBB24_16
LBB24_16:
	movq	-376(%rbp), %rdi                ## 8-byte Reload
	movq	-384(%rbp), %rsi                ## 8-byte Reload
	movl	-316(%rbp), %edx
	callq	_fseeko
	cmpl	$0, %eax
	je	LBB24_18
## %bb.17:
	movq	-344(%rbp), %rdi                ## 8-byte Reload
	movq	$-1, %rsi
	callq	__ZNSt3__14fposI11__mbstate_tEC1Ex
	jmp	LBB24_19
LBB24_18:
	movq	-328(%rbp), %rax                ## 8-byte Reload
	movq	120(%rax), %rdi
	callq	_ftello
	movq	%rax, %rsi
	leaq	-144(%rbp), %rdi
	callq	__ZNSt3__14fposI11__mbstate_tEC1Ex
	movq	-328(%rbp), %rsi                ## 8-byte Reload
	addq	$136, %rsi
	leaq	-272(%rbp), %rdi
	movl	$128, %edx
	callq	_memcpy
	movups	-160(%rbp), %xmm0
	movq	%rsp, %rax
	movq	%rax, -392(%rbp)                ## 8-byte Spill
	movups	%xmm0, 112(%rax)
	movups	-176(%rbp), %xmm0
	movups	%xmm0, 96(%rax)
	movups	-192(%rbp), %xmm0
	movups	%xmm0, 80(%rax)
	movups	-208(%rbp), %xmm0
	movups	%xmm0, 64(%rax)
	movups	-272(%rbp), %xmm0
	movups	-256(%rbp), %xmm1
	movups	-240(%rbp), %xmm2
	movups	-224(%rbp), %xmm3
	movups	%xmm3, 48(%rax)
	movups	%xmm2, 32(%rax)
	movups	%xmm1, 16(%rax)
	movups	%xmm0, (%rax)
	leaq	-144(%rbp), %rdi
	callq	__ZNSt3__14fposI11__mbstate_tE5stateES1_
	movq	-344(%rbp), %rdi                ## 8-byte Reload
	leaq	-144(%rbp), %rsi
	movl	$136, %edx
	callq	_memcpy
LBB24_19:
	movq	___stack_chk_guard@GOTPCREL(%rip), %rax
	movq	(%rax), %rax
	movq	-8(%rbp), %rcx
	cmpq	%rcx, %rax
	jne	LBB24_21
## %bb.20:
	movq	-336(%rbp), %rax                ## 8-byte Reload
	addq	$528, %rsp                      ## imm = 0x210
	popq	%rbp
	retq
LBB24_21:
	callq	___stack_chk_fail
	ud2
	.cfi_endproc
                                        ## -- End function
	.globl	__ZNSt3__113basic_filebufIcNS_11char_traitsIcEEE7seekposENS_4fposI11__mbstate_tEEj ## -- Begin function _ZNSt3__113basic_filebufIcNS_11char_traitsIcEEE7seekposENS_4fposI11__mbstate_tEEj
	.weak_def_can_be_hidden	__ZNSt3__113basic_filebufIcNS_11char_traitsIcEEE7seekposENS_4fposI11__mbstate_tEEj
	.p2align	4, 0x90
__ZNSt3__113basic_filebufIcNS_11char_traitsIcEEE7seekposENS_4fposI11__mbstate_tEEj: ## @_ZNSt3__113basic_filebufIcNS_11char_traitsIcEEE7seekposENS_4fposI11__mbstate_tEEj
	.cfi_startproc
## %bb.0:
	pushq	%rbp
	.cfi_def_cfa_offset 16
	.cfi_offset %rbp, -16
	movq	%rsp, %rbp
	.cfi_def_cfa_register %rbp
	subq	$224, %rsp
	movq	%rdi, -208(%rbp)                ## 8-byte Spill
	movq	%rdi, -200(%rbp)                ## 8-byte Spill
	leaq	16(%rbp), %rax
	movq	%rax, -192(%rbp)                ## 8-byte Spill
	movq	___stack_chk_guard@GOTPCREL(%rip), %rax
	movq	(%rax), %rax
	movq	%rax, -8(%rbp)
	movq	%rsi, -144(%rbp)
	movl	%edx, -148(%rbp)
	movq	-144(%rbp), %rax
	movq	%rax, -184(%rbp)                ## 8-byte Spill
	movq	120(%rax), %rax
	movq	%rax, -176(%rbp)                ## 8-byte Spill
	callq	__ZNSt3__1L15__get_nullptr_tEv
	movq	%rax, -160(%rbp)
	leaq	-160(%rbp), %rdi
	callq	__ZNKSt3__19nullptr_tcvPT_I7__sFILEEEv
	movq	%rax, %rcx
	movq	-176(%rbp), %rax                ## 8-byte Reload
	cmpq	%rcx, %rax
	movb	$1, %al
	movb	%al, -161(%rbp)                 ## 1-byte Spill
	je	LBB25_2
## %bb.1:
	movq	-184(%rbp), %rdi                ## 8-byte Reload
	movq	(%rdi), %rax
	callq	*48(%rax)
	cmpl	$0, %eax
	setne	%al
	movb	%al, -161(%rbp)                 ## 1-byte Spill
LBB25_2:
	movb	-161(%rbp), %al                 ## 1-byte Reload
	testb	$1, %al
	jne	LBB25_3
	jmp	LBB25_4
LBB25_3:
	movq	-208(%rbp), %rdi                ## 8-byte Reload
	movq	$-1, %rsi
	callq	__ZNSt3__14fposI11__mbstate_tEC1Ex
	jmp	LBB25_7
LBB25_4:
	movq	-192(%rbp), %rdi                ## 8-byte Reload
	movq	-184(%rbp), %rax                ## 8-byte Reload
	movq	120(%rax), %rax
	movq	%rax, -216(%rbp)                ## 8-byte Spill
	callq	__ZNKSt3__14fposI11__mbstate_tEcvxEv
	movq	-216(%rbp), %rdi                ## 8-byte Reload
	movq	%rax, %rsi
	xorl	%edx, %edx
	callq	_fseeko
	cmpl	$0, %eax
	je	LBB25_6
## %bb.5:
	movq	-208(%rbp), %rdi                ## 8-byte Reload
	movq	$-1, %rsi
	callq	__ZNSt3__14fposI11__mbstate_tEC1Ex
	jmp	LBB25_7
LBB25_6:
	movq	-192(%rbp), %rsi                ## 8-byte Reload
	leaq	-136(%rbp), %rdi
	callq	__ZNKSt3__14fposI11__mbstate_tE5stateEv
	movq	-184(%rbp), %rdi                ## 8-byte Reload
	addq	$136, %rdi
	leaq	-136(%rbp), %rsi
	movl	$128, %edx
	callq	_memcpy
	movq	-208(%rbp), %rdi                ## 8-byte Reload
	movq	-192(%rbp), %rsi                ## 8-byte Reload
	movl	$136, %edx
	callq	_memcpy
LBB25_7:
	movq	___stack_chk_guard@GOTPCREL(%rip), %rax
	movq	(%rax), %rax
	movq	-8(%rbp), %rcx
	cmpq	%rcx, %rax
	jne	LBB25_9
## %bb.8:
	movq	-200(%rbp), %rax                ## 8-byte Reload
	addq	$224, %rsp
	popq	%rbp
	retq
LBB25_9:
	callq	___stack_chk_fail
	ud2
	.cfi_endproc
                                        ## -- End function
	.globl	__ZNSt3__113basic_filebufIcNS_11char_traitsIcEEE4syncEv ## -- Begin function _ZNSt3__113basic_filebufIcNS_11char_traitsIcEEE4syncEv
	.weak_def_can_be_hidden	__ZNSt3__113basic_filebufIcNS_11char_traitsIcEEE4syncEv
	.p2align	4, 0x90
__ZNSt3__113basic_filebufIcNS_11char_traitsIcEEE4syncEv: ## @_ZNSt3__113basic_filebufIcNS_11char_traitsIcEEE4syncEv
	.cfi_startproc
## %bb.0:
	pushq	%rbp
	.cfi_def_cfa_offset 16
	.cfi_offset %rbp, -16
	movq	%rsp, %rbp
	.cfi_def_cfa_register %rbp
	subq	$368, %rsp                      ## imm = 0x170
	movq	___stack_chk_guard@GOTPCREL(%rip), %rax
	movq	(%rax), %rax
	movq	%rax, -8(%rbp)
	movq	%rdi, -152(%rbp)
	movq	-152(%rbp), %rax
	movq	%rax, -248(%rbp)                ## 8-byte Spill
	movq	120(%rax), %rax
	movq	%rax, -240(%rbp)                ## 8-byte Spill
	callq	__ZNSt3__1L15__get_nullptr_tEv
	movq	%rax, -160(%rbp)
	leaq	-160(%rbp), %rdi
	callq	__ZNKSt3__19nullptr_tcvPT_I7__sFILEEEv
	movq	%rax, %rcx
	movq	-240(%rbp), %rax                ## 8-byte Reload
	cmpq	%rcx, %rax
	jne	LBB26_2
## %bb.1:
	movl	$0, -140(%rbp)
	jmp	LBB26_35
LBB26_2:
	movq	-248(%rbp), %rax                ## 8-byte Reload
	cmpq	$0, 128(%rax)
	jne	LBB26_4
## %bb.3:
	callq	__ZNSt3__1L16__throw_bad_castEv
LBB26_4:
	movq	-248(%rbp), %rax                ## 8-byte Reload
	movl	396(%rax), %eax
	andl	$16, %eax
	cmpl	$0, %eax
	je	LBB26_19
## %bb.5:
	movq	-248(%rbp), %rdi                ## 8-byte Reload
	callq	__ZNKSt3__115basic_streambufIcNS_11char_traitsIcEEE4pptrEv
	movq	-248(%rbp), %rdi                ## 8-byte Reload
	movq	%rax, -256(%rbp)                ## 8-byte Spill
	callq	__ZNKSt3__115basic_streambufIcNS_11char_traitsIcEEE5pbaseEv
	movq	%rax, %rcx
	movq	-256(%rbp), %rax                ## 8-byte Reload
	cmpq	%rcx, %rax
	je	LBB26_9
## %bb.6:
	callq	__ZNSt3__111char_traitsIcE3eofEv
	movq	-248(%rbp), %rdi                ## 8-byte Reload
	movl	%eax, %esi
	movq	(%rdi), %rax
	callq	*104(%rax)
	movl	%eax, -260(%rbp)                ## 4-byte Spill
	callq	__ZNSt3__111char_traitsIcE3eofEv
	movl	%eax, %ecx
	movl	-260(%rbp), %eax                ## 4-byte Reload
	cmpl	%ecx, %eax
	jne	LBB26_8
## %bb.7:
	movl	$-1, -140(%rbp)
	jmp	LBB26_35
LBB26_8:
	jmp	LBB26_9
LBB26_9:
	jmp	LBB26_10
LBB26_10:                               ## =>This Inner Loop Header: Depth=1
	movq	-248(%rbp), %rax                ## 8-byte Reload
	movq	128(%rax), %rdi
	movq	%rax, %rsi
	addq	$136, %rsi
	movq	64(%rax), %rdx
	movq	64(%rax), %rcx
	addq	96(%rax), %rcx
	leaq	-176(%rbp), %r8
	callq	__ZNKSt3__17codecvtIcc11__mbstate_tE7unshiftERS1_PcS4_RS4_
	movl	%eax, %ecx
	movq	-248(%rbp), %rax                ## 8-byte Reload
	movl	%ecx, -164(%rbp)
	movq	-176(%rbp), %rcx
	movq	64(%rax), %rdx
	subq	%rdx, %rcx
	movq	%rcx, -184(%rbp)
	movq	64(%rax), %rdi
	movq	-184(%rbp), %rdx
	movq	120(%rax), %rcx
	movl	$1, %esi
	callq	_fwrite
	cmpq	-184(%rbp), %rax
	je	LBB26_12
## %bb.11:
	movl	$-1, -140(%rbp)
	jmp	LBB26_35
LBB26_12:                               ##   in Loop: Header=BB26_10 Depth=1
	jmp	LBB26_13
LBB26_13:                               ##   in Loop: Header=BB26_10 Depth=1
	cmpl	$1, -164(%rbp)
	je	LBB26_10
## %bb.14:
	cmpl	$2, -164(%rbp)
	jne	LBB26_16
## %bb.15:
	movl	$-1, -140(%rbp)
	jmp	LBB26_35
LBB26_16:
	movq	-248(%rbp), %rax                ## 8-byte Reload
	movq	120(%rax), %rdi
	callq	_fflush
	cmpl	$0, %eax
	je	LBB26_18
## %bb.17:
	movl	$-1, -140(%rbp)
	jmp	LBB26_35
LBB26_18:
	jmp	LBB26_34
LBB26_19:
	movq	-248(%rbp), %rax                ## 8-byte Reload
	movl	396(%rax), %eax
	andl	$8, %eax
	cmpl	$0, %eax
	je	LBB26_33
## %bb.20:
	movq	-248(%rbp), %rsi                ## 8-byte Reload
	addq	$264, %rsi                      ## imm = 0x108
	leaq	-136(%rbp), %rdi
	movl	$128, %edx
	callq	_memcpy
	movq	-248(%rbp), %rax                ## 8-byte Reload
	movb	$0, -193(%rbp)
	testb	$1, 402(%rax)
	je	LBB26_22
## %bb.21:
	movq	-248(%rbp), %rdi                ## 8-byte Reload
	callq	__ZNKSt3__115basic_streambufIcNS_11char_traitsIcEEE5egptrEv
	movq	-248(%rbp), %rdi                ## 8-byte Reload
	movq	%rax, -272(%rbp)                ## 8-byte Spill
	callq	__ZNKSt3__115basic_streambufIcNS_11char_traitsIcEEE4gptrEv
	movq	%rax, %rcx
	movq	-272(%rbp), %rax                ## 8-byte Reload
	subq	%rcx, %rax
	movq	%rax, -192(%rbp)
	jmp	LBB26_28
LBB26_22:
	movq	-248(%rbp), %rax                ## 8-byte Reload
	movq	128(%rax), %rdi
	callq	__ZNKSt3__17codecvtIcc11__mbstate_tE8encodingEv
	movq	-248(%rbp), %rcx                ## 8-byte Reload
	movl	%eax, -200(%rbp)
	movq	80(%rcx), %rax
	movq	72(%rcx), %rcx
	subq	%rcx, %rax
	movq	%rax, -192(%rbp)
	cmpl	$0, -200(%rbp)
	jle	LBB26_24
## %bb.23:
	movq	-248(%rbp), %rdi                ## 8-byte Reload
	movslq	-200(%rbp), %rax
	movq	%rax, -280(%rbp)                ## 8-byte Spill
	callq	__ZNKSt3__115basic_streambufIcNS_11char_traitsIcEEE5egptrEv
	movq	-248(%rbp), %rdi                ## 8-byte Reload
	movq	%rax, -288(%rbp)                ## 8-byte Spill
	callq	__ZNKSt3__115basic_streambufIcNS_11char_traitsIcEEE4gptrEv
	movq	-288(%rbp), %rcx                ## 8-byte Reload
	movq	%rax, %rdx
	movq	-280(%rbp), %rax                ## 8-byte Reload
	subq	%rdx, %rcx
	imulq	%rcx, %rax
	addq	-192(%rbp), %rax
	movq	%rax, -192(%rbp)
	jmp	LBB26_27
LBB26_24:
	movq	-248(%rbp), %rdi                ## 8-byte Reload
	callq	__ZNKSt3__115basic_streambufIcNS_11char_traitsIcEEE4gptrEv
	movq	-248(%rbp), %rdi                ## 8-byte Reload
	movq	%rax, -296(%rbp)                ## 8-byte Spill
	callq	__ZNKSt3__115basic_streambufIcNS_11char_traitsIcEEE5egptrEv
	movq	%rax, %rcx
	movq	-296(%rbp), %rax                ## 8-byte Reload
	cmpq	%rcx, %rax
	je	LBB26_26
## %bb.25:
	movq	-248(%rbp), %rdi                ## 8-byte Reload
	movq	128(%rdi), %rax
	movq	%rax, -320(%rbp)                ## 8-byte Spill
	movq	64(%rdi), %rax
	movq	%rax, -312(%rbp)                ## 8-byte Spill
	movq	72(%rdi), %rax
	movq	%rax, -304(%rbp)                ## 8-byte Spill
	callq	__ZNKSt3__115basic_streambufIcNS_11char_traitsIcEEE4gptrEv
	movq	-248(%rbp), %rdi                ## 8-byte Reload
	movq	%rax, -328(%rbp)                ## 8-byte Spill
	callq	__ZNKSt3__115basic_streambufIcNS_11char_traitsIcEEE5ebackEv
	movq	-328(%rbp), %r8                 ## 8-byte Reload
	movq	-320(%rbp), %rdi                ## 8-byte Reload
	movq	-312(%rbp), %rdx                ## 8-byte Reload
	movq	-304(%rbp), %rcx                ## 8-byte Reload
	subq	%rax, %r8
	leaq	-136(%rbp), %rsi
	callq	__ZNKSt3__17codecvtIcc11__mbstate_tE6lengthERS1_PKcS5_m
	movq	-248(%rbp), %rcx                ## 8-byte Reload
	movl	%eax, -204(%rbp)
	movq	72(%rcx), %rax
	movq	64(%rcx), %rcx
	subq	%rcx, %rax
	movslq	-204(%rbp), %rcx
	subq	%rcx, %rax
	addq	-192(%rbp), %rax
	movq	%rax, -192(%rbp)
	movb	$1, -193(%rbp)
LBB26_26:
	jmp	LBB26_27
LBB26_27:
	jmp	LBB26_28
LBB26_28:
	movq	-248(%rbp), %rax                ## 8-byte Reload
	xorl	%ecx, %ecx
	movl	%ecx, %esi
	movq	120(%rax), %rdi
	subq	-192(%rbp), %rsi
	movl	$1, %edx
	callq	_fseeko
	cmpl	$0, %eax
	je	LBB26_30
## %bb.29:
	movl	$-1, -140(%rbp)
	jmp	LBB26_35
LBB26_30:
	testb	$1, -193(%rbp)
	je	LBB26_32
## %bb.31:
	movq	-248(%rbp), %rdi                ## 8-byte Reload
	addq	$136, %rdi
	leaq	-136(%rbp), %rsi
	movl	$128, %edx
	callq	_memcpy
LBB26_32:
	movq	-248(%rbp), %rax                ## 8-byte Reload
	movq	64(%rax), %rcx
	movq	%rcx, 80(%rax)
	movq	%rcx, 72(%rax)
	movq	%rax, -352(%rbp)                ## 8-byte Spill
	callq	__ZNSt3__1L15__get_nullptr_tEv
	movq	%rax, -216(%rbp)
	leaq	-216(%rbp), %rdi
	callq	__ZNKSt3__19nullptr_tcvPT_IcEEv
	movq	%rax, -344(%rbp)                ## 8-byte Spill
	callq	__ZNSt3__1L15__get_nullptr_tEv
	movq	%rax, -224(%rbp)
	leaq	-224(%rbp), %rdi
	callq	__ZNKSt3__19nullptr_tcvPT_IcEEv
	movq	%rax, -336(%rbp)                ## 8-byte Spill
	callq	__ZNSt3__1L15__get_nullptr_tEv
	movq	%rax, -232(%rbp)
	leaq	-232(%rbp), %rdi
	callq	__ZNKSt3__19nullptr_tcvPT_IcEEv
	movq	-352(%rbp), %rdi                ## 8-byte Reload
	movq	-344(%rbp), %rsi                ## 8-byte Reload
	movq	-336(%rbp), %rdx                ## 8-byte Reload
	movq	%rax, %rcx
	callq	__ZNSt3__115basic_streambufIcNS_11char_traitsIcEEE4setgEPcS4_S4_
	movq	-248(%rbp), %rax                ## 8-byte Reload
	movl	$0, 396(%rax)
LBB26_33:
	jmp	LBB26_34
LBB26_34:
	movl	$0, -140(%rbp)
LBB26_35:
	movl	-140(%rbp), %eax
	movl	%eax, -356(%rbp)                ## 4-byte Spill
	movq	___stack_chk_guard@GOTPCREL(%rip), %rax
	movq	(%rax), %rax
	movq	-8(%rbp), %rcx
	cmpq	%rcx, %rax
	jne	LBB26_37
## %bb.36:
	movl	-356(%rbp), %eax                ## 4-byte Reload
	addq	$368, %rsp                      ## imm = 0x170
	popq	%rbp
	retq
LBB26_37:
	callq	___stack_chk_fail
	ud2
	.cfi_endproc
                                        ## -- End function
	.globl	__ZNSt3__113basic_filebufIcNS_11char_traitsIcEEE9underflowEv ## -- Begin function _ZNSt3__113basic_filebufIcNS_11char_traitsIcEEE9underflowEv
	.weak_def_can_be_hidden	__ZNSt3__113basic_filebufIcNS_11char_traitsIcEEE9underflowEv
	.p2align	4, 0x90
__ZNSt3__113basic_filebufIcNS_11char_traitsIcEEE9underflowEv: ## @_ZNSt3__113basic_filebufIcNS_11char_traitsIcEEE9underflowEv
	.cfi_startproc
## %bb.0:
	pushq	%rbp
	.cfi_def_cfa_offset 16
	.cfi_offset %rbp, -16
	movq	%rsp, %rbp
	.cfi_def_cfa_register %rbp
	subq	$368, %rsp                      ## imm = 0x170
	movq	%rdi, -16(%rbp)
	movq	-16(%rbp), %rax
	movq	%rax, -168(%rbp)                ## 8-byte Spill
	movq	120(%rax), %rax
	movq	%rax, -160(%rbp)                ## 8-byte Spill
	callq	__ZNSt3__1L15__get_nullptr_tEv
	movq	%rax, -24(%rbp)
	leaq	-24(%rbp), %rdi
	callq	__ZNKSt3__19nullptr_tcvPT_I7__sFILEEEv
	movq	%rax, %rcx
	movq	-160(%rbp), %rax                ## 8-byte Reload
	cmpq	%rcx, %rax
	jne	LBB27_2
## %bb.1:
	callq	__ZNSt3__111char_traitsIcE3eofEv
	movl	%eax, -4(%rbp)
	jmp	LBB27_32
LBB27_2:
	movq	-168(%rbp), %rdi                ## 8-byte Reload
	callq	__ZNSt3__113basic_filebufIcNS_11char_traitsIcEEE11__read_modeEv
	movq	-168(%rbp), %rdi                ## 8-byte Reload
	andb	$1, %al
	movb	%al, -25(%rbp)
	callq	__ZNKSt3__115basic_streambufIcNS_11char_traitsIcEEE4gptrEv
	movq	%rax, -176(%rbp)                ## 8-byte Spill
	callq	__ZNSt3__1L15__get_nullptr_tEv
	movq	%rax, -40(%rbp)
	leaq	-40(%rbp), %rdi
	callq	__ZNKSt3__19nullptr_tcvPT_IcEEv
	movq	%rax, %rcx
	movq	-176(%rbp), %rax                ## 8-byte Reload
	cmpq	%rcx, %rax
	jne	LBB27_4
## %bb.3:
	movq	-168(%rbp), %rdi                ## 8-byte Reload
	leaq	-26(%rbp), %rsi
	movq	%rsi, %rdx
	addq	$1, %rdx
	movq	%rsi, %rcx
	addq	$1, %rcx
	callq	__ZNSt3__115basic_streambufIcNS_11char_traitsIcEEE4setgEPcS4_S4_
LBB27_4:
	testb	$1, -25(%rbp)
	je	LBB27_6
## %bb.5:
	xorl	%eax, %eax
                                        ## kill: def $rax killed $eax
	movq	%rax, -184(%rbp)                ## 8-byte Spill
	jmp	LBB27_7
LBB27_6:
	movq	-168(%rbp), %rdi                ## 8-byte Reload
	callq	__ZNKSt3__115basic_streambufIcNS_11char_traitsIcEEE5egptrEv
	movq	-168(%rbp), %rdi                ## 8-byte Reload
	movq	%rax, -192(%rbp)                ## 8-byte Spill
	callq	__ZNKSt3__115basic_streambufIcNS_11char_traitsIcEEE5ebackEv
	movq	%rax, %rcx
	movq	-192(%rbp), %rax                ## 8-byte Reload
	subq	%rcx, %rax
	cqto
	movl	$2, %ecx
	idivq	%rcx
	movq	%rax, -56(%rbp)
	movq	$4, -64(%rbp)
	leaq	-56(%rbp), %rdi
	leaq	-64(%rbp), %rsi
	callq	__ZNSt3__1L3minImEERKT_S3_S3_
	movq	(%rax), %rax
	movq	%rax, -184(%rbp)                ## 8-byte Spill
LBB27_7:
	movq	-184(%rbp), %rax                ## 8-byte Reload
	movq	%rax, -48(%rbp)
	callq	__ZNSt3__111char_traitsIcE3eofEv
	movq	-168(%rbp), %rdi                ## 8-byte Reload
	movl	%eax, -68(%rbp)
	callq	__ZNKSt3__115basic_streambufIcNS_11char_traitsIcEEE4gptrEv
	movq	-168(%rbp), %rdi                ## 8-byte Reload
	movq	%rax, -200(%rbp)                ## 8-byte Spill
	callq	__ZNKSt3__115basic_streambufIcNS_11char_traitsIcEEE5egptrEv
	movq	%rax, %rcx
	movq	-200(%rbp), %rax                ## 8-byte Reload
	cmpq	%rcx, %rax
	jne	LBB27_28
## %bb.8:
	movq	-168(%rbp), %rdi                ## 8-byte Reload
	callq	__ZNKSt3__115basic_streambufIcNS_11char_traitsIcEEE5ebackEv
	movq	-168(%rbp), %rdi                ## 8-byte Reload
	movq	%rax, -208(%rbp)                ## 8-byte Spill
	callq	__ZNKSt3__115basic_streambufIcNS_11char_traitsIcEEE5egptrEv
	movq	-208(%rbp), %rdi                ## 8-byte Reload
	movq	%rax, %rsi
	xorl	%eax, %eax
                                        ## kill: def $rax killed $eax
	subq	-48(%rbp), %rax
	addq	%rax, %rsi
	movq	-48(%rbp), %rdx
	shlq	$0, %rdx
	callq	_memmove
                                        ## kill: def $rcx killed $rax
	movq	-168(%rbp), %rax                ## 8-byte Reload
	testb	$1, 402(%rax)
	je	LBB27_12
## %bb.9:
	movq	-168(%rbp), %rdi                ## 8-byte Reload
	callq	__ZNKSt3__115basic_streambufIcNS_11char_traitsIcEEE5egptrEv
	movq	-168(%rbp), %rdi                ## 8-byte Reload
	movq	%rax, -216(%rbp)                ## 8-byte Spill
	callq	__ZNKSt3__115basic_streambufIcNS_11char_traitsIcEEE5ebackEv
	movq	-168(%rbp), %rdi                ## 8-byte Reload
	movq	%rax, %rcx
	movq	-216(%rbp), %rax                ## 8-byte Reload
	subq	%rcx, %rax
	subq	-48(%rbp), %rax
	movq	%rax, -80(%rbp)
	callq	__ZNKSt3__115basic_streambufIcNS_11char_traitsIcEEE5ebackEv
	movq	%rax, %rdi
	movq	-168(%rbp), %rax                ## 8-byte Reload
	addq	-48(%rbp), %rdi
	movq	-80(%rbp), %rdx
	movq	120(%rax), %rcx
	movl	$1, %esi
	callq	_fread
	movq	%rax, -80(%rbp)
	cmpq	$0, -80(%rbp)
	je	LBB27_11
## %bb.10:
	movq	-168(%rbp), %rdi                ## 8-byte Reload
	movq	%rdi, %rax
	movq	%rax, -240(%rbp)                ## 8-byte Spill
	callq	__ZNKSt3__115basic_streambufIcNS_11char_traitsIcEEE5ebackEv
	movq	-168(%rbp), %rdi                ## 8-byte Reload
	movq	%rax, -232(%rbp)                ## 8-byte Spill
	callq	__ZNKSt3__115basic_streambufIcNS_11char_traitsIcEEE5ebackEv
	movq	-168(%rbp), %rdi                ## 8-byte Reload
	addq	-48(%rbp), %rax
	movq	%rax, -224(%rbp)                ## 8-byte Spill
	callq	__ZNKSt3__115basic_streambufIcNS_11char_traitsIcEEE5ebackEv
	movq	-240(%rbp), %rdi                ## 8-byte Reload
	movq	-232(%rbp), %rsi                ## 8-byte Reload
	movq	-224(%rbp), %rdx                ## 8-byte Reload
	movq	%rax, %rcx
	addq	-48(%rbp), %rcx
	addq	-80(%rbp), %rcx
	callq	__ZNSt3__115basic_streambufIcNS_11char_traitsIcEEE4setgEPcS4_S4_
	movq	-168(%rbp), %rdi                ## 8-byte Reload
	callq	__ZNKSt3__115basic_streambufIcNS_11char_traitsIcEEE4gptrEv
	movsbl	(%rax), %edi
	callq	__ZNSt3__111char_traitsIcE11to_int_typeEc
	movl	%eax, -68(%rbp)
LBB27_11:
	jmp	LBB27_27
LBB27_12:
	movq	-168(%rbp), %rcx                ## 8-byte Reload
	movq	80(%rcx), %rax
	cmpq	72(%rcx), %rax
	je	LBB27_14
## %bb.13:
	movq	-168(%rbp), %rax                ## 8-byte Reload
	movq	64(%rax), %rdi
	movq	72(%rax), %rsi
	movq	80(%rax), %rdx
	movq	72(%rax), %rax
	subq	%rax, %rdx
	callq	_memmove
LBB27_14:
	movq	-168(%rbp), %rcx                ## 8-byte Reload
	movq	64(%rcx), %rax
	movq	80(%rcx), %rdx
	movq	72(%rcx), %rsi
	subq	%rsi, %rdx
	addq	%rdx, %rax
	movq	%rax, 72(%rcx)
	movq	64(%rcx), %rax
	movq	%rax, -248(%rbp)                ## 8-byte Spill
	movq	64(%rcx), %rax
	addq	$88, %rcx
	cmpq	%rcx, %rax
	jne	LBB27_16
## %bb.15:
	movl	$8, %eax
	movq	%rax, -256(%rbp)                ## 8-byte Spill
	jmp	LBB27_17
LBB27_16:
	movq	-168(%rbp), %rax                ## 8-byte Reload
	movq	96(%rax), %rax
	movq	%rax, -256(%rbp)                ## 8-byte Spill
LBB27_17:
	movq	-168(%rbp), %rcx                ## 8-byte Reload
	movq	-248(%rbp), %rax                ## 8-byte Reload
	movq	-256(%rbp), %rdx                ## 8-byte Reload
	addq	%rdx, %rax
	movq	%rax, 80(%rcx)
	movq	112(%rcx), %rax
	subq	-48(%rbp), %rax
	movq	%rax, -96(%rbp)
	movq	80(%rcx), %rax
	movq	72(%rcx), %rcx
	subq	%rcx, %rax
	movq	%rax, -104(%rbp)
	leaq	-96(%rbp), %rdi
	leaq	-104(%rbp), %rsi
	callq	__ZNSt3__1L3minImEERKT_S3_S3_
	movq	-168(%rbp), %rdi                ## 8-byte Reload
	movq	(%rax), %rax
	movq	%rax, -88(%rbp)
	movq	%rdi, %rsi
	addq	$136, %rsi
	addq	$264, %rdi                      ## imm = 0x108
	movl	$128, %edx
	callq	_memcpy
	movq	-168(%rbp), %rax                ## 8-byte Reload
	movq	72(%rax), %rdi
	movq	-88(%rbp), %rdx
	movq	120(%rax), %rcx
	movl	$1, %esi
	callq	_fread
	movq	%rax, -120(%rbp)
	cmpq	$0, -120(%rbp)
	je	LBB27_26
## %bb.18:
	movq	-168(%rbp), %rax                ## 8-byte Reload
	cmpq	$0, 128(%rax)
	jne	LBB27_20
## %bb.19:
	callq	__ZNSt3__1L16__throw_bad_castEv
LBB27_20:
	movq	-168(%rbp), %rdi                ## 8-byte Reload
	movq	72(%rdi), %rax
	addq	-120(%rbp), %rax
	movq	%rax, 80(%rdi)
	movq	128(%rdi), %rax
	movq	%rax, -304(%rbp)                ## 8-byte Spill
	movq	%rdi, %rax
	addq	$136, %rax
	movq	%rax, -296(%rbp)                ## 8-byte Spill
	movq	64(%rdi), %rax
	movq	%rax, -288(%rbp)                ## 8-byte Spill
	movq	80(%rdi), %rax
	movq	%rax, -280(%rbp)                ## 8-byte Spill
	movq	%rdi, %rax
	addq	$72, %rax
	movq	%rax, -272(%rbp)                ## 8-byte Spill
	callq	__ZNKSt3__115basic_streambufIcNS_11char_traitsIcEEE5ebackEv
	movq	-168(%rbp), %rdi                ## 8-byte Reload
	addq	-48(%rbp), %rax
	movq	%rax, -264(%rbp)                ## 8-byte Spill
	callq	__ZNKSt3__115basic_streambufIcNS_11char_traitsIcEEE5ebackEv
	movq	-168(%rbp), %r10                ## 8-byte Reload
	movq	-304(%rbp), %rdi                ## 8-byte Reload
	movq	-296(%rbp), %rsi                ## 8-byte Reload
	movq	-288(%rbp), %rdx                ## 8-byte Reload
	movq	-280(%rbp), %rcx                ## 8-byte Reload
	movq	-272(%rbp), %r8                 ## 8-byte Reload
	movq	-264(%rbp), %r9                 ## 8-byte Reload
	addq	112(%r10), %rax
	movq	%rax, (%rsp)
	leaq	-128(%rbp), %rax
	movq	%rax, 8(%rsp)
	callq	__ZNKSt3__17codecvtIcc11__mbstate_tE2inERS1_PKcS5_RS5_PcS7_RS7_
	movl	%eax, -108(%rbp)
	cmpl	$3, -108(%rbp)
	jne	LBB27_22
## %bb.21:
	movq	-168(%rbp), %rax                ## 8-byte Reload
	movq	%rax, %rdi
	movq	64(%rax), %rsi
	movq	64(%rax), %rdx
	movq	80(%rax), %rcx
	callq	__ZNSt3__115basic_streambufIcNS_11char_traitsIcEEE4setgEPcS4_S4_
	movq	-168(%rbp), %rdi                ## 8-byte Reload
	callq	__ZNKSt3__115basic_streambufIcNS_11char_traitsIcEEE4gptrEv
	movsbl	(%rax), %edi
	callq	__ZNSt3__111char_traitsIcE11to_int_typeEc
	movl	%eax, -68(%rbp)
	jmp	LBB27_25
LBB27_22:
	movq	-168(%rbp), %rdi                ## 8-byte Reload
	movq	-128(%rbp), %rax
	movq	%rax, -312(%rbp)                ## 8-byte Spill
	callq	__ZNKSt3__115basic_streambufIcNS_11char_traitsIcEEE5ebackEv
	movq	%rax, %rcx
	movq	-312(%rbp), %rax                ## 8-byte Reload
	addq	-48(%rbp), %rcx
	cmpq	%rcx, %rax
	je	LBB27_24
## %bb.23:
	movq	-168(%rbp), %rdi                ## 8-byte Reload
	movq	%rdi, %rax
	movq	%rax, -328(%rbp)                ## 8-byte Spill
	callq	__ZNKSt3__115basic_streambufIcNS_11char_traitsIcEEE5ebackEv
	movq	-168(%rbp), %rdi                ## 8-byte Reload
	movq	%rax, -320(%rbp)                ## 8-byte Spill
	callq	__ZNKSt3__115basic_streambufIcNS_11char_traitsIcEEE5ebackEv
	movq	-328(%rbp), %rdi                ## 8-byte Reload
	movq	-320(%rbp), %rsi                ## 8-byte Reload
	movq	%rax, %rdx
	addq	-48(%rbp), %rdx
	movq	-128(%rbp), %rcx
	callq	__ZNSt3__115basic_streambufIcNS_11char_traitsIcEEE4setgEPcS4_S4_
	movq	-168(%rbp), %rdi                ## 8-byte Reload
	callq	__ZNKSt3__115basic_streambufIcNS_11char_traitsIcEEE4gptrEv
	movsbl	(%rax), %edi
	callq	__ZNSt3__111char_traitsIcE11to_int_typeEc
	movl	%eax, -68(%rbp)
LBB27_24:
	jmp	LBB27_25
LBB27_25:
	jmp	LBB27_26
LBB27_26:
	jmp	LBB27_27
LBB27_27:
	jmp	LBB27_29
LBB27_28:
	movq	-168(%rbp), %rdi                ## 8-byte Reload
	callq	__ZNKSt3__115basic_streambufIcNS_11char_traitsIcEEE4gptrEv
	movsbl	(%rax), %edi
	callq	__ZNSt3__111char_traitsIcE11to_int_typeEc
	movl	%eax, -68(%rbp)
LBB27_29:
	movq	-168(%rbp), %rdi                ## 8-byte Reload
	callq	__ZNKSt3__115basic_streambufIcNS_11char_traitsIcEEE5ebackEv
	leaq	-26(%rbp), %rcx
	cmpq	%rcx, %rax
	jne	LBB27_31
## %bb.30:
	movq	-168(%rbp), %rax                ## 8-byte Reload
	movq	%rax, -352(%rbp)                ## 8-byte Spill
	callq	__ZNSt3__1L15__get_nullptr_tEv
	movq	%rax, -136(%rbp)
	leaq	-136(%rbp), %rdi
	callq	__ZNKSt3__19nullptr_tcvPT_IcEEv
	movq	%rax, -344(%rbp)                ## 8-byte Spill
	callq	__ZNSt3__1L15__get_nullptr_tEv
	movq	%rax, -144(%rbp)
	leaq	-144(%rbp), %rdi
	callq	__ZNKSt3__19nullptr_tcvPT_IcEEv
	movq	%rax, -336(%rbp)                ## 8-byte Spill
	callq	__ZNSt3__1L15__get_nullptr_tEv
	movq	%rax, -152(%rbp)
	leaq	-152(%rbp), %rdi
	callq	__ZNKSt3__19nullptr_tcvPT_IcEEv
	movq	-352(%rbp), %rdi                ## 8-byte Reload
	movq	-344(%rbp), %rsi                ## 8-byte Reload
	movq	-336(%rbp), %rdx                ## 8-byte Reload
	movq	%rax, %rcx
	callq	__ZNSt3__115basic_streambufIcNS_11char_traitsIcEEE4setgEPcS4_S4_
LBB27_31:
	movl	-68(%rbp), %eax
	movl	%eax, -4(%rbp)
LBB27_32:
	movl	-4(%rbp), %eax
	addq	$368, %rsp                      ## imm = 0x170
	popq	%rbp
	retq
	.cfi_endproc
                                        ## -- End function
	.globl	__ZNSt3__113basic_filebufIcNS_11char_traitsIcEEE9pbackfailEi ## -- Begin function _ZNSt3__113basic_filebufIcNS_11char_traitsIcEEE9pbackfailEi
	.weak_def_can_be_hidden	__ZNSt3__113basic_filebufIcNS_11char_traitsIcEEE9pbackfailEi
	.p2align	4, 0x90
__ZNSt3__113basic_filebufIcNS_11char_traitsIcEEE9pbackfailEi: ## @_ZNSt3__113basic_filebufIcNS_11char_traitsIcEEE9pbackfailEi
	.cfi_startproc
## %bb.0:
	pushq	%rbp
	.cfi_def_cfa_offset 16
	.cfi_offset %rbp, -16
	movq	%rsp, %rbp
	.cfi_def_cfa_register %rbp
	subq	$48, %rsp
	movq	%rdi, -16(%rbp)
	movl	%esi, -20(%rbp)
	movq	-16(%rbp), %rax
	movq	%rax, -32(%rbp)                 ## 8-byte Spill
	cmpq	$0, 120(%rax)
	je	LBB28_8
## %bb.1:
	movq	-32(%rbp), %rdi                 ## 8-byte Reload
	callq	__ZNKSt3__115basic_streambufIcNS_11char_traitsIcEEE5ebackEv
	movq	-32(%rbp), %rdi                 ## 8-byte Reload
	movq	%rax, -40(%rbp)                 ## 8-byte Spill
	callq	__ZNKSt3__115basic_streambufIcNS_11char_traitsIcEEE4gptrEv
	movq	%rax, %rcx
	movq	-40(%rbp), %rax                 ## 8-byte Reload
	cmpq	%rcx, %rax
	jae	LBB28_8
## %bb.2:
	movl	-20(%rbp), %eax
	movl	%eax, -44(%rbp)                 ## 4-byte Spill
	callq	__ZNSt3__111char_traitsIcE3eofEv
	movl	-44(%rbp), %edi                 ## 4-byte Reload
	movl	%eax, %esi
	callq	__ZNSt3__111char_traitsIcE11eq_int_typeEii
	testb	$1, %al
	jne	LBB28_3
	jmp	LBB28_4
LBB28_3:
	movq	-32(%rbp), %rdi                 ## 8-byte Reload
	movl	$4294967295, %esi               ## imm = 0xFFFFFFFF
	callq	__ZNSt3__115basic_streambufIcNS_11char_traitsIcEEE5gbumpEi
	movl	-20(%rbp), %edi
	callq	__ZNSt3__111char_traitsIcE7not_eofEi
	movl	%eax, -4(%rbp)
	jmp	LBB28_9
LBB28_4:
	movq	-32(%rbp), %rax                 ## 8-byte Reload
	movl	392(%rax), %eax
	andl	$16, %eax
	cmpl	$0, %eax
	jne	LBB28_6
## %bb.5:
	movl	-20(%rbp), %edi
	callq	__ZNSt3__111char_traitsIcE12to_char_typeEi
	movq	-32(%rbp), %rdi                 ## 8-byte Reload
	movb	%al, -45(%rbp)                  ## 1-byte Spill
	callq	__ZNKSt3__115basic_streambufIcNS_11char_traitsIcEEE4gptrEv
	movb	-45(%rbp), %cl                  ## 1-byte Reload
	movsbl	%cl, %edi
	movsbl	-1(%rax), %esi
	callq	__ZNSt3__111char_traitsIcE2eqEcc
	testb	$1, %al
	jne	LBB28_6
	jmp	LBB28_7
LBB28_6:
	movq	-32(%rbp), %rdi                 ## 8-byte Reload
	movl	$4294967295, %esi               ## imm = 0xFFFFFFFF
	callq	__ZNSt3__115basic_streambufIcNS_11char_traitsIcEEE5gbumpEi
	movl	-20(%rbp), %edi
	callq	__ZNSt3__111char_traitsIcE12to_char_typeEi
	movq	-32(%rbp), %rdi                 ## 8-byte Reload
	movb	%al, -46(%rbp)                  ## 1-byte Spill
	callq	__ZNKSt3__115basic_streambufIcNS_11char_traitsIcEEE4gptrEv
	movb	-46(%rbp), %cl                  ## 1-byte Reload
	movb	%cl, (%rax)
	movl	-20(%rbp), %eax
	movl	%eax, -4(%rbp)
	jmp	LBB28_9
LBB28_7:
	jmp	LBB28_8
LBB28_8:
	callq	__ZNSt3__111char_traitsIcE3eofEv
	movl	%eax, -4(%rbp)
LBB28_9:
	movl	-4(%rbp), %eax
	addq	$48, %rsp
	popq	%rbp
	retq
	.cfi_endproc
                                        ## -- End function
	.globl	__ZNSt3__113basic_filebufIcNS_11char_traitsIcEEE8overflowEi ## -- Begin function _ZNSt3__113basic_filebufIcNS_11char_traitsIcEEE8overflowEi
	.weak_def_can_be_hidden	__ZNSt3__113basic_filebufIcNS_11char_traitsIcEEE8overflowEi
	.p2align	4, 0x90
__ZNSt3__113basic_filebufIcNS_11char_traitsIcEEE8overflowEi: ## @_ZNSt3__113basic_filebufIcNS_11char_traitsIcEEE8overflowEi
	.cfi_startproc
## %bb.0:
	pushq	%rbp
	.cfi_def_cfa_offset 16
	.cfi_offset %rbp, -16
	movq	%rsp, %rbp
	.cfi_def_cfa_register %rbp
	subq	$256, %rsp                      ## imm = 0x100
	movq	%rdi, -16(%rbp)
	movl	%esi, -20(%rbp)
	movq	-16(%rbp), %rax
	movq	%rax, -128(%rbp)                ## 8-byte Spill
	movq	120(%rax), %rax
	movq	%rax, -120(%rbp)                ## 8-byte Spill
	callq	__ZNSt3__1L15__get_nullptr_tEv
	movq	%rax, -32(%rbp)
	leaq	-32(%rbp), %rdi
	callq	__ZNKSt3__19nullptr_tcvPT_I7__sFILEEEv
	movq	%rax, %rcx
	movq	-120(%rbp), %rax                ## 8-byte Reload
	cmpq	%rcx, %rax
	jne	LBB29_2
## %bb.1:
	callq	__ZNSt3__111char_traitsIcE3eofEv
	movl	%eax, -4(%rbp)
	jmp	LBB29_34
LBB29_2:
	movq	-128(%rbp), %rdi                ## 8-byte Reload
	callq	__ZNSt3__113basic_filebufIcNS_11char_traitsIcEEE12__write_modeEv
	movq	-128(%rbp), %rdi                ## 8-byte Reload
	callq	__ZNKSt3__115basic_streambufIcNS_11char_traitsIcEEE5pbaseEv
	movq	-128(%rbp), %rdi                ## 8-byte Reload
	movq	%rax, -48(%rbp)
	callq	__ZNKSt3__115basic_streambufIcNS_11char_traitsIcEEE5epptrEv
	movq	%rax, -56(%rbp)
	movl	-20(%rbp), %eax
	movl	%eax, -132(%rbp)                ## 4-byte Spill
	callq	__ZNSt3__111char_traitsIcE3eofEv
	movl	-132(%rbp), %edi                ## 4-byte Reload
	movl	%eax, %esi
	callq	__ZNSt3__111char_traitsIcE11eq_int_typeEii
	testb	$1, %al
	jne	LBB29_6
## %bb.3:
	movq	-128(%rbp), %rdi                ## 8-byte Reload
	callq	__ZNKSt3__115basic_streambufIcNS_11char_traitsIcEEE4pptrEv
	movq	%rax, -144(%rbp)                ## 8-byte Spill
	callq	__ZNSt3__1L15__get_nullptr_tEv
	movq	%rax, -64(%rbp)
	leaq	-64(%rbp), %rdi
	callq	__ZNKSt3__19nullptr_tcvPT_IcEEv
	movq	%rax, %rcx
	movq	-144(%rbp), %rax                ## 8-byte Reload
	cmpq	%rcx, %rax
	jne	LBB29_5
## %bb.4:
	movq	-128(%rbp), %rdi                ## 8-byte Reload
	leaq	-33(%rbp), %rsi
	movq	%rsi, %rdx
	addq	$1, %rdx
	callq	__ZNSt3__115basic_streambufIcNS_11char_traitsIcEEE4setpEPcS4_
LBB29_5:
	movl	-20(%rbp), %edi
	callq	__ZNSt3__111char_traitsIcE12to_char_typeEi
	movq	-128(%rbp), %rdi                ## 8-byte Reload
	movb	%al, -145(%rbp)                 ## 1-byte Spill
	callq	__ZNKSt3__115basic_streambufIcNS_11char_traitsIcEEE4pptrEv
	movb	-145(%rbp), %cl                 ## 1-byte Reload
	movq	-128(%rbp), %rdi                ## 8-byte Reload
	movb	%cl, (%rax)
	movl	$1, %esi
	callq	__ZNSt3__115basic_streambufIcNS_11char_traitsIcEEE5pbumpEi
LBB29_6:
	movq	-128(%rbp), %rdi                ## 8-byte Reload
	callq	__ZNKSt3__115basic_streambufIcNS_11char_traitsIcEEE4pptrEv
	movq	-128(%rbp), %rdi                ## 8-byte Reload
	movq	%rax, -160(%rbp)                ## 8-byte Spill
	callq	__ZNKSt3__115basic_streambufIcNS_11char_traitsIcEEE5pbaseEv
	movq	%rax, %rcx
	movq	-160(%rbp), %rax                ## 8-byte Reload
	cmpq	%rcx, %rax
	je	LBB29_33
## %bb.7:
	movq	-128(%rbp), %rax                ## 8-byte Reload
	testb	$1, 402(%rax)
	je	LBB29_11
## %bb.8:
	movq	-128(%rbp), %rdi                ## 8-byte Reload
	callq	__ZNKSt3__115basic_streambufIcNS_11char_traitsIcEEE4pptrEv
	movq	-128(%rbp), %rdi                ## 8-byte Reload
	movq	%rax, -168(%rbp)                ## 8-byte Spill
	callq	__ZNKSt3__115basic_streambufIcNS_11char_traitsIcEEE5pbaseEv
	movq	-128(%rbp), %rdi                ## 8-byte Reload
	movq	%rax, %rcx
	movq	-168(%rbp), %rax                ## 8-byte Reload
	subq	%rcx, %rax
	movq	%rax, -72(%rbp)
	callq	__ZNKSt3__115basic_streambufIcNS_11char_traitsIcEEE5pbaseEv
	movq	%rax, %rdi
	movq	-128(%rbp), %rax                ## 8-byte Reload
	movq	-72(%rbp), %rdx
	movq	120(%rax), %rcx
	movl	$1, %esi
	callq	_fwrite
	cmpq	-72(%rbp), %rax
	je	LBB29_10
## %bb.9:
	callq	__ZNSt3__111char_traitsIcE3eofEv
	movl	%eax, -4(%rbp)
	jmp	LBB29_34
LBB29_10:
	jmp	LBB29_32
LBB29_11:
	movq	-128(%rbp), %rax                ## 8-byte Reload
	movq	64(%rax), %rax
	movq	%rax, -80(%rbp)
LBB29_12:                               ## =>This Inner Loop Header: Depth=1
	movq	-128(%rbp), %rax                ## 8-byte Reload
	cmpq	$0, 128(%rax)
	jne	LBB29_14
## %bb.13:
	callq	__ZNSt3__1L16__throw_bad_castEv
LBB29_14:                               ##   in Loop: Header=BB29_12 Depth=1
	movq	-128(%rbp), %rdi                ## 8-byte Reload
	movq	128(%rdi), %rax
	movq	%rax, -200(%rbp)                ## 8-byte Spill
	movq	%rdi, %rax
	addq	$136, %rax
	movq	%rax, -192(%rbp)                ## 8-byte Spill
	callq	__ZNKSt3__115basic_streambufIcNS_11char_traitsIcEEE5pbaseEv
	movq	-128(%rbp), %rdi                ## 8-byte Reload
	movq	%rax, -184(%rbp)                ## 8-byte Spill
	callq	__ZNKSt3__115basic_streambufIcNS_11char_traitsIcEEE4pptrEv
	movq	-200(%rbp), %rdi                ## 8-byte Reload
	movq	-192(%rbp), %rsi                ## 8-byte Reload
	movq	-184(%rbp), %rdx                ## 8-byte Reload
	movq	-128(%rbp), %r8                 ## 8-byte Reload
	movq	%rax, %rcx
	movq	64(%r8), %r9
	movq	64(%r8), %rax
	addq	96(%r8), %rax
	leaq	-96(%rbp), %r8
	movq	%rax, (%rsp)
	leaq	-80(%rbp), %rax
	movq	%rax, 8(%rsp)
	callq	__ZNKSt3__17codecvtIcc11__mbstate_tE3outERS1_PKcS5_RS5_PcS7_RS7_
	movq	-128(%rbp), %rdi                ## 8-byte Reload
	movl	%eax, -84(%rbp)
	movq	-96(%rbp), %rax
	movq	%rax, -176(%rbp)                ## 8-byte Spill
	callq	__ZNKSt3__115basic_streambufIcNS_11char_traitsIcEEE5pbaseEv
	movq	%rax, %rcx
	movq	-176(%rbp), %rax                ## 8-byte Reload
	cmpq	%rcx, %rax
	jne	LBB29_16
## %bb.15:
	callq	__ZNSt3__111char_traitsIcE3eofEv
	movl	%eax, -4(%rbp)
	jmp	LBB29_34
LBB29_16:                               ##   in Loop: Header=BB29_12 Depth=1
	cmpl	$3, -84(%rbp)
	jne	LBB29_20
## %bb.17:                              ##   in Loop: Header=BB29_12 Depth=1
	movq	-128(%rbp), %rdi                ## 8-byte Reload
	callq	__ZNKSt3__115basic_streambufIcNS_11char_traitsIcEEE4pptrEv
	movq	-128(%rbp), %rdi                ## 8-byte Reload
	movq	%rax, -208(%rbp)                ## 8-byte Spill
	callq	__ZNKSt3__115basic_streambufIcNS_11char_traitsIcEEE5pbaseEv
	movq	-128(%rbp), %rdi                ## 8-byte Reload
	movq	%rax, %rcx
	movq	-208(%rbp), %rax                ## 8-byte Reload
	subq	%rcx, %rax
	movq	%rax, -104(%rbp)
	callq	__ZNKSt3__115basic_streambufIcNS_11char_traitsIcEEE5pbaseEv
	movq	%rax, %rdi
	movq	-128(%rbp), %rax                ## 8-byte Reload
	movq	-104(%rbp), %rdx
	movq	120(%rax), %rcx
	movl	$1, %esi
	callq	_fwrite
	cmpq	-104(%rbp), %rax
	je	LBB29_19
## %bb.18:
	callq	__ZNSt3__111char_traitsIcE3eofEv
	movl	%eax, -4(%rbp)
	jmp	LBB29_34
LBB29_19:                               ##   in Loop: Header=BB29_12 Depth=1
	jmp	LBB29_29
LBB29_20:                               ##   in Loop: Header=BB29_12 Depth=1
	cmpl	$0, -84(%rbp)
	je	LBB29_22
## %bb.21:                              ##   in Loop: Header=BB29_12 Depth=1
	cmpl	$1, -84(%rbp)
	jne	LBB29_27
LBB29_22:                               ##   in Loop: Header=BB29_12 Depth=1
	movq	-128(%rbp), %rax                ## 8-byte Reload
	movq	-80(%rbp), %rcx
	movq	64(%rax), %rdx
	subq	%rdx, %rcx
	movq	%rcx, -112(%rbp)
	movq	64(%rax), %rdi
	movq	-112(%rbp), %rdx
	movq	120(%rax), %rcx
	movl	$1, %esi
	callq	_fwrite
	cmpq	-112(%rbp), %rax
	je	LBB29_24
## %bb.23:
	callq	__ZNSt3__111char_traitsIcE3eofEv
	movl	%eax, -4(%rbp)
	jmp	LBB29_34
LBB29_24:                               ##   in Loop: Header=BB29_12 Depth=1
	cmpl	$1, -84(%rbp)
	jne	LBB29_26
## %bb.25:                              ##   in Loop: Header=BB29_12 Depth=1
	movq	-128(%rbp), %rdi                ## 8-byte Reload
	movq	%rdi, %rax
	movq	%rax, -240(%rbp)                ## 8-byte Spill
	movq	-96(%rbp), %rax
	movq	%rax, -232(%rbp)                ## 8-byte Spill
	callq	__ZNKSt3__115basic_streambufIcNS_11char_traitsIcEEE4pptrEv
	movq	-240(%rbp), %rdi                ## 8-byte Reload
	movq	-232(%rbp), %rsi                ## 8-byte Reload
	movq	%rax, %rdx
	callq	__ZNSt3__115basic_streambufIcNS_11char_traitsIcEEE4setpEPcS4_
	movq	-128(%rbp), %rdi                ## 8-byte Reload
	movq	%rdi, %rax
	movq	%rax, -216(%rbp)                ## 8-byte Spill
	callq	__ZNKSt3__115basic_streambufIcNS_11char_traitsIcEEE5epptrEv
	movq	-128(%rbp), %rdi                ## 8-byte Reload
	movq	%rax, -224(%rbp)                ## 8-byte Spill
	callq	__ZNKSt3__115basic_streambufIcNS_11char_traitsIcEEE5pbaseEv
	movq	-224(%rbp), %rsi                ## 8-byte Reload
	movq	-216(%rbp), %rdi                ## 8-byte Reload
	subq	%rax, %rsi
	callq	__ZNSt3__115basic_streambufIcNS_11char_traitsIcEEE7__pbumpEl
LBB29_26:                               ##   in Loop: Header=BB29_12 Depth=1
	jmp	LBB29_28
LBB29_27:
	callq	__ZNSt3__111char_traitsIcE3eofEv
	movl	%eax, -4(%rbp)
	jmp	LBB29_34
LBB29_28:                               ##   in Loop: Header=BB29_12 Depth=1
	jmp	LBB29_29
LBB29_29:                               ##   in Loop: Header=BB29_12 Depth=1
	jmp	LBB29_30
LBB29_30:                               ##   in Loop: Header=BB29_12 Depth=1
	cmpl	$1, -84(%rbp)
	je	LBB29_12
## %bb.31:
	jmp	LBB29_32
LBB29_32:
	movq	-128(%rbp), %rdi                ## 8-byte Reload
	movq	-48(%rbp), %rsi
	movq	-56(%rbp), %rdx
	callq	__ZNSt3__115basic_streambufIcNS_11char_traitsIcEEE4setpEPcS4_
LBB29_33:
	movl	-20(%rbp), %edi
	callq	__ZNSt3__111char_traitsIcE7not_eofEi
	movl	%eax, -4(%rbp)
LBB29_34:
	movl	-4(%rbp), %eax
	addq	$256, %rsp                      ## imm = 0x100
	popq	%rbp
	retq
	.cfi_endproc
                                        ## -- End function
	.p2align	4, 0x90                         ## -- Begin function _ZNSt3__1L15__get_nullptr_tEv
__ZNSt3__1L15__get_nullptr_tEv:         ## @_ZNSt3__1L15__get_nullptr_tEv
	.cfi_startproc
## %bb.0:
	pushq	%rbp
	.cfi_def_cfa_offset 16
	.cfi_offset %rbp, -16
	movq	%rsp, %rbp
	.cfi_def_cfa_register %rbp
	subq	$16, %rsp
	leaq	-8(%rbp), %rdi
	movq	$-1, %rsi
	callq	__ZNSt3__19nullptr_tC1EMNS0_5__natEi
	movq	-8(%rbp), %rax
	addq	$16, %rsp
	popq	%rbp
	retq
	.cfi_endproc
                                        ## -- End function
	.p2align	4, 0x90                         ## -- Begin function _ZNKSt3__19nullptr_tcvPT_INS_13basic_filebufIcNS_11char_traitsIcEEEEEEv
__ZNKSt3__19nullptr_tcvPT_INS_13basic_filebufIcNS_11char_traitsIcEEEEEEv: ## @_ZNKSt3__19nullptr_tcvPT_INS_13basic_filebufIcNS_11char_traitsIcEEEEEEv
	.cfi_startproc
## %bb.0:
	pushq	%rbp
	.cfi_def_cfa_offset 16
	.cfi_offset %rbp, -16
	movq	%rsp, %rbp
	.cfi_def_cfa_register %rbp
	xorl	%eax, %eax
                                        ## kill: def $rax killed $eax
	movq	%rdi, -8(%rbp)
	popq	%rbp
	retq
	.cfi_endproc
                                        ## -- End function
	.p2align	4, 0x90                         ## -- Begin function _ZNSt3__110unique_ptrI7__sFILEPFiPS1_EEC1ILb1EvEES2_NS_16__dependent_typeINS_27__unique_ptr_deleter_sfinaeIS4_EEXT_EE20__good_rval_ref_typeE
__ZNSt3__110unique_ptrI7__sFILEPFiPS1_EEC1ILb1EvEES2_NS_16__dependent_typeINS_27__unique_ptr_deleter_sfinaeIS4_EEXT_EE20__good_rval_ref_typeE: ## @_ZNSt3__110unique_ptrI7__sFILEPFiPS1_EEC1ILb1EvEES2_NS_16__dependent_typeINS_27__unique_ptr_deleter_sfinaeIS4_EEXT_EE20__good_rval_ref_typeE
	.cfi_startproc
## %bb.0:
	pushq	%rbp
	.cfi_def_cfa_offset 16
	.cfi_offset %rbp, -16
	movq	%rsp, %rbp
	.cfi_def_cfa_register %rbp
	subq	$32, %rsp
	movq	%rdi, -8(%rbp)
	movq	%rsi, -16(%rbp)
	movq	%rdx, -24(%rbp)
	movq	-8(%rbp), %rdi
	movq	-16(%rbp), %rsi
	movq	-24(%rbp), %rdx
	callq	__ZNSt3__110unique_ptrI7__sFILEPFiPS1_EEC2ILb1EvEES2_NS_16__dependent_typeINS_27__unique_ptr_deleter_sfinaeIS4_EEXT_EE20__good_rval_ref_typeE
	addq	$32, %rsp
	popq	%rbp
	retq
	.cfi_endproc
                                        ## -- End function
	.p2align	4, 0x90                         ## -- Begin function _ZNSt3__110unique_ptrI7__sFILEPFiPS1_EE7releaseEv
__ZNSt3__110unique_ptrI7__sFILEPFiPS1_EE7releaseEv: ## @_ZNSt3__110unique_ptrI7__sFILEPFiPS1_EE7releaseEv
	.cfi_startproc
## %bb.0:
	pushq	%rbp
	.cfi_def_cfa_offset 16
	.cfi_offset %rbp, -16
	movq	%rsp, %rbp
	.cfi_def_cfa_register %rbp
	subq	$32, %rsp
	movq	%rdi, -8(%rbp)
	movq	-8(%rbp), %rdi
	movq	%rdi, -24(%rbp)                 ## 8-byte Spill
	callq	__ZNSt3__117__compressed_pairIP7__sFILEPFiS2_EE5firstEv
	movq	-24(%rbp), %rdi                 ## 8-byte Reload
	movq	(%rax), %rax
	movq	%rax, -16(%rbp)
	callq	__ZNSt3__117__compressed_pairIP7__sFILEPFiS2_EE5firstEv
	movq	$0, (%rax)
	movq	-16(%rbp), %rax
	addq	$32, %rsp
	popq	%rbp
	retq
	.cfi_endproc
                                        ## -- End function
	.p2align	4, 0x90                         ## -- Begin function _ZNKSt3__19nullptr_tcvPT_I7__sFILEEEv
__ZNKSt3__19nullptr_tcvPT_I7__sFILEEEv: ## @_ZNKSt3__19nullptr_tcvPT_I7__sFILEEEv
	.cfi_startproc
## %bb.0:
	pushq	%rbp
	.cfi_def_cfa_offset 16
	.cfi_offset %rbp, -16
	movq	%rsp, %rbp
	.cfi_def_cfa_register %rbp
	xorl	%eax, %eax
                                        ## kill: def $rax killed $eax
	movq	%rdi, -8(%rbp)
	popq	%rbp
	retq
	.cfi_endproc
                                        ## -- End function
	.p2align	4, 0x90                         ## -- Begin function _ZNSt3__110unique_ptrI7__sFILEPFiPS1_EED1Ev
__ZNSt3__110unique_ptrI7__sFILEPFiPS1_EED1Ev: ## @_ZNSt3__110unique_ptrI7__sFILEPFiPS1_EED1Ev
	.cfi_startproc
## %bb.0:
	pushq	%rbp
	.cfi_def_cfa_offset 16
	.cfi_offset %rbp, -16
	movq	%rsp, %rbp
	.cfi_def_cfa_register %rbp
	subq	$16, %rsp
	movq	%rdi, -8(%rbp)
	movq	-8(%rbp), %rdi
	callq	__ZNSt3__110unique_ptrI7__sFILEPFiPS1_EED2Ev
	addq	$16, %rsp
	popq	%rbp
	retq
	.cfi_endproc
                                        ## -- End function
	.p2align	4, 0x90                         ## -- Begin function _ZNSt3__19nullptr_tC1EMNS0_5__natEi
__ZNSt3__19nullptr_tC1EMNS0_5__natEi:   ## @_ZNSt3__19nullptr_tC1EMNS0_5__natEi
	.cfi_startproc
## %bb.0:
	pushq	%rbp
	.cfi_def_cfa_offset 16
	.cfi_offset %rbp, -16
	movq	%rsp, %rbp
	.cfi_def_cfa_register %rbp
	subq	$16, %rsp
	movq	%rdi, -8(%rbp)
	movq	%rsi, -16(%rbp)
	movq	-8(%rbp), %rdi
	movq	-16(%rbp), %rsi
	callq	__ZNSt3__19nullptr_tC2EMNS0_5__natEi
	addq	$16, %rsp
	popq	%rbp
	retq
	.cfi_endproc
                                        ## -- End function
	.p2align	4, 0x90                         ## -- Begin function _ZNSt3__19nullptr_tC2EMNS0_5__natEi
__ZNSt3__19nullptr_tC2EMNS0_5__natEi:   ## @_ZNSt3__19nullptr_tC2EMNS0_5__natEi
	.cfi_startproc
## %bb.0:
	pushq	%rbp
	.cfi_def_cfa_offset 16
	.cfi_offset %rbp, -16
	movq	%rsp, %rbp
	.cfi_def_cfa_register %rbp
	movq	%rdi, -8(%rbp)
	movq	%rsi, -16(%rbp)
	movq	-8(%rbp), %rax
	movq	$0, (%rax)
	popq	%rbp
	retq
	.cfi_endproc
                                        ## -- End function
	.p2align	4, 0x90                         ## -- Begin function _ZNSt3__110unique_ptrI7__sFILEPFiPS1_EEC2ILb1EvEES2_NS_16__dependent_typeINS_27__unique_ptr_deleter_sfinaeIS4_EEXT_EE20__good_rval_ref_typeE
__ZNSt3__110unique_ptrI7__sFILEPFiPS1_EEC2ILb1EvEES2_NS_16__dependent_typeINS_27__unique_ptr_deleter_sfinaeIS4_EEXT_EE20__good_rval_ref_typeE: ## @_ZNSt3__110unique_ptrI7__sFILEPFiPS1_EEC2ILb1EvEES2_NS_16__dependent_typeINS_27__unique_ptr_deleter_sfinaeIS4_EEXT_EE20__good_rval_ref_typeE
Lfunc_begin9:
	.cfi_startproc
	.cfi_personality 155, ___gxx_personality_v0
	.cfi_lsda 16, Lexception9
## %bb.0:
	pushq	%rbp
	.cfi_def_cfa_offset 16
	.cfi_offset %rbp, -16
	movq	%rsp, %rbp
	.cfi_def_cfa_register %rbp
	subq	$48, %rsp
	movq	%rdi, -8(%rbp)
	movq	%rsi, -16(%rbp)
	movq	%rdx, -24(%rbp)
	movq	-8(%rbp), %rax
	movq	%rax, -48(%rbp)                 ## 8-byte Spill
	movq	-24(%rbp), %rdi
	callq	__ZNSt3__1L4moveIRPFiP7__sFILEEEEONS_16remove_referenceIT_E4typeEOS7_
	movq	-48(%rbp), %rdi                 ## 8-byte Reload
	movq	%rax, %rdx
Ltmp115:
	leaq	-16(%rbp), %rsi
	callq	__ZNSt3__117__compressed_pairIP7__sFILEPFiS2_EEC1IRS2_S4_EEOT_OT0_
Ltmp116:
	jmp	LBB38_1
LBB38_1:
	addq	$48, %rsp
	popq	%rbp
	retq
LBB38_2:
Ltmp117:
	movq	%rax, %rcx
	movl	%edx, %eax
	movq	%rcx, -32(%rbp)
	movl	%eax, -36(%rbp)
## %bb.3:
	movq	-32(%rbp), %rdi
	callq	___cxa_call_unexpected
Lfunc_end9:
	.cfi_endproc
	.section	__TEXT,__gcc_except_tab
	.p2align	2
GCC_except_table38:
Lexception9:
	.byte	255                             ## @LPStart Encoding = omit
	.byte	155                             ## @TType Encoding = indirect pcrel sdata4
	.uleb128 Lttbase7-Lttbaseref7
Lttbaseref7:
	.byte	1                               ## Call site Encoding = uleb128
	.uleb128 Lcst_end9-Lcst_begin9
Lcst_begin9:
	.uleb128 Ltmp115-Lfunc_begin9           ## >> Call Site 1 <<
	.uleb128 Ltmp116-Ltmp115                ##   Call between Ltmp115 and Ltmp116
	.uleb128 Ltmp117-Lfunc_begin9           ##     jumps to Ltmp117
	.byte	1                               ##   On action: 1
	.uleb128 Ltmp116-Lfunc_begin9           ## >> Call Site 2 <<
	.uleb128 Lfunc_end9-Ltmp116             ##   Call between Ltmp116 and Lfunc_end9
	.byte	0                               ##     has no landing pad
	.byte	0                               ##   On action: cleanup
Lcst_end9:
	.byte	127                             ## >> Action Record 1 <<
                                        ##   Filter TypeInfo -1
	.byte	0                               ##   No further actions
	.p2align	2
Lttbase7:
                                        ## >> Filter TypeInfos <<
	.byte	0
	.p2align	2
                                        ## -- End function
	.section	__TEXT,__text,regular,pure_instructions
	.p2align	4, 0x90                         ## -- Begin function _ZNSt3__1L4moveIRPFiP7__sFILEEEEONS_16remove_referenceIT_E4typeEOS7_
__ZNSt3__1L4moveIRPFiP7__sFILEEEEONS_16remove_referenceIT_E4typeEOS7_: ## @_ZNSt3__1L4moveIRPFiP7__sFILEEEEONS_16remove_referenceIT_E4typeEOS7_
	.cfi_startproc
## %bb.0:
	pushq	%rbp
	.cfi_def_cfa_offset 16
	.cfi_offset %rbp, -16
	movq	%rsp, %rbp
	.cfi_def_cfa_register %rbp
	movq	%rdi, -8(%rbp)
	movq	-8(%rbp), %rax
	popq	%rbp
	retq
	.cfi_endproc
                                        ## -- End function
	.p2align	4, 0x90                         ## -- Begin function _ZNSt3__117__compressed_pairIP7__sFILEPFiS2_EEC1IRS2_S4_EEOT_OT0_
__ZNSt3__117__compressed_pairIP7__sFILEPFiS2_EEC1IRS2_S4_EEOT_OT0_: ## @_ZNSt3__117__compressed_pairIP7__sFILEPFiS2_EEC1IRS2_S4_EEOT_OT0_
	.cfi_startproc
## %bb.0:
	pushq	%rbp
	.cfi_def_cfa_offset 16
	.cfi_offset %rbp, -16
	movq	%rsp, %rbp
	.cfi_def_cfa_register %rbp
	subq	$32, %rsp
	movq	%rdi, -8(%rbp)
	movq	%rsi, -16(%rbp)
	movq	%rdx, -24(%rbp)
	movq	-8(%rbp), %rdi
	movq	-16(%rbp), %rsi
	movq	-24(%rbp), %rdx
	callq	__ZNSt3__117__compressed_pairIP7__sFILEPFiS2_EEC2IRS2_S4_EEOT_OT0_
	addq	$32, %rsp
	popq	%rbp
	retq
	.cfi_endproc
                                        ## -- End function
	.p2align	4, 0x90                         ## -- Begin function _ZNSt3__117__compressed_pairIP7__sFILEPFiS2_EEC2IRS2_S4_EEOT_OT0_
__ZNSt3__117__compressed_pairIP7__sFILEPFiS2_EEC2IRS2_S4_EEOT_OT0_: ## @_ZNSt3__117__compressed_pairIP7__sFILEPFiS2_EEC2IRS2_S4_EEOT_OT0_
	.cfi_startproc
## %bb.0:
	pushq	%rbp
	.cfi_def_cfa_offset 16
	.cfi_offset %rbp, -16
	movq	%rsp, %rbp
	.cfi_def_cfa_register %rbp
	subq	$48, %rsp
	movq	%rdi, -8(%rbp)
	movq	%rsi, -16(%rbp)
	movq	%rdx, -24(%rbp)
	movq	-8(%rbp), %rax
	movq	%rax, -40(%rbp)                 ## 8-byte Spill
	movq	%rax, -48(%rbp)                 ## 8-byte Spill
	movq	-16(%rbp), %rdi
	callq	__ZNSt3__1L7forwardIRP7__sFILEEEOT_RNS_16remove_referenceIS4_E4typeE
	movq	-48(%rbp), %rdi                 ## 8-byte Reload
	movq	%rax, %rsi
	callq	__ZNSt3__122__compressed_pair_elemIP7__sFILELi0ELb0EEC2IRS2_vEEOT_
	movq	-40(%rbp), %rax                 ## 8-byte Reload
	addq	$8, %rax
	movq	%rax, -32(%rbp)                 ## 8-byte Spill
	movq	-24(%rbp), %rdi
	callq	__ZNSt3__1L7forwardIPFiP7__sFILEEEEOT_RNS_16remove_referenceIS5_E4typeE
	movq	-32(%rbp), %rdi                 ## 8-byte Reload
	movq	%rax, %rsi
	callq	__ZNSt3__122__compressed_pair_elemIPFiP7__sFILEELi1ELb0EEC2IS4_vEEOT_
	addq	$48, %rsp
	popq	%rbp
	retq
	.cfi_endproc
                                        ## -- End function
	.p2align	4, 0x90                         ## -- Begin function _ZNSt3__1L7forwardIRP7__sFILEEEOT_RNS_16remove_referenceIS4_E4typeE
__ZNSt3__1L7forwardIRP7__sFILEEEOT_RNS_16remove_referenceIS4_E4typeE: ## @_ZNSt3__1L7forwardIRP7__sFILEEEOT_RNS_16remove_referenceIS4_E4typeE
	.cfi_startproc
## %bb.0:
	pushq	%rbp
	.cfi_def_cfa_offset 16
	.cfi_offset %rbp, -16
	movq	%rsp, %rbp
	.cfi_def_cfa_register %rbp
	movq	%rdi, -8(%rbp)
	movq	-8(%rbp), %rax
	popq	%rbp
	retq
	.cfi_endproc
                                        ## -- End function
	.p2align	4, 0x90                         ## -- Begin function _ZNSt3__122__compressed_pair_elemIP7__sFILELi0ELb0EEC2IRS2_vEEOT_
__ZNSt3__122__compressed_pair_elemIP7__sFILELi0ELb0EEC2IRS2_vEEOT_: ## @_ZNSt3__122__compressed_pair_elemIP7__sFILELi0ELb0EEC2IRS2_vEEOT_
	.cfi_startproc
## %bb.0:
	pushq	%rbp
	.cfi_def_cfa_offset 16
	.cfi_offset %rbp, -16
	movq	%rsp, %rbp
	.cfi_def_cfa_register %rbp
	subq	$32, %rsp
	movq	%rdi, -8(%rbp)
	movq	%rsi, -16(%rbp)
	movq	-8(%rbp), %rax
	movq	%rax, -24(%rbp)                 ## 8-byte Spill
	movq	-16(%rbp), %rdi
	callq	__ZNSt3__1L7forwardIRP7__sFILEEEOT_RNS_16remove_referenceIS4_E4typeE
	movq	%rax, %rcx
	movq	-24(%rbp), %rax                 ## 8-byte Reload
	movq	(%rcx), %rcx
	movq	%rcx, (%rax)
	addq	$32, %rsp
	popq	%rbp
	retq
	.cfi_endproc
                                        ## -- End function
	.p2align	4, 0x90                         ## -- Begin function _ZNSt3__1L7forwardIPFiP7__sFILEEEEOT_RNS_16remove_referenceIS5_E4typeE
__ZNSt3__1L7forwardIPFiP7__sFILEEEEOT_RNS_16remove_referenceIS5_E4typeE: ## @_ZNSt3__1L7forwardIPFiP7__sFILEEEEOT_RNS_16remove_referenceIS5_E4typeE
	.cfi_startproc
## %bb.0:
	pushq	%rbp
	.cfi_def_cfa_offset 16
	.cfi_offset %rbp, -16
	movq	%rsp, %rbp
	.cfi_def_cfa_register %rbp
	movq	%rdi, -8(%rbp)
	movq	-8(%rbp), %rax
	popq	%rbp
	retq
	.cfi_endproc
                                        ## -- End function
	.p2align	4, 0x90                         ## -- Begin function _ZNSt3__122__compressed_pair_elemIPFiP7__sFILEELi1ELb0EEC2IS4_vEEOT_
__ZNSt3__122__compressed_pair_elemIPFiP7__sFILEELi1ELb0EEC2IS4_vEEOT_: ## @_ZNSt3__122__compressed_pair_elemIPFiP7__sFILEELi1ELb0EEC2IS4_vEEOT_
	.cfi_startproc
## %bb.0:
	pushq	%rbp
	.cfi_def_cfa_offset 16
	.cfi_offset %rbp, -16
	movq	%rsp, %rbp
	.cfi_def_cfa_register %rbp
	subq	$32, %rsp
	movq	%rdi, -8(%rbp)
	movq	%rsi, -16(%rbp)
	movq	-8(%rbp), %rax
	movq	%rax, -24(%rbp)                 ## 8-byte Spill
	movq	-16(%rbp), %rdi
	callq	__ZNSt3__1L7forwardIPFiP7__sFILEEEEOT_RNS_16remove_referenceIS5_E4typeE
	movq	%rax, %rcx
	movq	-24(%rbp), %rax                 ## 8-byte Reload
	movq	(%rcx), %rcx
	movq	%rcx, (%rax)
	addq	$32, %rsp
	popq	%rbp
	retq
	.cfi_endproc
                                        ## -- End function
	.p2align	4, 0x90                         ## -- Begin function _ZNSt3__117__compressed_pairIP7__sFILEPFiS2_EE5firstEv
__ZNSt3__117__compressed_pairIP7__sFILEPFiS2_EE5firstEv: ## @_ZNSt3__117__compressed_pairIP7__sFILEPFiS2_EE5firstEv
	.cfi_startproc
## %bb.0:
	pushq	%rbp
	.cfi_def_cfa_offset 16
	.cfi_offset %rbp, -16
	movq	%rsp, %rbp
	.cfi_def_cfa_register %rbp
	subq	$16, %rsp
	movq	%rdi, -8(%rbp)
	movq	-8(%rbp), %rdi
	callq	__ZNSt3__122__compressed_pair_elemIP7__sFILELi0ELb0EE5__getEv
	addq	$16, %rsp
	popq	%rbp
	retq
	.cfi_endproc
                                        ## -- End function
	.p2align	4, 0x90                         ## -- Begin function _ZNSt3__122__compressed_pair_elemIP7__sFILELi0ELb0EE5__getEv
__ZNSt3__122__compressed_pair_elemIP7__sFILELi0ELb0EE5__getEv: ## @_ZNSt3__122__compressed_pair_elemIP7__sFILELi0ELb0EE5__getEv
	.cfi_startproc
## %bb.0:
	pushq	%rbp
	.cfi_def_cfa_offset 16
	.cfi_offset %rbp, -16
	movq	%rsp, %rbp
	.cfi_def_cfa_register %rbp
	movq	%rdi, -8(%rbp)
	movq	-8(%rbp), %rax
	popq	%rbp
	retq
	.cfi_endproc
                                        ## -- End function
	.p2align	4, 0x90                         ## -- Begin function _ZNSt3__110unique_ptrI7__sFILEPFiPS1_EED2Ev
__ZNSt3__110unique_ptrI7__sFILEPFiPS1_EED2Ev: ## @_ZNSt3__110unique_ptrI7__sFILEPFiPS1_EED2Ev
	.cfi_startproc
## %bb.0:
	pushq	%rbp
	.cfi_def_cfa_offset 16
	.cfi_offset %rbp, -16
	movq	%rsp, %rbp
	.cfi_def_cfa_register %rbp
	subq	$16, %rsp
	xorl	%eax, %eax
	movl	%eax, %esi
	movq	%rdi, -8(%rbp)
	movq	-8(%rbp), %rdi
	callq	__ZNSt3__110unique_ptrI7__sFILEPFiPS1_EE5resetES2_
	addq	$16, %rsp
	popq	%rbp
	retq
	.cfi_endproc
                                        ## -- End function
	.p2align	4, 0x90                         ## -- Begin function _ZNSt3__110unique_ptrI7__sFILEPFiPS1_EE5resetES2_
__ZNSt3__110unique_ptrI7__sFILEPFiPS1_EE5resetES2_: ## @_ZNSt3__110unique_ptrI7__sFILEPFiPS1_EE5resetES2_
Lfunc_begin10:
	.cfi_startproc
	.cfi_personality 155, ___gxx_personality_v0
	.cfi_lsda 16, Lexception10
## %bb.0:
	pushq	%rbp
	.cfi_def_cfa_offset 16
	.cfi_offset %rbp, -16
	movq	%rsp, %rbp
	.cfi_def_cfa_register %rbp
	subq	$64, %rsp
	movq	%rdi, -8(%rbp)
	movq	%rsi, -16(%rbp)
	movq	-8(%rbp), %rdi
	movq	%rdi, -56(%rbp)                 ## 8-byte Spill
	callq	__ZNSt3__117__compressed_pairIP7__sFILEPFiS2_EE5firstEv
	movq	-56(%rbp), %rdi                 ## 8-byte Reload
	movq	(%rax), %rax
	movq	%rax, -24(%rbp)
	movq	-16(%rbp), %rax
	movq	%rax, -48(%rbp)                 ## 8-byte Spill
	callq	__ZNSt3__117__compressed_pairIP7__sFILEPFiS2_EE5firstEv
	movq	-48(%rbp), %rcx                 ## 8-byte Reload
	movq	%rcx, (%rax)
	cmpq	$0, -24(%rbp)
	je	LBB49_5
## %bb.1:
	movq	-56(%rbp), %rdi                 ## 8-byte Reload
	callq	__ZNSt3__117__compressed_pairIP7__sFILEPFiS2_EE6secondEv
	movq	(%rax), %rax
	movq	-24(%rbp), %rdi
Ltmp118:
	callq	*%rax
                                        ## kill: def $ecx killed $eax
Ltmp119:
	jmp	LBB49_2
LBB49_2:
	jmp	LBB49_5
LBB49_3:
Ltmp120:
	movq	%rax, %rcx
	movl	%edx, %eax
	movq	%rcx, -32(%rbp)
	movl	%eax, -36(%rbp)
## %bb.4:
	movq	-32(%rbp), %rdi
	callq	___cxa_call_unexpected
LBB49_5:
	addq	$64, %rsp
	popq	%rbp
	retq
Lfunc_end10:
	.cfi_endproc
	.section	__TEXT,__gcc_except_tab
	.p2align	2
GCC_except_table49:
Lexception10:
	.byte	255                             ## @LPStart Encoding = omit
	.byte	155                             ## @TType Encoding = indirect pcrel sdata4
	.uleb128 Lttbase8-Lttbaseref8
Lttbaseref8:
	.byte	1                               ## Call site Encoding = uleb128
	.uleb128 Lcst_end10-Lcst_begin10
Lcst_begin10:
	.uleb128 Ltmp118-Lfunc_begin10          ## >> Call Site 1 <<
	.uleb128 Ltmp119-Ltmp118                ##   Call between Ltmp118 and Ltmp119
	.uleb128 Ltmp120-Lfunc_begin10          ##     jumps to Ltmp120
	.byte	1                               ##   On action: 1
	.uleb128 Ltmp119-Lfunc_begin10          ## >> Call Site 2 <<
	.uleb128 Lfunc_end10-Ltmp119            ##   Call between Ltmp119 and Lfunc_end10
	.byte	0                               ##     has no landing pad
	.byte	0                               ##   On action: cleanup
Lcst_end10:
	.byte	127                             ## >> Action Record 1 <<
                                        ##   Filter TypeInfo -1
	.byte	0                               ##   No further actions
	.p2align	2
Lttbase8:
                                        ## >> Filter TypeInfos <<
	.byte	0
	.p2align	2
                                        ## -- End function
	.section	__TEXT,__text,regular,pure_instructions
	.p2align	4, 0x90                         ## -- Begin function _ZNSt3__117__compressed_pairIP7__sFILEPFiS2_EE6secondEv
__ZNSt3__117__compressed_pairIP7__sFILEPFiS2_EE6secondEv: ## @_ZNSt3__117__compressed_pairIP7__sFILEPFiS2_EE6secondEv
	.cfi_startproc
## %bb.0:
	pushq	%rbp
	.cfi_def_cfa_offset 16
	.cfi_offset %rbp, -16
	movq	%rsp, %rbp
	.cfi_def_cfa_register %rbp
	subq	$16, %rsp
	movq	%rdi, -8(%rbp)
	movq	-8(%rbp), %rdi
	addq	$8, %rdi
	callq	__ZNSt3__122__compressed_pair_elemIPFiP7__sFILEELi1ELb0EE5__getEv
	addq	$16, %rsp
	popq	%rbp
	retq
	.cfi_endproc
                                        ## -- End function
	.p2align	4, 0x90                         ## -- Begin function _ZNSt3__122__compressed_pair_elemIPFiP7__sFILEELi1ELb0EE5__getEv
__ZNSt3__122__compressed_pair_elemIPFiP7__sFILEELi1ELb0EE5__getEv: ## @_ZNSt3__122__compressed_pair_elemIPFiP7__sFILEELi1ELb0EE5__getEv
	.cfi_startproc
## %bb.0:
	pushq	%rbp
	.cfi_def_cfa_offset 16
	.cfi_offset %rbp, -16
	movq	%rsp, %rbp
	.cfi_def_cfa_register %rbp
	movq	%rdi, -8(%rbp)
	movq	-8(%rbp), %rax
	popq	%rbp
	retq
	.cfi_endproc
                                        ## -- End function
	.p2align	4, 0x90                         ## -- Begin function _ZNSt3__1L9use_facetINS_7codecvtIcc11__mbstate_tEEEERKT_RKNS_6localeE
__ZNSt3__1L9use_facetINS_7codecvtIcc11__mbstate_tEEEERKT_RKNS_6localeE: ## @_ZNSt3__1L9use_facetINS_7codecvtIcc11__mbstate_tEEEERKT_RKNS_6localeE
	.cfi_startproc
## %bb.0:
	pushq	%rbp
	.cfi_def_cfa_offset 16
	.cfi_offset %rbp, -16
	movq	%rsp, %rbp
	.cfi_def_cfa_register %rbp
	subq	$16, %rsp
	movq	__ZNSt3__17codecvtIcc11__mbstate_tE2idE@GOTPCREL(%rip), %rsi
	movq	%rdi, -8(%rbp)
	movq	-8(%rbp), %rdi
	callq	__ZNKSt3__16locale9use_facetERNS0_2idE
	addq	$16, %rsp
	popq	%rbp
	retq
	.cfi_endproc
                                        ## -- End function
	.p2align	4, 0x90                         ## -- Begin function _ZNKSt3__17codecvtIcc11__mbstate_tE13always_noconvEv
__ZNKSt3__17codecvtIcc11__mbstate_tE13always_noconvEv: ## @_ZNKSt3__17codecvtIcc11__mbstate_tE13always_noconvEv
	.cfi_startproc
## %bb.0:
	pushq	%rbp
	.cfi_def_cfa_offset 16
	.cfi_offset %rbp, -16
	movq	%rsp, %rbp
	.cfi_def_cfa_register %rbp
	subq	$16, %rsp
	movq	%rdi, -8(%rbp)
	movq	-8(%rbp), %rdi
	movq	(%rdi), %rax
	callq	*56(%rax)
	andb	$1, %al
	movzbl	%al, %eax
	addq	$16, %rsp
	popq	%rbp
	retq
	.cfi_endproc
                                        ## -- End function
	.p2align	4, 0x90                         ## -- Begin function _ZNSt3__115basic_streambufIcNS_11char_traitsIcEEE4setgEPcS4_S4_
__ZNSt3__115basic_streambufIcNS_11char_traitsIcEEE4setgEPcS4_S4_: ## @_ZNSt3__115basic_streambufIcNS_11char_traitsIcEEE4setgEPcS4_S4_
	.cfi_startproc
## %bb.0:
	pushq	%rbp
	.cfi_def_cfa_offset 16
	.cfi_offset %rbp, -16
	movq	%rsp, %rbp
	.cfi_def_cfa_register %rbp
	movq	%rdi, -8(%rbp)
	movq	%rsi, -16(%rbp)
	movq	%rdx, -24(%rbp)
	movq	%rcx, -32(%rbp)
	movq	-8(%rbp), %rax
	movq	-16(%rbp), %rcx
	movq	%rcx, 16(%rax)
	movq	-24(%rbp), %rcx
	movq	%rcx, 24(%rax)
	movq	-32(%rbp), %rcx
	movq	%rcx, 32(%rax)
	popq	%rbp
	retq
	.cfi_endproc
                                        ## -- End function
	.p2align	4, 0x90                         ## -- Begin function _ZNKSt3__19nullptr_tcvPT_IcEEv
__ZNKSt3__19nullptr_tcvPT_IcEEv:        ## @_ZNKSt3__19nullptr_tcvPT_IcEEv
	.cfi_startproc
## %bb.0:
	pushq	%rbp
	.cfi_def_cfa_offset 16
	.cfi_offset %rbp, -16
	movq	%rsp, %rbp
	.cfi_def_cfa_register %rbp
	xorl	%eax, %eax
                                        ## kill: def $rax killed $eax
	movq	%rdi, -8(%rbp)
	popq	%rbp
	retq
	.cfi_endproc
                                        ## -- End function
	.p2align	4, 0x90                         ## -- Begin function _ZNSt3__115basic_streambufIcNS_11char_traitsIcEEE4setpEPcS4_
__ZNSt3__115basic_streambufIcNS_11char_traitsIcEEE4setpEPcS4_: ## @_ZNSt3__115basic_streambufIcNS_11char_traitsIcEEE4setpEPcS4_
	.cfi_startproc
## %bb.0:
	pushq	%rbp
	.cfi_def_cfa_offset 16
	.cfi_offset %rbp, -16
	movq	%rsp, %rbp
	.cfi_def_cfa_register %rbp
	movq	%rdi, -8(%rbp)
	movq	%rsi, -16(%rbp)
	movq	%rdx, -24(%rbp)
	movq	-8(%rbp), %rax
	movq	-16(%rbp), %rcx
	movq	%rcx, 48(%rax)
	movq	%rcx, 40(%rax)
	movq	-24(%rbp), %rcx
	movq	%rcx, 56(%rax)
	popq	%rbp
	retq
	.cfi_endproc
                                        ## -- End function
	.p2align	4, 0x90                         ## -- Begin function _ZNSt3__1L3maxIlEERKT_S3_S3_
__ZNSt3__1L3maxIlEERKT_S3_S3_:          ## @_ZNSt3__1L3maxIlEERKT_S3_S3_
	.cfi_startproc
## %bb.0:
	pushq	%rbp
	.cfi_def_cfa_offset 16
	.cfi_offset %rbp, -16
	movq	%rsp, %rbp
	.cfi_def_cfa_register %rbp
	subq	$32, %rsp
	movq	%rdi, -8(%rbp)
	movq	%rsi, -16(%rbp)
	movq	-8(%rbp), %rdi
	movq	-16(%rbp), %rsi
	callq	__ZNSt3__1L3maxIlNS_6__lessIllEEEERKT_S5_S5_T0_
	addq	$32, %rsp
	popq	%rbp
	retq
	.cfi_endproc
                                        ## -- End function
	.p2align	4, 0x90                         ## -- Begin function _ZNSt3__1L3maxIlNS_6__lessIllEEEERKT_S5_S5_T0_
__ZNSt3__1L3maxIlNS_6__lessIllEEEERKT_S5_S5_T0_: ## @_ZNSt3__1L3maxIlNS_6__lessIllEEEERKT_S5_S5_T0_
	.cfi_startproc
## %bb.0:
	pushq	%rbp
	.cfi_def_cfa_offset 16
	.cfi_offset %rbp, -16
	movq	%rsp, %rbp
	.cfi_def_cfa_register %rbp
	subq	$32, %rsp
	movq	%rdi, -16(%rbp)
	movq	%rsi, -24(%rbp)
	movq	-16(%rbp), %rsi
	movq	-24(%rbp), %rdx
	leaq	-8(%rbp), %rdi
	callq	__ZNKSt3__16__lessIllEclERKlS3_
	testb	$1, %al
	jne	LBB58_1
	jmp	LBB58_2
LBB58_1:
	movq	-24(%rbp), %rax
	movq	%rax, -32(%rbp)                 ## 8-byte Spill
	jmp	LBB58_3
LBB58_2:
	movq	-16(%rbp), %rax
	movq	%rax, -32(%rbp)                 ## 8-byte Spill
LBB58_3:
	movq	-32(%rbp), %rax                 ## 8-byte Reload
	addq	$32, %rsp
	popq	%rbp
	retq
	.cfi_endproc
                                        ## -- End function
	.p2align	4, 0x90                         ## -- Begin function _ZNKSt3__16__lessIllEclERKlS3_
__ZNKSt3__16__lessIllEclERKlS3_:        ## @_ZNKSt3__16__lessIllEclERKlS3_
	.cfi_startproc
## %bb.0:
	pushq	%rbp
	.cfi_def_cfa_offset 16
	.cfi_offset %rbp, -16
	movq	%rsp, %rbp
	.cfi_def_cfa_register %rbp
	movq	%rdi, -8(%rbp)
	movq	%rsi, -16(%rbp)
	movq	%rdx, -24(%rbp)
	movq	-16(%rbp), %rax
	movq	(%rax), %rax
	movq	-24(%rbp), %rcx
	cmpq	(%rcx), %rax
	setl	%al
	andb	$1, %al
	movzbl	%al, %eax
	popq	%rbp
	retq
	.cfi_endproc
                                        ## -- End function
	.p2align	4, 0x90                         ## -- Begin function _ZNSt3__1L16__throw_bad_castEv
__ZNSt3__1L16__throw_bad_castEv:        ## @_ZNSt3__1L16__throw_bad_castEv
	.cfi_startproc
## %bb.0:
	pushq	%rbp
	.cfi_def_cfa_offset 16
	.cfi_offset %rbp, -16
	movq	%rsp, %rbp
	.cfi_def_cfa_register %rbp
	subq	$16, %rsp
	movl	$8, %edi
	callq	___cxa_allocate_exception
	movq	%rax, %rdi
	movq	%rdi, -8(%rbp)                  ## 8-byte Spill
	callq	__ZNSt8bad_castC1Ev
	movq	-8(%rbp), %rdi                  ## 8-byte Reload
	movq	__ZTISt8bad_cast@GOTPCREL(%rip), %rsi
	movq	__ZNSt8bad_castD1Ev@GOTPCREL(%rip), %rdx
	callq	___cxa_throw
	.cfi_endproc
                                        ## -- End function
	.p2align	4, 0x90                         ## -- Begin function _ZNKSt3__17codecvtIcc11__mbstate_tE8encodingEv
__ZNKSt3__17codecvtIcc11__mbstate_tE8encodingEv: ## @_ZNKSt3__17codecvtIcc11__mbstate_tE8encodingEv
	.cfi_startproc
## %bb.0:
	pushq	%rbp
	.cfi_def_cfa_offset 16
	.cfi_offset %rbp, -16
	movq	%rsp, %rbp
	.cfi_def_cfa_register %rbp
	subq	$16, %rsp
	movq	%rdi, -8(%rbp)
	movq	-8(%rbp), %rdi
	movq	(%rdi), %rax
	callq	*48(%rax)
	addq	$16, %rsp
	popq	%rbp
	retq
	.cfi_endproc
                                        ## -- End function
	.p2align	4, 0x90                         ## -- Begin function _ZNSt3__14fposI11__mbstate_tEC1Ex
__ZNSt3__14fposI11__mbstate_tEC1Ex:     ## @_ZNSt3__14fposI11__mbstate_tEC1Ex
	.cfi_startproc
## %bb.0:
	pushq	%rbp
	.cfi_def_cfa_offset 16
	.cfi_offset %rbp, -16
	movq	%rsp, %rbp
	.cfi_def_cfa_register %rbp
	subq	$16, %rsp
	movq	%rdi, -8(%rbp)
	movq	%rsi, -16(%rbp)
	movq	-8(%rbp), %rdi
	movq	-16(%rbp), %rsi
	callq	__ZNSt3__14fposI11__mbstate_tEC2Ex
	addq	$16, %rsp
	popq	%rbp
	retq
	.cfi_endproc
                                        ## -- End function
	.p2align	4, 0x90                         ## -- Begin function _ZNSt3__14fposI11__mbstate_tE5stateES1_
__ZNSt3__14fposI11__mbstate_tE5stateES1_: ## @_ZNSt3__14fposI11__mbstate_tE5stateES1_
	.cfi_startproc
## %bb.0:
	pushq	%rbp
	.cfi_def_cfa_offset 16
	.cfi_offset %rbp, -16
	movq	%rsp, %rbp
	.cfi_def_cfa_register %rbp
	subq	$16, %rsp
	leaq	16(%rbp), %rsi
	movq	%rdi, -8(%rbp)
	movq	-8(%rbp), %rdi
	movl	$128, %edx
	callq	_memcpy
	addq	$16, %rsp
	popq	%rbp
	retq
	.cfi_endproc
                                        ## -- End function
	.p2align	4, 0x90                         ## -- Begin function _ZNSt3__14fposI11__mbstate_tEC2Ex
__ZNSt3__14fposI11__mbstate_tEC2Ex:     ## @_ZNSt3__14fposI11__mbstate_tEC2Ex
	.cfi_startproc
## %bb.0:
	pushq	%rbp
	.cfi_def_cfa_offset 16
	.cfi_offset %rbp, -16
	movq	%rsp, %rbp
	.cfi_def_cfa_register %rbp
	subq	$32, %rsp
	movq	%rsi, %rax
	xorl	%esi, %esi
	movq	%rdi, -8(%rbp)
	movq	%rax, -16(%rbp)
	movq	-8(%rbp), %rdi
	movq	%rdi, -24(%rbp)                 ## 8-byte Spill
	movl	$128, %edx
	callq	_memset
	movq	-24(%rbp), %rax                 ## 8-byte Reload
	movq	-16(%rbp), %rcx
	movq	%rcx, 128(%rax)
	addq	$32, %rsp
	popq	%rbp
	retq
	.cfi_endproc
                                        ## -- End function
	.p2align	4, 0x90                         ## -- Begin function _ZNKSt3__14fposI11__mbstate_tEcvxEv
__ZNKSt3__14fposI11__mbstate_tEcvxEv:   ## @_ZNKSt3__14fposI11__mbstate_tEcvxEv
	.cfi_startproc
## %bb.0:
	pushq	%rbp
	.cfi_def_cfa_offset 16
	.cfi_offset %rbp, -16
	movq	%rsp, %rbp
	.cfi_def_cfa_register %rbp
	movq	%rdi, -8(%rbp)
	movq	-8(%rbp), %rax
	movq	128(%rax), %rax
	popq	%rbp
	retq
	.cfi_endproc
                                        ## -- End function
	.p2align	4, 0x90                         ## -- Begin function _ZNKSt3__14fposI11__mbstate_tE5stateEv
__ZNKSt3__14fposI11__mbstate_tE5stateEv: ## @_ZNKSt3__14fposI11__mbstate_tE5stateEv
	.cfi_startproc
## %bb.0:
	pushq	%rbp
	.cfi_def_cfa_offset 16
	.cfi_offset %rbp, -16
	movq	%rsp, %rbp
	.cfi_def_cfa_register %rbp
	subq	$16, %rsp
	movq	%rdi, %rax
	movq	%rax, -16(%rbp)                 ## 8-byte Spill
	movq	%rsi, -8(%rbp)
	movq	-8(%rbp), %rsi
	movl	$128, %edx
	callq	_memcpy
	movq	-16(%rbp), %rax                 ## 8-byte Reload
	addq	$16, %rsp
	popq	%rbp
	retq
	.cfi_endproc
                                        ## -- End function
	.p2align	4, 0x90                         ## -- Begin function _ZNKSt3__115basic_streambufIcNS_11char_traitsIcEEE4pptrEv
__ZNKSt3__115basic_streambufIcNS_11char_traitsIcEEE4pptrEv: ## @_ZNKSt3__115basic_streambufIcNS_11char_traitsIcEEE4pptrEv
	.cfi_startproc
## %bb.0:
	pushq	%rbp
	.cfi_def_cfa_offset 16
	.cfi_offset %rbp, -16
	movq	%rsp, %rbp
	.cfi_def_cfa_register %rbp
	movq	%rdi, -8(%rbp)
	movq	-8(%rbp), %rax
	movq	48(%rax), %rax
	popq	%rbp
	retq
	.cfi_endproc
                                        ## -- End function
	.p2align	4, 0x90                         ## -- Begin function _ZNKSt3__115basic_streambufIcNS_11char_traitsIcEEE5pbaseEv
__ZNKSt3__115basic_streambufIcNS_11char_traitsIcEEE5pbaseEv: ## @_ZNKSt3__115basic_streambufIcNS_11char_traitsIcEEE5pbaseEv
	.cfi_startproc
## %bb.0:
	pushq	%rbp
	.cfi_def_cfa_offset 16
	.cfi_offset %rbp, -16
	movq	%rsp, %rbp
	.cfi_def_cfa_register %rbp
	movq	%rdi, -8(%rbp)
	movq	-8(%rbp), %rax
	movq	40(%rax), %rax
	popq	%rbp
	retq
	.cfi_endproc
                                        ## -- End function
	.globl	__ZNSt3__111char_traitsIcE3eofEv ## -- Begin function _ZNSt3__111char_traitsIcE3eofEv
	.weak_definition	__ZNSt3__111char_traitsIcE3eofEv
	.p2align	4, 0x90
__ZNSt3__111char_traitsIcE3eofEv:       ## @_ZNSt3__111char_traitsIcE3eofEv
	.cfi_startproc
## %bb.0:
	pushq	%rbp
	.cfi_def_cfa_offset 16
	.cfi_offset %rbp, -16
	movq	%rsp, %rbp
	.cfi_def_cfa_register %rbp
	movl	$4294967295, %eax               ## imm = 0xFFFFFFFF
	popq	%rbp
	retq
	.cfi_endproc
                                        ## -- End function
	.p2align	4, 0x90                         ## -- Begin function _ZNKSt3__17codecvtIcc11__mbstate_tE7unshiftERS1_PcS4_RS4_
__ZNKSt3__17codecvtIcc11__mbstate_tE7unshiftERS1_PcS4_RS4_: ## @_ZNKSt3__17codecvtIcc11__mbstate_tE7unshiftERS1_PcS4_RS4_
	.cfi_startproc
## %bb.0:
	pushq	%rbp
	.cfi_def_cfa_offset 16
	.cfi_offset %rbp, -16
	movq	%rsp, %rbp
	.cfi_def_cfa_register %rbp
	subq	$48, %rsp
	movq	%rdi, -8(%rbp)
	movq	%rsi, -16(%rbp)
	movq	%rdx, -24(%rbp)
	movq	%rcx, -32(%rbp)
	movq	%r8, -40(%rbp)
	movq	-8(%rbp), %rdi
	movq	-16(%rbp), %rsi
	movq	-24(%rbp), %rdx
	movq	-32(%rbp), %rcx
	movq	-40(%rbp), %r8
	movq	(%rdi), %rax
	callq	*40(%rax)
	addq	$48, %rsp
	popq	%rbp
	retq
	.cfi_endproc
                                        ## -- End function
	.p2align	4, 0x90                         ## -- Begin function _ZNKSt3__115basic_streambufIcNS_11char_traitsIcEEE5egptrEv
__ZNKSt3__115basic_streambufIcNS_11char_traitsIcEEE5egptrEv: ## @_ZNKSt3__115basic_streambufIcNS_11char_traitsIcEEE5egptrEv
	.cfi_startproc
## %bb.0:
	pushq	%rbp
	.cfi_def_cfa_offset 16
	.cfi_offset %rbp, -16
	movq	%rsp, %rbp
	.cfi_def_cfa_register %rbp
	movq	%rdi, -8(%rbp)
	movq	-8(%rbp), %rax
	movq	32(%rax), %rax
	popq	%rbp
	retq
	.cfi_endproc
                                        ## -- End function
	.p2align	4, 0x90                         ## -- Begin function _ZNKSt3__115basic_streambufIcNS_11char_traitsIcEEE4gptrEv
__ZNKSt3__115basic_streambufIcNS_11char_traitsIcEEE4gptrEv: ## @_ZNKSt3__115basic_streambufIcNS_11char_traitsIcEEE4gptrEv
	.cfi_startproc
## %bb.0:
	pushq	%rbp
	.cfi_def_cfa_offset 16
	.cfi_offset %rbp, -16
	movq	%rsp, %rbp
	.cfi_def_cfa_register %rbp
	movq	%rdi, -8(%rbp)
	movq	-8(%rbp), %rax
	movq	24(%rax), %rax
	popq	%rbp
	retq
	.cfi_endproc
                                        ## -- End function
	.p2align	4, 0x90                         ## -- Begin function _ZNKSt3__17codecvtIcc11__mbstate_tE6lengthERS1_PKcS5_m
__ZNKSt3__17codecvtIcc11__mbstate_tE6lengthERS1_PKcS5_m: ## @_ZNKSt3__17codecvtIcc11__mbstate_tE6lengthERS1_PKcS5_m
	.cfi_startproc
## %bb.0:
	pushq	%rbp
	.cfi_def_cfa_offset 16
	.cfi_offset %rbp, -16
	movq	%rsp, %rbp
	.cfi_def_cfa_register %rbp
	subq	$48, %rsp
	movq	%rdi, -8(%rbp)
	movq	%rsi, -16(%rbp)
	movq	%rdx, -24(%rbp)
	movq	%rcx, -32(%rbp)
	movq	%r8, -40(%rbp)
	movq	-8(%rbp), %rdi
	movq	-16(%rbp), %rsi
	movq	-24(%rbp), %rdx
	movq	-32(%rbp), %rcx
	movq	-40(%rbp), %r8
	movq	(%rdi), %rax
	callq	*64(%rax)
	addq	$48, %rsp
	popq	%rbp
	retq
	.cfi_endproc
                                        ## -- End function
	.p2align	4, 0x90                         ## -- Begin function _ZNKSt3__115basic_streambufIcNS_11char_traitsIcEEE5ebackEv
__ZNKSt3__115basic_streambufIcNS_11char_traitsIcEEE5ebackEv: ## @_ZNKSt3__115basic_streambufIcNS_11char_traitsIcEEE5ebackEv
	.cfi_startproc
## %bb.0:
	pushq	%rbp
	.cfi_def_cfa_offset 16
	.cfi_offset %rbp, -16
	movq	%rsp, %rbp
	.cfi_def_cfa_register %rbp
	movq	%rdi, -8(%rbp)
	movq	-8(%rbp), %rax
	movq	16(%rax), %rax
	popq	%rbp
	retq
	.cfi_endproc
                                        ## -- End function
	.globl	__ZNSt3__113basic_filebufIcNS_11char_traitsIcEEE11__read_modeEv ## -- Begin function _ZNSt3__113basic_filebufIcNS_11char_traitsIcEEE11__read_modeEv
	.weak_definition	__ZNSt3__113basic_filebufIcNS_11char_traitsIcEEE11__read_modeEv
	.p2align	4, 0x90
__ZNSt3__113basic_filebufIcNS_11char_traitsIcEEE11__read_modeEv: ## @_ZNSt3__113basic_filebufIcNS_11char_traitsIcEEE11__read_modeEv
	.cfi_startproc
## %bb.0:
	pushq	%rbp
	.cfi_def_cfa_offset 16
	.cfi_offset %rbp, -16
	movq	%rsp, %rbp
	.cfi_def_cfa_register %rbp
	subq	$64, %rsp
	movq	%rdi, -16(%rbp)
	movq	-16(%rbp), %rax
	movq	%rax, -40(%rbp)                 ## 8-byte Spill
	movl	396(%rax), %eax
	andl	$8, %eax
	cmpl	$0, %eax
	jne	LBB75_5
## %bb.1:
	movq	-40(%rbp), %rax                 ## 8-byte Reload
	movq	%rax, -56(%rbp)                 ## 8-byte Spill
	callq	__ZNSt3__1L15__get_nullptr_tEv
	movq	%rax, -24(%rbp)
	leaq	-24(%rbp), %rdi
	callq	__ZNKSt3__19nullptr_tcvPT_IcEEv
	movq	%rax, -48(%rbp)                 ## 8-byte Spill
	callq	__ZNSt3__1L15__get_nullptr_tEv
	movq	%rax, -32(%rbp)
	leaq	-32(%rbp), %rdi
	callq	__ZNKSt3__19nullptr_tcvPT_IcEEv
	movq	-56(%rbp), %rdi                 ## 8-byte Reload
	movq	-48(%rbp), %rsi                 ## 8-byte Reload
	movq	%rax, %rdx
	callq	__ZNSt3__115basic_streambufIcNS_11char_traitsIcEEE4setpEPcS4_
	movq	-40(%rbp), %rax                 ## 8-byte Reload
	testb	$1, 402(%rax)
	je	LBB75_3
## %bb.2:
	movq	-40(%rbp), %rax                 ## 8-byte Reload
	movq	%rax, %rdi
	movq	64(%rax), %rsi
	movq	64(%rax), %rdx
	addq	96(%rax), %rdx
	movq	64(%rax), %rcx
	addq	96(%rax), %rcx
	callq	__ZNSt3__115basic_streambufIcNS_11char_traitsIcEEE4setgEPcS4_S4_
	jmp	LBB75_4
LBB75_3:
	movq	-40(%rbp), %rax                 ## 8-byte Reload
	movq	%rax, %rdi
	movq	104(%rax), %rsi
	movq	104(%rax), %rdx
	addq	112(%rax), %rdx
	movq	104(%rax), %rcx
	addq	112(%rax), %rcx
	callq	__ZNSt3__115basic_streambufIcNS_11char_traitsIcEEE4setgEPcS4_S4_
LBB75_4:
	movq	-40(%rbp), %rax                 ## 8-byte Reload
	movl	$8, 396(%rax)
	movb	$1, -1(%rbp)
	jmp	LBB75_6
LBB75_5:
	movb	$0, -1(%rbp)
LBB75_6:
	movb	-1(%rbp), %al
	andb	$1, %al
	movzbl	%al, %eax
	addq	$64, %rsp
	popq	%rbp
	retq
	.cfi_endproc
                                        ## -- End function
	.p2align	4, 0x90                         ## -- Begin function _ZNSt3__1L3minImEERKT_S3_S3_
__ZNSt3__1L3minImEERKT_S3_S3_:          ## @_ZNSt3__1L3minImEERKT_S3_S3_
	.cfi_startproc
## %bb.0:
	pushq	%rbp
	.cfi_def_cfa_offset 16
	.cfi_offset %rbp, -16
	movq	%rsp, %rbp
	.cfi_def_cfa_register %rbp
	subq	$32, %rsp
	movq	%rdi, -8(%rbp)
	movq	%rsi, -16(%rbp)
	movq	-8(%rbp), %rdi
	movq	-16(%rbp), %rsi
	callq	__ZNSt3__1L3minImNS_6__lessImmEEEERKT_S5_S5_T0_
	addq	$32, %rsp
	popq	%rbp
	retq
	.cfi_endproc
                                        ## -- End function
	.globl	__ZNSt3__111char_traitsIcE11to_int_typeEc ## -- Begin function _ZNSt3__111char_traitsIcE11to_int_typeEc
	.weak_definition	__ZNSt3__111char_traitsIcE11to_int_typeEc
	.p2align	4, 0x90
__ZNSt3__111char_traitsIcE11to_int_typeEc: ## @_ZNSt3__111char_traitsIcE11to_int_typeEc
	.cfi_startproc
## %bb.0:
	pushq	%rbp
	.cfi_def_cfa_offset 16
	.cfi_offset %rbp, -16
	movq	%rsp, %rbp
	.cfi_def_cfa_register %rbp
	movb	%dil, %al
	movb	%al, -1(%rbp)
	movzbl	-1(%rbp), %eax
	popq	%rbp
	retq
	.cfi_endproc
                                        ## -- End function
	.p2align	4, 0x90                         ## -- Begin function _ZNKSt3__17codecvtIcc11__mbstate_tE2inERS1_PKcS5_RS5_PcS7_RS7_
__ZNKSt3__17codecvtIcc11__mbstate_tE2inERS1_PKcS5_RS5_PcS7_RS7_: ## @_ZNKSt3__17codecvtIcc11__mbstate_tE2inERS1_PKcS5_RS5_PcS7_RS7_
	.cfi_startproc
## %bb.0:
	pushq	%rbp
	.cfi_def_cfa_offset 16
	.cfi_offset %rbp, -16
	movq	%rsp, %rbp
	.cfi_def_cfa_register %rbp
	subq	$64, %rsp
	movq	24(%rbp), %rax
	movq	16(%rbp), %rax
	movq	%rdi, -8(%rbp)
	movq	%rsi, -16(%rbp)
	movq	%rdx, -24(%rbp)
	movq	%rcx, -32(%rbp)
	movq	%r8, -40(%rbp)
	movq	%r9, -48(%rbp)
	movq	-8(%rbp), %rdi
	movq	-16(%rbp), %rsi
	movq	-24(%rbp), %rdx
	movq	-32(%rbp), %rcx
	movq	-40(%rbp), %r8
	movq	-48(%rbp), %r9
	movq	16(%rbp), %r11
	movq	24(%rbp), %r10
	movq	(%rdi), %rax
	movq	%r11, (%rsp)
	movq	%r10, 8(%rsp)
	callq	*32(%rax)
	addq	$64, %rsp
	popq	%rbp
	retq
	.cfi_endproc
                                        ## -- End function
	.p2align	4, 0x90                         ## -- Begin function _ZNSt3__1L3minImNS_6__lessImmEEEERKT_S5_S5_T0_
__ZNSt3__1L3minImNS_6__lessImmEEEERKT_S5_S5_T0_: ## @_ZNSt3__1L3minImNS_6__lessImmEEEERKT_S5_S5_T0_
	.cfi_startproc
## %bb.0:
	pushq	%rbp
	.cfi_def_cfa_offset 16
	.cfi_offset %rbp, -16
	movq	%rsp, %rbp
	.cfi_def_cfa_register %rbp
	subq	$32, %rsp
	movq	%rdi, -16(%rbp)
	movq	%rsi, -24(%rbp)
	movq	-24(%rbp), %rsi
	movq	-16(%rbp), %rdx
	leaq	-8(%rbp), %rdi
	callq	__ZNKSt3__16__lessImmEclERKmS3_
	testb	$1, %al
	jne	LBB79_1
	jmp	LBB79_2
LBB79_1:
	movq	-24(%rbp), %rax
	movq	%rax, -32(%rbp)                 ## 8-byte Spill
	jmp	LBB79_3
LBB79_2:
	movq	-16(%rbp), %rax
	movq	%rax, -32(%rbp)                 ## 8-byte Spill
LBB79_3:
	movq	-32(%rbp), %rax                 ## 8-byte Reload
	addq	$32, %rsp
	popq	%rbp
	retq
	.cfi_endproc
                                        ## -- End function
	.p2align	4, 0x90                         ## -- Begin function _ZNKSt3__16__lessImmEclERKmS3_
__ZNKSt3__16__lessImmEclERKmS3_:        ## @_ZNKSt3__16__lessImmEclERKmS3_
	.cfi_startproc
## %bb.0:
	pushq	%rbp
	.cfi_def_cfa_offset 16
	.cfi_offset %rbp, -16
	movq	%rsp, %rbp
	.cfi_def_cfa_register %rbp
	movq	%rdi, -8(%rbp)
	movq	%rsi, -16(%rbp)
	movq	%rdx, -24(%rbp)
	movq	-16(%rbp), %rax
	movq	(%rax), %rax
	movq	-24(%rbp), %rcx
	cmpq	(%rcx), %rax
	setb	%al
	andb	$1, %al
	movzbl	%al, %eax
	popq	%rbp
	retq
	.cfi_endproc
                                        ## -- End function
	.globl	__ZNSt3__111char_traitsIcE11eq_int_typeEii ## -- Begin function _ZNSt3__111char_traitsIcE11eq_int_typeEii
	.weak_definition	__ZNSt3__111char_traitsIcE11eq_int_typeEii
	.p2align	4, 0x90
__ZNSt3__111char_traitsIcE11eq_int_typeEii: ## @_ZNSt3__111char_traitsIcE11eq_int_typeEii
	.cfi_startproc
## %bb.0:
	pushq	%rbp
	.cfi_def_cfa_offset 16
	.cfi_offset %rbp, -16
	movq	%rsp, %rbp
	.cfi_def_cfa_register %rbp
	movl	%edi, -4(%rbp)
	movl	%esi, -8(%rbp)
	movl	-4(%rbp), %eax
	cmpl	-8(%rbp), %eax
	sete	%al
	andb	$1, %al
	movzbl	%al, %eax
	popq	%rbp
	retq
	.cfi_endproc
                                        ## -- End function
	.p2align	4, 0x90                         ## -- Begin function _ZNSt3__115basic_streambufIcNS_11char_traitsIcEEE5gbumpEi
__ZNSt3__115basic_streambufIcNS_11char_traitsIcEEE5gbumpEi: ## @_ZNSt3__115basic_streambufIcNS_11char_traitsIcEEE5gbumpEi
	.cfi_startproc
## %bb.0:
	pushq	%rbp
	.cfi_def_cfa_offset 16
	.cfi_offset %rbp, -16
	movq	%rsp, %rbp
	.cfi_def_cfa_register %rbp
	movq	%rdi, -8(%rbp)
	movl	%esi, -12(%rbp)
	movq	-8(%rbp), %rax
	movl	-12(%rbp), %edx
	movq	24(%rax), %rcx
	movslq	%edx, %rdx
	addq	%rdx, %rcx
	movq	%rcx, 24(%rax)
	popq	%rbp
	retq
	.cfi_endproc
                                        ## -- End function
	.globl	__ZNSt3__111char_traitsIcE7not_eofEi ## -- Begin function _ZNSt3__111char_traitsIcE7not_eofEi
	.weak_definition	__ZNSt3__111char_traitsIcE7not_eofEi
	.p2align	4, 0x90
__ZNSt3__111char_traitsIcE7not_eofEi:   ## @_ZNSt3__111char_traitsIcE7not_eofEi
	.cfi_startproc
## %bb.0:
	pushq	%rbp
	.cfi_def_cfa_offset 16
	.cfi_offset %rbp, -16
	movq	%rsp, %rbp
	.cfi_def_cfa_register %rbp
	subq	$16, %rsp
	movl	%edi, -4(%rbp)
	movl	-4(%rbp), %eax
	movl	%eax, -8(%rbp)                  ## 4-byte Spill
	callq	__ZNSt3__111char_traitsIcE3eofEv
	movl	-8(%rbp), %edi                  ## 4-byte Reload
	movl	%eax, %esi
	callq	__ZNSt3__111char_traitsIcE11eq_int_typeEii
	testb	$1, %al
	jne	LBB83_1
	jmp	LBB83_2
LBB83_1:
	callq	__ZNSt3__111char_traitsIcE3eofEv
	xorl	$-1, %eax
	movl	%eax, -12(%rbp)                 ## 4-byte Spill
	jmp	LBB83_3
LBB83_2:
	movl	-4(%rbp), %eax
	movl	%eax, -12(%rbp)                 ## 4-byte Spill
LBB83_3:
	movl	-12(%rbp), %eax                 ## 4-byte Reload
	addq	$16, %rsp
	popq	%rbp
	retq
	.cfi_endproc
                                        ## -- End function
	.globl	__ZNSt3__111char_traitsIcE2eqEcc ## -- Begin function _ZNSt3__111char_traitsIcE2eqEcc
	.weak_definition	__ZNSt3__111char_traitsIcE2eqEcc
	.p2align	4, 0x90
__ZNSt3__111char_traitsIcE2eqEcc:       ## @_ZNSt3__111char_traitsIcE2eqEcc
	.cfi_startproc
## %bb.0:
	pushq	%rbp
	.cfi_def_cfa_offset 16
	.cfi_offset %rbp, -16
	movq	%rsp, %rbp
	.cfi_def_cfa_register %rbp
	movb	%sil, %al
	movb	%dil, %cl
	movb	%cl, -1(%rbp)
	movb	%al, -2(%rbp)
	movsbl	-1(%rbp), %eax
	movsbl	-2(%rbp), %ecx
	cmpl	%ecx, %eax
	sete	%al
	andb	$1, %al
	movzbl	%al, %eax
	popq	%rbp
	retq
	.cfi_endproc
                                        ## -- End function
	.globl	__ZNSt3__111char_traitsIcE12to_char_typeEi ## -- Begin function _ZNSt3__111char_traitsIcE12to_char_typeEi
	.weak_definition	__ZNSt3__111char_traitsIcE12to_char_typeEi
	.p2align	4, 0x90
__ZNSt3__111char_traitsIcE12to_char_typeEi: ## @_ZNSt3__111char_traitsIcE12to_char_typeEi
	.cfi_startproc
## %bb.0:
	pushq	%rbp
	.cfi_def_cfa_offset 16
	.cfi_offset %rbp, -16
	movq	%rsp, %rbp
	.cfi_def_cfa_register %rbp
	movl	%edi, -4(%rbp)
	movl	-4(%rbp), %eax
                                        ## kill: def $al killed $al killed $eax
	movsbl	%al, %eax
	popq	%rbp
	retq
	.cfi_endproc
                                        ## -- End function
	.globl	__ZNSt3__113basic_filebufIcNS_11char_traitsIcEEE12__write_modeEv ## -- Begin function _ZNSt3__113basic_filebufIcNS_11char_traitsIcEEE12__write_modeEv
	.weak_definition	__ZNSt3__113basic_filebufIcNS_11char_traitsIcEEE12__write_modeEv
	.p2align	4, 0x90
__ZNSt3__113basic_filebufIcNS_11char_traitsIcEEE12__write_modeEv: ## @_ZNSt3__113basic_filebufIcNS_11char_traitsIcEEE12__write_modeEv
	.cfi_startproc
## %bb.0:
	pushq	%rbp
	.cfi_def_cfa_offset 16
	.cfi_offset %rbp, -16
	movq	%rsp, %rbp
	.cfi_def_cfa_register %rbp
	subq	$96, %rsp
	movq	%rdi, -8(%rbp)
	movq	-8(%rbp), %rax
	movq	%rax, -56(%rbp)                 ## 8-byte Spill
	movl	396(%rax), %eax
	andl	$16, %eax
	cmpl	$0, %eax
	jne	LBB86_8
## %bb.1:
	movq	-56(%rbp), %rax                 ## 8-byte Reload
	movq	%rax, -80(%rbp)                 ## 8-byte Spill
	callq	__ZNSt3__1L15__get_nullptr_tEv
	movq	%rax, -16(%rbp)
	leaq	-16(%rbp), %rdi
	callq	__ZNKSt3__19nullptr_tcvPT_IcEEv
	movq	%rax, -72(%rbp)                 ## 8-byte Spill
	callq	__ZNSt3__1L15__get_nullptr_tEv
	movq	%rax, -24(%rbp)
	leaq	-24(%rbp), %rdi
	callq	__ZNKSt3__19nullptr_tcvPT_IcEEv
	movq	%rax, -64(%rbp)                 ## 8-byte Spill
	callq	__ZNSt3__1L15__get_nullptr_tEv
	movq	%rax, -32(%rbp)
	leaq	-32(%rbp), %rdi
	callq	__ZNKSt3__19nullptr_tcvPT_IcEEv
	movq	-80(%rbp), %rdi                 ## 8-byte Reload
	movq	-72(%rbp), %rsi                 ## 8-byte Reload
	movq	-64(%rbp), %rdx                 ## 8-byte Reload
	movq	%rax, %rcx
	callq	__ZNSt3__115basic_streambufIcNS_11char_traitsIcEEE4setgEPcS4_S4_
	movq	-56(%rbp), %rax                 ## 8-byte Reload
	cmpq	$8, 96(%rax)
	jbe	LBB86_6
## %bb.2:
	movq	-56(%rbp), %rax                 ## 8-byte Reload
	testb	$1, 402(%rax)
	je	LBB86_4
## %bb.3:
	movq	-56(%rbp), %rax                 ## 8-byte Reload
	movq	%rax, %rdi
	movq	64(%rax), %rsi
	movq	64(%rax), %rdx
	movq	96(%rax), %rax
	subq	$1, %rax
	addq	%rax, %rdx
	callq	__ZNSt3__115basic_streambufIcNS_11char_traitsIcEEE4setpEPcS4_
	jmp	LBB86_5
LBB86_4:
	movq	-56(%rbp), %rax                 ## 8-byte Reload
	movq	%rax, %rdi
	movq	104(%rax), %rsi
	movq	104(%rax), %rdx
	movq	112(%rax), %rax
	subq	$1, %rax
	addq	%rax, %rdx
	callq	__ZNSt3__115basic_streambufIcNS_11char_traitsIcEEE4setpEPcS4_
LBB86_5:
	jmp	LBB86_7
LBB86_6:
	movq	-56(%rbp), %rax                 ## 8-byte Reload
	movq	%rax, -96(%rbp)                 ## 8-byte Spill
	callq	__ZNSt3__1L15__get_nullptr_tEv
	movq	%rax, -40(%rbp)
	leaq	-40(%rbp), %rdi
	callq	__ZNKSt3__19nullptr_tcvPT_IcEEv
	movq	%rax, -88(%rbp)                 ## 8-byte Spill
	callq	__ZNSt3__1L15__get_nullptr_tEv
	movq	%rax, -48(%rbp)
	leaq	-48(%rbp), %rdi
	callq	__ZNKSt3__19nullptr_tcvPT_IcEEv
	movq	-96(%rbp), %rdi                 ## 8-byte Reload
	movq	-88(%rbp), %rsi                 ## 8-byte Reload
	movq	%rax, %rdx
	callq	__ZNSt3__115basic_streambufIcNS_11char_traitsIcEEE4setpEPcS4_
LBB86_7:
	movq	-56(%rbp), %rax                 ## 8-byte Reload
	movl	$16, 396(%rax)
LBB86_8:
	addq	$96, %rsp
	popq	%rbp
	retq
	.cfi_endproc
                                        ## -- End function
	.p2align	4, 0x90                         ## -- Begin function _ZNKSt3__115basic_streambufIcNS_11char_traitsIcEEE5epptrEv
__ZNKSt3__115basic_streambufIcNS_11char_traitsIcEEE5epptrEv: ## @_ZNKSt3__115basic_streambufIcNS_11char_traitsIcEEE5epptrEv
	.cfi_startproc
## %bb.0:
	pushq	%rbp
	.cfi_def_cfa_offset 16
	.cfi_offset %rbp, -16
	movq	%rsp, %rbp
	.cfi_def_cfa_register %rbp
	movq	%rdi, -8(%rbp)
	movq	-8(%rbp), %rax
	movq	56(%rax), %rax
	popq	%rbp
	retq
	.cfi_endproc
                                        ## -- End function
	.p2align	4, 0x90                         ## -- Begin function _ZNSt3__115basic_streambufIcNS_11char_traitsIcEEE5pbumpEi
__ZNSt3__115basic_streambufIcNS_11char_traitsIcEEE5pbumpEi: ## @_ZNSt3__115basic_streambufIcNS_11char_traitsIcEEE5pbumpEi
	.cfi_startproc
## %bb.0:
	pushq	%rbp
	.cfi_def_cfa_offset 16
	.cfi_offset %rbp, -16
	movq	%rsp, %rbp
	.cfi_def_cfa_register %rbp
	movq	%rdi, -8(%rbp)
	movl	%esi, -12(%rbp)
	movq	-8(%rbp), %rax
	movl	-12(%rbp), %edx
	movq	48(%rax), %rcx
	movslq	%edx, %rdx
	addq	%rdx, %rcx
	movq	%rcx, 48(%rax)
	popq	%rbp
	retq
	.cfi_endproc
                                        ## -- End function
	.p2align	4, 0x90                         ## -- Begin function _ZNKSt3__17codecvtIcc11__mbstate_tE3outERS1_PKcS5_RS5_PcS7_RS7_
__ZNKSt3__17codecvtIcc11__mbstate_tE3outERS1_PKcS5_RS5_PcS7_RS7_: ## @_ZNKSt3__17codecvtIcc11__mbstate_tE3outERS1_PKcS5_RS5_PcS7_RS7_
	.cfi_startproc
## %bb.0:
	pushq	%rbp
	.cfi_def_cfa_offset 16
	.cfi_offset %rbp, -16
	movq	%rsp, %rbp
	.cfi_def_cfa_register %rbp
	subq	$64, %rsp
	movq	24(%rbp), %rax
	movq	16(%rbp), %rax
	movq	%rdi, -8(%rbp)
	movq	%rsi, -16(%rbp)
	movq	%rdx, -24(%rbp)
	movq	%rcx, -32(%rbp)
	movq	%r8, -40(%rbp)
	movq	%r9, -48(%rbp)
	movq	-8(%rbp), %rdi
	movq	-16(%rbp), %rsi
	movq	-24(%rbp), %rdx
	movq	-32(%rbp), %rcx
	movq	-40(%rbp), %r8
	movq	-48(%rbp), %r9
	movq	16(%rbp), %r11
	movq	24(%rbp), %r10
	movq	(%rdi), %rax
	movq	%r11, (%rsp)
	movq	%r10, 8(%rsp)
	callq	*24(%rax)
	addq	$64, %rsp
	popq	%rbp
	retq
	.cfi_endproc
                                        ## -- End function
	.p2align	4, 0x90                         ## -- Begin function _ZNSt3__115basic_streambufIcNS_11char_traitsIcEEE7__pbumpEl
__ZNSt3__115basic_streambufIcNS_11char_traitsIcEEE7__pbumpEl: ## @_ZNSt3__115basic_streambufIcNS_11char_traitsIcEEE7__pbumpEl
	.cfi_startproc
## %bb.0:
	pushq	%rbp
	.cfi_def_cfa_offset 16
	.cfi_offset %rbp, -16
	movq	%rsp, %rbp
	.cfi_def_cfa_register %rbp
	movq	%rdi, -8(%rbp)
	movq	%rsi, -16(%rbp)
	movq	-8(%rbp), %rax
	movq	-16(%rbp), %rcx
	addq	48(%rax), %rcx
	movq	%rcx, 48(%rax)
	popq	%rbp
	retq
	.cfi_endproc
                                        ## -- End function
	.p2align	4, 0x90                         ## -- Begin function _ZNSt3__19basic_iosIcNS_11char_traitsIcEEEC2Ev
__ZNSt3__19basic_iosIcNS_11char_traitsIcEEEC2Ev: ## @_ZNSt3__19basic_iosIcNS_11char_traitsIcEEEC2Ev
	.cfi_startproc
## %bb.0:
	pushq	%rbp
	.cfi_def_cfa_offset 16
	.cfi_offset %rbp, -16
	movq	%rsp, %rbp
	.cfi_def_cfa_register %rbp
	subq	$16, %rsp
	movq	%rdi, -8(%rbp)
	movq	-8(%rbp), %rdi
	movq	%rdi, -16(%rbp)                 ## 8-byte Spill
	callq	__ZNSt3__18ios_baseC2Ev
	movq	-16(%rbp), %rax                 ## 8-byte Reload
	movq	__ZTVNSt3__19basic_iosIcNS_11char_traitsIcEEEE@GOTPCREL(%rip), %rcx
	addq	$16, %rcx
	movq	%rcx, (%rax)
	addq	$16, %rsp
	popq	%rbp
	retq
	.cfi_endproc
                                        ## -- End function
	.p2align	4, 0x90                         ## -- Begin function _ZNSt3__113basic_istreamIcNS_11char_traitsIcEEEC2EPNS_15basic_streambufIcS2_EE
__ZNSt3__113basic_istreamIcNS_11char_traitsIcEEEC2EPNS_15basic_streambufIcS2_EE: ## @_ZNSt3__113basic_istreamIcNS_11char_traitsIcEEEC2EPNS_15basic_streambufIcS2_EE
	.cfi_startproc
## %bb.0:
	pushq	%rbp
	.cfi_def_cfa_offset 16
	.cfi_offset %rbp, -16
	movq	%rsp, %rbp
	.cfi_def_cfa_register %rbp
	subq	$32, %rsp
	movq	%rdi, -8(%rbp)
	movq	%rsi, -16(%rbp)
	movq	%rdx, -24(%rbp)
	movq	-8(%rbp), %rdi
	movq	-16(%rbp), %rax
	movq	(%rax), %rcx
	movq	%rcx, (%rdi)
	movq	8(%rax), %rcx
	movq	(%rdi), %rax
	movq	-24(%rax), %rax
	movq	%rcx, (%rdi,%rax)
	movq	$0, 8(%rdi)
	movq	(%rdi), %rax
	movq	-24(%rax), %rax
	addq	%rax, %rdi
	movq	-24(%rbp), %rsi
	callq	__ZNSt3__19basic_iosIcNS_11char_traitsIcEEE4initEPNS_15basic_streambufIcS2_EE
	addq	$32, %rsp
	popq	%rbp
	retq
	.cfi_endproc
                                        ## -- End function
	.globl	__ZNSt3__113basic_filebufIcNS_11char_traitsIcEEEC1Ev ## -- Begin function _ZNSt3__113basic_filebufIcNS_11char_traitsIcEEEC1Ev
	.weak_def_can_be_hidden	__ZNSt3__113basic_filebufIcNS_11char_traitsIcEEEC1Ev
	.p2align	4, 0x90
__ZNSt3__113basic_filebufIcNS_11char_traitsIcEEEC1Ev: ## @_ZNSt3__113basic_filebufIcNS_11char_traitsIcEEEC1Ev
	.cfi_startproc
## %bb.0:
	pushq	%rbp
	.cfi_def_cfa_offset 16
	.cfi_offset %rbp, -16
	movq	%rsp, %rbp
	.cfi_def_cfa_register %rbp
	subq	$16, %rsp
	movq	%rdi, -8(%rbp)
	movq	-8(%rbp), %rdi
	callq	__ZNSt3__113basic_filebufIcNS_11char_traitsIcEEEC2Ev
	addq	$16, %rsp
	popq	%rbp
	retq
	.cfi_endproc
                                        ## -- End function
	.p2align	4, 0x90                         ## -- Begin function _ZNSt3__18ios_baseC2Ev
__ZNSt3__18ios_baseC2Ev:                ## @_ZNSt3__18ios_baseC2Ev
	.cfi_startproc
## %bb.0:
	pushq	%rbp
	.cfi_def_cfa_offset 16
	.cfi_offset %rbp, -16
	movq	%rsp, %rbp
	.cfi_def_cfa_register %rbp
	movq	__ZTVNSt3__18ios_baseE@GOTPCREL(%rip), %rcx
	addq	$16, %rcx
	movq	%rdi, -8(%rbp)
	movq	-8(%rbp), %rax
	movq	%rcx, (%rax)
	popq	%rbp
	retq
	.cfi_endproc
                                        ## -- End function
	.p2align	4, 0x90                         ## -- Begin function _ZNSt3__19basic_iosIcNS_11char_traitsIcEEE4initEPNS_15basic_streambufIcS2_EE
__ZNSt3__19basic_iosIcNS_11char_traitsIcEEE4initEPNS_15basic_streambufIcS2_EE: ## @_ZNSt3__19basic_iosIcNS_11char_traitsIcEEE4initEPNS_15basic_streambufIcS2_EE
	.cfi_startproc
## %bb.0:
	pushq	%rbp
	.cfi_def_cfa_offset 16
	.cfi_offset %rbp, -16
	movq	%rsp, %rbp
	.cfi_def_cfa_register %rbp
	subq	$32, %rsp
	movq	%rdi, -8(%rbp)
	movq	%rsi, -16(%rbp)
	movq	-8(%rbp), %rdi
	movq	%rdi, -32(%rbp)                 ## 8-byte Spill
	movq	-16(%rbp), %rsi
	callq	__ZNSt3__18ios_base4initEPv
	callq	__ZNSt3__1L15__get_nullptr_tEv
	movq	%rax, -24(%rbp)
	leaq	-24(%rbp), %rdi
	callq	__ZNKSt3__19nullptr_tcvPT_INS_13basic_ostreamIcNS_11char_traitsIcEEEEEEv
	movq	%rax, %rcx
	movq	-32(%rbp), %rax                 ## 8-byte Reload
	movq	%rcx, 136(%rax)
	callq	__ZNSt3__111char_traitsIcE3eofEv
	movl	%eax, %ecx
	movq	-32(%rbp), %rax                 ## 8-byte Reload
	movl	%ecx, 144(%rax)
	addq	$32, %rsp
	popq	%rbp
	retq
	.cfi_endproc
                                        ## -- End function
	.p2align	4, 0x90                         ## -- Begin function _ZNKSt3__19nullptr_tcvPT_INS_13basic_ostreamIcNS_11char_traitsIcEEEEEEv
__ZNKSt3__19nullptr_tcvPT_INS_13basic_ostreamIcNS_11char_traitsIcEEEEEEv: ## @_ZNKSt3__19nullptr_tcvPT_INS_13basic_ostreamIcNS_11char_traitsIcEEEEEEv
	.cfi_startproc
## %bb.0:
	pushq	%rbp
	.cfi_def_cfa_offset 16
	.cfi_offset %rbp, -16
	movq	%rsp, %rbp
	.cfi_def_cfa_register %rbp
	xorl	%eax, %eax
                                        ## kill: def $rax killed $eax
	movq	%rdi, -8(%rbp)
	popq	%rbp
	retq
	.cfi_endproc
                                        ## -- End function
	.globl	__ZNSt3__113basic_filebufIcNS_11char_traitsIcEEEC2Ev ## -- Begin function _ZNSt3__113basic_filebufIcNS_11char_traitsIcEEEC2Ev
	.weak_def_can_be_hidden	__ZNSt3__113basic_filebufIcNS_11char_traitsIcEEEC2Ev
	.p2align	4, 0x90
__ZNSt3__113basic_filebufIcNS_11char_traitsIcEEEC2Ev: ## @_ZNSt3__113basic_filebufIcNS_11char_traitsIcEEEC2Ev
Lfunc_begin11:
	.cfi_startproc
	.cfi_personality 155, ___gxx_personality_v0
	.cfi_lsda 16, Lexception11
## %bb.0:
	pushq	%rbp
	.cfi_def_cfa_offset 16
	.cfi_offset %rbp, -16
	movq	%rsp, %rbp
	.cfi_def_cfa_register %rbp
	subq	$272, %rsp                      ## imm = 0x110
	movq	%rdi, -8(%rbp)
	movq	-8(%rbp), %rdi
	movq	%rdi, -120(%rbp)                ## 8-byte Spill
	callq	__ZNSt3__115basic_streambufIcNS_11char_traitsIcEEEC2Ev
	movq	-120(%rbp), %rax                ## 8-byte Reload
	movq	__ZTVNSt3__113basic_filebufIcNS_11char_traitsIcEEEE@GOTPCREL(%rip), %rcx
	addq	$16, %rcx
	movq	%rcx, (%rax)
	addq	$64, %rax
	movq	%rax, -112(%rbp)                ## 8-byte Spill
Ltmp121:
	callq	__ZNSt3__1L15__get_nullptr_tEv
	movq	%rax, %rcx
Ltmp122:
	movq	%rcx, -104(%rbp)                ## 8-byte Spill
	jmp	LBB97_1
LBB97_1:
	movq	-104(%rbp), %rax                ## 8-byte Reload
	movq	%rax, -16(%rbp)
	leaq	-16(%rbp), %rdi
	callq	__ZNKSt3__19nullptr_tcvPT_IcEEv
	movq	-112(%rbp), %rcx                ## 8-byte Reload
	movq	%rax, %rsi
	movq	-120(%rbp), %rax                ## 8-byte Reload
	movq	%rsi, (%rcx)
	addq	$72, %rax
	movq	%rax, -136(%rbp)                ## 8-byte Spill
Ltmp123:
	callq	__ZNSt3__1L15__get_nullptr_tEv
	movq	%rax, %rcx
Ltmp124:
	movq	%rcx, -128(%rbp)                ## 8-byte Spill
	jmp	LBB97_2
LBB97_2:
	movq	-128(%rbp), %rax                ## 8-byte Reload
	movq	%rax, -40(%rbp)
Ltmp125:
	leaq	-40(%rbp), %rdi
	callq	__ZNKSt3__19nullptr_tcvPT_IKcEEv
	movq	%rax, %rcx
Ltmp126:
	movq	%rcx, -144(%rbp)                ## 8-byte Spill
	jmp	LBB97_3
LBB97_3:
	movq	-120(%rbp), %rax                ## 8-byte Reload
	movq	-136(%rbp), %rcx                ## 8-byte Reload
	movq	-144(%rbp), %rsi                ## 8-byte Reload
	movq	%rsi, (%rcx)
	addq	$80, %rax
	movq	%rax, -160(%rbp)                ## 8-byte Spill
Ltmp127:
	callq	__ZNSt3__1L15__get_nullptr_tEv
	movq	%rax, %rcx
Ltmp128:
	movq	%rcx, -152(%rbp)                ## 8-byte Spill
	jmp	LBB97_4
LBB97_4:
	movq	-152(%rbp), %rax                ## 8-byte Reload
	movq	%rax, -48(%rbp)
Ltmp129:
	leaq	-48(%rbp), %rdi
	callq	__ZNKSt3__19nullptr_tcvPT_IKcEEv
	movq	%rax, %rcx
Ltmp130:
	movq	%rcx, -168(%rbp)                ## 8-byte Spill
	jmp	LBB97_5
LBB97_5:
	movq	-120(%rbp), %rax                ## 8-byte Reload
	movq	-160(%rbp), %rcx                ## 8-byte Reload
	movq	-168(%rbp), %rsi                ## 8-byte Reload
	movq	%rsi, (%rcx)
	movq	$0, 96(%rax)
	addq	$104, %rax
	movq	%rax, -184(%rbp)                ## 8-byte Spill
Ltmp131:
	callq	__ZNSt3__1L15__get_nullptr_tEv
	movq	%rax, %rcx
Ltmp132:
	movq	%rcx, -176(%rbp)                ## 8-byte Spill
	jmp	LBB97_6
LBB97_6:
	movq	-176(%rbp), %rax                ## 8-byte Reload
	movq	%rax, -56(%rbp)
	leaq	-56(%rbp), %rdi
	callq	__ZNKSt3__19nullptr_tcvPT_IcEEv
	movq	-184(%rbp), %rcx                ## 8-byte Reload
	movq	%rax, %rsi
	movq	-120(%rbp), %rax                ## 8-byte Reload
	movq	%rsi, (%rcx)
	movq	$0, 112(%rax)
	addq	$120, %rax
	movq	%rax, -200(%rbp)                ## 8-byte Spill
Ltmp133:
	callq	__ZNSt3__1L15__get_nullptr_tEv
	movq	%rax, %rcx
Ltmp134:
	movq	%rcx, -192(%rbp)                ## 8-byte Spill
	jmp	LBB97_7
LBB97_7:
	movq	-192(%rbp), %rax                ## 8-byte Reload
	movq	%rax, -64(%rbp)
	leaq	-64(%rbp), %rdi
	callq	__ZNKSt3__19nullptr_tcvPT_I7__sFILEEEv
	movq	-200(%rbp), %rcx                ## 8-byte Reload
	movq	%rax, %rsi
	movq	-120(%rbp), %rax                ## 8-byte Reload
	movq	%rsi, (%rcx)
	subq	$-128, %rax
	movq	%rax, -216(%rbp)                ## 8-byte Spill
Ltmp135:
	callq	__ZNSt3__1L15__get_nullptr_tEv
	movq	%rax, %rcx
Ltmp136:
	movq	%rcx, -208(%rbp)                ## 8-byte Spill
	jmp	LBB97_8
LBB97_8:
	movq	-208(%rbp), %rax                ## 8-byte Reload
	movq	%rax, -72(%rbp)
Ltmp137:
	leaq	-72(%rbp), %rdi
	callq	__ZNKSt3__19nullptr_tcvPT_IKNS_7codecvtIcc11__mbstate_tEEEEv
	movq	%rax, %rcx
Ltmp138:
	movq	%rcx, -224(%rbp)                ## 8-byte Spill
	jmp	LBB97_9
LBB97_9:
	movq	-120(%rbp), %rsi                ## 8-byte Reload
	movq	-216(%rbp), %rcx                ## 8-byte Reload
	movq	-224(%rbp), %rdi                ## 8-byte Reload
	movq	%rdi, (%rcx)
	xorps	%xmm0, %xmm0
	movaps	%xmm0, -240(%rbp)               ## 16-byte Spill
	movups	%xmm0, 248(%rsi)
	movups	%xmm0, 232(%rsi)
	movups	%xmm0, 216(%rsi)
	movups	%xmm0, 200(%rsi)
	movups	%xmm0, 184(%rsi)
	movups	%xmm0, 168(%rsi)
	movups	%xmm0, 152(%rsi)
	movups	%xmm0, 136(%rsi)
	movups	%xmm0, 376(%rsi)
	movups	%xmm0, 360(%rsi)
	movups	%xmm0, 344(%rsi)
	movups	%xmm0, 328(%rsi)
	movups	%xmm0, 312(%rsi)
	movups	%xmm0, 296(%rsi)
	movups	%xmm0, 280(%rsi)
	movups	%xmm0, 264(%rsi)
	movl	$0, 392(%rsi)
	movl	$0, 396(%rsi)
	movb	$0, 400(%rsi)
	movb	$0, 401(%rsi)
	movb	$0, 402(%rsi)
Ltmp139:
	leaq	-80(%rbp), %rdi
	callq	__ZNKSt3__115basic_streambufIcNS_11char_traitsIcEEE6getlocEv
Ltmp140:
	jmp	LBB97_10
LBB97_10:
	leaq	-80(%rbp), %rdi
	movq	%rdi, -256(%rbp)                ## 8-byte Spill
	callq	__ZNSt3__1L9has_facetINS_7codecvtIcc11__mbstate_tEEEEbRKNS_6localeE
	movq	-256(%rbp), %rdi                ## 8-byte Reload
	movb	%al, %cl
	movb	%cl, -241(%rbp)                 ## 1-byte Spill
Ltmp141:
	callq	__ZNSt3__16localeD1Ev
Ltmp142:
	jmp	LBB97_11
LBB97_11:
	movb	-241(%rbp), %al                 ## 1-byte Reload
	testb	$1, %al
	jne	LBB97_12
	jmp	LBB97_19
LBB97_12:
Ltmp143:
	movq	-120(%rbp), %rsi                ## 8-byte Reload
	leaq	-88(%rbp), %rdi
	callq	__ZNKSt3__115basic_streambufIcNS_11char_traitsIcEEE6getlocEv
Ltmp144:
	jmp	LBB97_13
LBB97_13:
Ltmp145:
	leaq	-88(%rbp), %rdi
	callq	__ZNSt3__1L9use_facetINS_7codecvtIcc11__mbstate_tEEEERKT_RKNS_6localeE
	movq	%rax, %rcx
Ltmp146:
	movq	%rcx, -264(%rbp)                ## 8-byte Spill
	jmp	LBB97_14
LBB97_14:
	movq	-120(%rbp), %rcx                ## 8-byte Reload
	movq	-264(%rbp), %rsi                ## 8-byte Reload
	movq	%rsi, 128(%rcx)
Ltmp150:
	leaq	-88(%rbp), %rdi
	callq	__ZNSt3__16localeD1Ev
Ltmp151:
	jmp	LBB97_15
LBB97_15:
	movq	-120(%rbp), %rax                ## 8-byte Reload
	movq	128(%rax), %rdi
	callq	__ZNKSt3__17codecvtIcc11__mbstate_tE13always_noconvEv
	movb	%al, %cl
	movq	-120(%rbp), %rax                ## 8-byte Reload
	andb	$1, %cl
	movb	%cl, 402(%rax)
	jmp	LBB97_19
LBB97_16:
Ltmp156:
	movq	%rax, %rcx
	movl	%edx, %eax
	movq	%rcx, -24(%rbp)
	movl	%eax, -28(%rbp)
	jmp	LBB97_22
LBB97_17:
Ltmp147:
	movq	%rdx, %rcx
	movq	%rax, %rsi
                                        ## kill: def $ecx killed $ecx killed $rcx
	movq	%rsi, -24(%rbp)
	movl	%ecx, -28(%rbp)
Ltmp148:
	leaq	-88(%rbp), %rdi
	callq	__ZNSt3__16localeD1Ev
Ltmp149:
	jmp	LBB97_18
LBB97_18:
	jmp	LBB97_22
LBB97_19:
Ltmp152:
	callq	__ZNSt3__1L15__get_nullptr_tEv
	movq	%rax, %rcx
Ltmp153:
	movq	%rcx, -272(%rbp)                ## 8-byte Spill
	jmp	LBB97_20
LBB97_20:
	movq	-272(%rbp), %rax                ## 8-byte Reload
	movq	%rax, -96(%rbp)
	leaq	-96(%rbp), %rdi
	callq	__ZNKSt3__19nullptr_tcvPT_IcEEv
	movq	-120(%rbp), %rdi                ## 8-byte Reload
	movq	%rax, %rsi
	movq	(%rdi), %rax
	movq	24(%rax), %rax
Ltmp154:
	movl	$4096, %edx                     ## imm = 0x1000
	callq	*%rax
                                        ## kill: def $rcx killed $rax
Ltmp155:
	jmp	LBB97_21
LBB97_21:
	addq	$272, %rsp                      ## imm = 0x110
	popq	%rbp
	retq
LBB97_22:
Ltmp157:
	movq	-120(%rbp), %rdi                ## 8-byte Reload
	callq	__ZNSt3__115basic_streambufIcNS_11char_traitsIcEEED2Ev
Ltmp158:
	jmp	LBB97_23
LBB97_23:
	jmp	LBB97_24
LBB97_24:
	movq	-24(%rbp), %rdi
	callq	__Unwind_Resume
LBB97_25:
Ltmp159:
	movq	%rax, %rdi
	callq	___clang_call_terminate
Lfunc_end11:
	.cfi_endproc
	.section	__TEXT,__gcc_except_tab
	.p2align	2
GCC_except_table97:
Lexception11:
	.byte	255                             ## @LPStart Encoding = omit
	.byte	155                             ## @TType Encoding = indirect pcrel sdata4
	.uleb128 Lttbase9-Lttbaseref9
Lttbaseref9:
	.byte	1                               ## Call site Encoding = uleb128
	.uleb128 Lcst_end11-Lcst_begin11
Lcst_begin11:
	.uleb128 Lfunc_begin11-Lfunc_begin11    ## >> Call Site 1 <<
	.uleb128 Ltmp121-Lfunc_begin11          ##   Call between Lfunc_begin11 and Ltmp121
	.byte	0                               ##     has no landing pad
	.byte	0                               ##   On action: cleanup
	.uleb128 Ltmp121-Lfunc_begin11          ## >> Call Site 2 <<
	.uleb128 Ltmp144-Ltmp121                ##   Call between Ltmp121 and Ltmp144
	.uleb128 Ltmp156-Lfunc_begin11          ##     jumps to Ltmp156
	.byte	0                               ##   On action: cleanup
	.uleb128 Ltmp145-Lfunc_begin11          ## >> Call Site 3 <<
	.uleb128 Ltmp146-Ltmp145                ##   Call between Ltmp145 and Ltmp146
	.uleb128 Ltmp147-Lfunc_begin11          ##     jumps to Ltmp147
	.byte	0                               ##   On action: cleanup
	.uleb128 Ltmp150-Lfunc_begin11          ## >> Call Site 4 <<
	.uleb128 Ltmp151-Ltmp150                ##   Call between Ltmp150 and Ltmp151
	.uleb128 Ltmp156-Lfunc_begin11          ##     jumps to Ltmp156
	.byte	0                               ##   On action: cleanup
	.uleb128 Ltmp148-Lfunc_begin11          ## >> Call Site 5 <<
	.uleb128 Ltmp149-Ltmp148                ##   Call between Ltmp148 and Ltmp149
	.uleb128 Ltmp159-Lfunc_begin11          ##     jumps to Ltmp159
	.byte	1                               ##   On action: 1
	.uleb128 Ltmp152-Lfunc_begin11          ## >> Call Site 6 <<
	.uleb128 Ltmp155-Ltmp152                ##   Call between Ltmp152 and Ltmp155
	.uleb128 Ltmp156-Lfunc_begin11          ##     jumps to Ltmp156
	.byte	0                               ##   On action: cleanup
	.uleb128 Ltmp157-Lfunc_begin11          ## >> Call Site 7 <<
	.uleb128 Ltmp158-Ltmp157                ##   Call between Ltmp157 and Ltmp158
	.uleb128 Ltmp159-Lfunc_begin11          ##     jumps to Ltmp159
	.byte	1                               ##   On action: 1
	.uleb128 Ltmp158-Lfunc_begin11          ## >> Call Site 8 <<
	.uleb128 Lfunc_end11-Ltmp158            ##   Call between Ltmp158 and Lfunc_end11
	.byte	0                               ##     has no landing pad
	.byte	0                               ##   On action: cleanup
Lcst_end11:
	.byte	1                               ## >> Action Record 1 <<
                                        ##   Catch TypeInfo 1
	.byte	0                               ##   No further actions
	.p2align	2
                                        ## >> Catch TypeInfos <<
	.long	0                               ## TypeInfo 1
Lttbase9:
	.p2align	2
                                        ## -- End function
	.section	__TEXT,__text,regular,pure_instructions
	.p2align	4, 0x90                         ## -- Begin function _ZNKSt3__19nullptr_tcvPT_IKcEEv
__ZNKSt3__19nullptr_tcvPT_IKcEEv:       ## @_ZNKSt3__19nullptr_tcvPT_IKcEEv
	.cfi_startproc
## %bb.0:
	pushq	%rbp
	.cfi_def_cfa_offset 16
	.cfi_offset %rbp, -16
	movq	%rsp, %rbp
	.cfi_def_cfa_register %rbp
	xorl	%eax, %eax
                                        ## kill: def $rax killed $eax
	movq	%rdi, -8(%rbp)
	popq	%rbp
	retq
	.cfi_endproc
                                        ## -- End function
	.p2align	4, 0x90                         ## -- Begin function _ZNKSt3__19nullptr_tcvPT_IKNS_7codecvtIcc11__mbstate_tEEEEv
__ZNKSt3__19nullptr_tcvPT_IKNS_7codecvtIcc11__mbstate_tEEEEv: ## @_ZNKSt3__19nullptr_tcvPT_IKNS_7codecvtIcc11__mbstate_tEEEEv
	.cfi_startproc
## %bb.0:
	pushq	%rbp
	.cfi_def_cfa_offset 16
	.cfi_offset %rbp, -16
	movq	%rsp, %rbp
	.cfi_def_cfa_register %rbp
	xorl	%eax, %eax
                                        ## kill: def $rax killed $eax
	movq	%rdi, -8(%rbp)
	popq	%rbp
	retq
	.cfi_endproc
                                        ## -- End function
	.p2align	4, 0x90                         ## -- Begin function _ZNSt3__1L9has_facetINS_7codecvtIcc11__mbstate_tEEEEbRKNS_6localeE
__ZNSt3__1L9has_facetINS_7codecvtIcc11__mbstate_tEEEEbRKNS_6localeE: ## @_ZNSt3__1L9has_facetINS_7codecvtIcc11__mbstate_tEEEEbRKNS_6localeE
Lfunc_begin12:
	.cfi_startproc
	.cfi_personality 155, ___gxx_personality_v0
	.cfi_lsda 16, Lexception12
## %bb.0:
	pushq	%rbp
	.cfi_def_cfa_offset 16
	.cfi_offset %rbp, -16
	movq	%rsp, %rbp
	.cfi_def_cfa_register %rbp
	subq	$32, %rsp
	movq	%rdi, -8(%rbp)
	movq	-8(%rbp), %rdi
Ltmp160:
	movq	__ZNSt3__17codecvtIcc11__mbstate_tE2idE@GOTPCREL(%rip), %rsi
	callq	__ZNKSt3__16locale9has_facetERNS0_2idE
	movb	%al, %cl
Ltmp161:
	movb	%cl, -21(%rbp)                  ## 1-byte Spill
	jmp	LBB100_1
LBB100_1:
	movb	-21(%rbp), %al                  ## 1-byte Reload
	andb	$1, %al
	movzbl	%al, %eax
	addq	$32, %rsp
	popq	%rbp
	retq
LBB100_2:
Ltmp162:
	movq	%rax, %rcx
	movl	%edx, %eax
	movq	%rcx, -16(%rbp)
	movl	%eax, -20(%rbp)
## %bb.3:
	movq	-16(%rbp), %rdi
	callq	___cxa_call_unexpected
Lfunc_end12:
	.cfi_endproc
	.section	__TEXT,__gcc_except_tab
	.p2align	2
GCC_except_table100:
Lexception12:
	.byte	255                             ## @LPStart Encoding = omit
	.byte	155                             ## @TType Encoding = indirect pcrel sdata4
	.uleb128 Lttbase10-Lttbaseref10
Lttbaseref10:
	.byte	1                               ## Call site Encoding = uleb128
	.uleb128 Lcst_end12-Lcst_begin12
Lcst_begin12:
	.uleb128 Ltmp160-Lfunc_begin12          ## >> Call Site 1 <<
	.uleb128 Ltmp161-Ltmp160                ##   Call between Ltmp160 and Ltmp161
	.uleb128 Ltmp162-Lfunc_begin12          ##     jumps to Ltmp162
	.byte	1                               ##   On action: 1
	.uleb128 Ltmp161-Lfunc_begin12          ## >> Call Site 2 <<
	.uleb128 Lfunc_end12-Ltmp161            ##   Call between Ltmp161 and Lfunc_end12
	.byte	0                               ##     has no landing pad
	.byte	0                               ##   On action: cleanup
Lcst_end12:
	.byte	127                             ## >> Action Record 1 <<
                                        ##   Filter TypeInfo -1
	.byte	0                               ##   No further actions
	.p2align	2
Lttbase10:
                                        ## >> Filter TypeInfos <<
	.byte	0
	.p2align	2
                                        ## -- End function
	.section	__TEXT,__text,regular,pure_instructions
	.p2align	4, 0x90                         ## -- Begin function _ZNKSt3__115basic_streambufIcNS_11char_traitsIcEEE6getlocEv
__ZNKSt3__115basic_streambufIcNS_11char_traitsIcEEE6getlocEv: ## @_ZNKSt3__115basic_streambufIcNS_11char_traitsIcEEE6getlocEv
	.cfi_startproc
## %bb.0:
	pushq	%rbp
	.cfi_def_cfa_offset 16
	.cfi_offset %rbp, -16
	movq	%rsp, %rbp
	.cfi_def_cfa_register %rbp
	subq	$32, %rsp
	movq	%rdi, %rax
	movq	%rax, -24(%rbp)                 ## 8-byte Spill
	movq	%rdi, %rax
	movq	%rax, -8(%rbp)
	movq	%rsi, -16(%rbp)
	movq	-16(%rbp), %rsi
	addq	$8, %rsi
	callq	__ZNSt3__16localeC1ERKS0_
	movq	-24(%rbp), %rax                 ## 8-byte Reload
	addq	$32, %rsp
	popq	%rbp
	retq
	.cfi_endproc
                                        ## -- End function
	.globl	__ZNSt3__113basic_filebufIcNS_11char_traitsIcEEE4openEPKcj ## -- Begin function _ZNSt3__113basic_filebufIcNS_11char_traitsIcEEE4openEPKcj
	.weak_definition	__ZNSt3__113basic_filebufIcNS_11char_traitsIcEEE4openEPKcj
	.p2align	4, 0x90
__ZNSt3__113basic_filebufIcNS_11char_traitsIcEEE4openEPKcj: ## @_ZNSt3__113basic_filebufIcNS_11char_traitsIcEEE4openEPKcj
	.cfi_startproc
## %bb.0:
	pushq	%rbp
	.cfi_def_cfa_offset 16
	.cfi_offset %rbp, -16
	movq	%rsp, %rbp
	.cfi_def_cfa_register %rbp
	subq	$96, %rsp
	movq	%rdi, -8(%rbp)
	movq	%rsi, -16(%rbp)
	movl	%edx, -20(%rbp)
	movq	-8(%rbp), %rax
	movq	%rax, -96(%rbp)                 ## 8-byte Spill
	callq	__ZNSt3__1L15__get_nullptr_tEv
	movq	%rax, -40(%rbp)
	leaq	-40(%rbp), %rdi
	callq	__ZNKSt3__19nullptr_tcvPT_INS_13basic_filebufIcNS_11char_traitsIcEEEEEEv
	movq	%rax, %rcx
	movq	-96(%rbp), %rax                 ## 8-byte Reload
	movq	%rcx, -32(%rbp)
	movq	120(%rax), %rax
	movq	%rax, -88(%rbp)                 ## 8-byte Spill
	callq	__ZNSt3__1L15__get_nullptr_tEv
	movq	%rax, -48(%rbp)
	leaq	-48(%rbp), %rdi
	callq	__ZNKSt3__19nullptr_tcvPT_I7__sFILEEEv
	movq	%rax, %rcx
	movq	-88(%rbp), %rax                 ## 8-byte Reload
	cmpq	%rcx, %rax
	jne	LBB102_11
## %bb.1:
	movl	-20(%rbp), %edi
	callq	__ZNSt3__113basic_filebufIcNS_11char_traitsIcEEE15__make_mdstringEj
	movq	%rax, -56(%rbp)
	cmpq	$0, -56(%rbp)
	je	LBB102_10
## %bb.2:
	movq	-96(%rbp), %rax                 ## 8-byte Reload
	movq	%rax, -32(%rbp)
	movq	-16(%rbp), %rdi
	movq	-56(%rbp), %rsi
	callq	_fopen
	movq	%rax, %rcx
	movq	-96(%rbp), %rax                 ## 8-byte Reload
	movq	%rcx, 120(%rax)
	cmpq	$0, 120(%rax)
	je	LBB102_8
## %bb.3:
	movq	-96(%rbp), %rax                 ## 8-byte Reload
	movl	-20(%rbp), %ecx
	movl	%ecx, 392(%rax)
	movl	-20(%rbp), %eax
	andl	$2, %eax
	cmpl	$0, %eax
	je	LBB102_7
## %bb.4:
	movq	-96(%rbp), %rax                 ## 8-byte Reload
	xorl	%ecx, %ecx
	movl	%ecx, %esi
	movq	120(%rax), %rdi
	movl	$2, %edx
	callq	_fseek
	cmpl	$0, %eax
	je	LBB102_6
## %bb.5:
	movq	-96(%rbp), %rax                 ## 8-byte Reload
	movq	120(%rax), %rdi
	callq	_fclose
	callq	__ZNSt3__1L15__get_nullptr_tEv
	movq	%rax, -64(%rbp)
	leaq	-64(%rbp), %rdi
	callq	__ZNKSt3__19nullptr_tcvPT_I7__sFILEEEv
	movq	%rax, %rcx
	movq	-96(%rbp), %rax                 ## 8-byte Reload
	movq	%rcx, 120(%rax)
	callq	__ZNSt3__1L15__get_nullptr_tEv
	movq	%rax, -72(%rbp)
	leaq	-72(%rbp), %rdi
	callq	__ZNKSt3__19nullptr_tcvPT_INS_13basic_filebufIcNS_11char_traitsIcEEEEEEv
	movq	%rax, -32(%rbp)
LBB102_6:
	jmp	LBB102_7
LBB102_7:
	jmp	LBB102_9
LBB102_8:
	callq	__ZNSt3__1L15__get_nullptr_tEv
	movq	%rax, -80(%rbp)
	leaq	-80(%rbp), %rdi
	callq	__ZNKSt3__19nullptr_tcvPT_INS_13basic_filebufIcNS_11char_traitsIcEEEEEEv
	movq	%rax, -32(%rbp)
LBB102_9:
	jmp	LBB102_10
LBB102_10:
	jmp	LBB102_11
LBB102_11:
	movq	-32(%rbp), %rax
	addq	$96, %rsp
	popq	%rbp
	retq
	.cfi_endproc
                                        ## -- End function
	.p2align	4, 0x90                         ## -- Begin function _ZNSt3__19basic_iosIcNS_11char_traitsIcEEE5clearEj
__ZNSt3__19basic_iosIcNS_11char_traitsIcEEE5clearEj: ## @_ZNSt3__19basic_iosIcNS_11char_traitsIcEEE5clearEj
	.cfi_startproc
## %bb.0:
	pushq	%rbp
	.cfi_def_cfa_offset 16
	.cfi_offset %rbp, -16
	movq	%rsp, %rbp
	.cfi_def_cfa_register %rbp
	subq	$16, %rsp
	movq	%rdi, -8(%rbp)
	movl	%esi, -12(%rbp)
	movq	-8(%rbp), %rdi
	movl	-12(%rbp), %esi
	callq	__ZNSt3__18ios_base5clearEj
	addq	$16, %rsp
	popq	%rbp
	retq
	.cfi_endproc
                                        ## -- End function
	.p2align	4, 0x90                         ## -- Begin function _ZNSt3__19basic_iosIcNS_11char_traitsIcEEE8setstateEj
__ZNSt3__19basic_iosIcNS_11char_traitsIcEEE8setstateEj: ## @_ZNSt3__19basic_iosIcNS_11char_traitsIcEEE8setstateEj
	.cfi_startproc
## %bb.0:
	pushq	%rbp
	.cfi_def_cfa_offset 16
	.cfi_offset %rbp, -16
	movq	%rsp, %rbp
	.cfi_def_cfa_register %rbp
	subq	$16, %rsp
	movq	%rdi, -8(%rbp)
	movl	%esi, -12(%rbp)
	movq	-8(%rbp), %rdi
	movl	-12(%rbp), %esi
	callq	__ZNSt3__18ios_base8setstateEj
	addq	$16, %rsp
	popq	%rbp
	retq
	.cfi_endproc
                                        ## -- End function
	.p2align	4, 0x90                         ## -- Begin function _ZNSt3__113basic_filebufIcNS_11char_traitsIcEEE15__make_mdstringEj
__ZNSt3__113basic_filebufIcNS_11char_traitsIcEEE15__make_mdstringEj: ## @_ZNSt3__113basic_filebufIcNS_11char_traitsIcEEE15__make_mdstringEj
Lfunc_begin13:
	.cfi_startproc
	.cfi_personality 155, ___gxx_personality_v0
	.cfi_lsda 16, Lexception13
## %bb.0:
	pushq	%rbp
	.cfi_def_cfa_offset 16
	.cfi_offset %rbp, -16
	movq	%rsp, %rbp
	.cfi_def_cfa_register %rbp
	subq	$64, %rsp
	movl	%edi, -12(%rbp)
	movl	-12(%rbp), %eax
	andl	$-3, %eax
	addl	$-1, %eax
	movl	%eax, %ecx
	movq	%rcx, -48(%rbp)                 ## 8-byte Spill
	subl	$59, %eax
	ja	LBB105_13
## %bb.18:
	movq	-48(%rbp), %rax                 ## 8-byte Reload
	leaq	LJTI105_0(%rip), %rcx
	movslq	(%rcx,%rax,4), %rax
	addq	%rcx, %rax
	jmpq	*%rax
LBB105_1:
	leaq	L_.str.2(%rip), %rax
	movq	%rax, -8(%rbp)
	jmp	LBB105_17
LBB105_2:
	leaq	L_.str.3(%rip), %rax
	movq	%rax, -8(%rbp)
	jmp	LBB105_17
LBB105_3:
	leaq	L_.str.4(%rip), %rax
	movq	%rax, -8(%rbp)
	jmp	LBB105_17
LBB105_4:
	leaq	L_.str.5(%rip), %rax
	movq	%rax, -8(%rbp)
	jmp	LBB105_17
LBB105_5:
	leaq	L_.str.6(%rip), %rax
	movq	%rax, -8(%rbp)
	jmp	LBB105_17
LBB105_6:
	leaq	L_.str.7(%rip), %rax
	movq	%rax, -8(%rbp)
	jmp	LBB105_17
LBB105_7:
	leaq	L_.str.8(%rip), %rax
	movq	%rax, -8(%rbp)
	jmp	LBB105_17
LBB105_8:
	leaq	L_.str.9(%rip), %rax
	movq	%rax, -8(%rbp)
	jmp	LBB105_17
LBB105_9:
	leaq	L_.str.10(%rip), %rax
	movq	%rax, -8(%rbp)
	jmp	LBB105_17
LBB105_10:
	leaq	L_.str.11(%rip), %rax
	movq	%rax, -8(%rbp)
	jmp	LBB105_17
LBB105_11:
	leaq	L_.str.12(%rip), %rax
	movq	%rax, -8(%rbp)
	jmp	LBB105_17
LBB105_12:
	leaq	L_.str.13(%rip), %rax
	movq	%rax, -8(%rbp)
	jmp	LBB105_17
LBB105_13:
Ltmp163:
	callq	__ZNSt3__1L15__get_nullptr_tEv
	movq	%rax, %rcx
Ltmp164:
	movq	%rcx, -56(%rbp)                 ## 8-byte Spill
	jmp	LBB105_14
LBB105_14:
	movq	-56(%rbp), %rax                 ## 8-byte Reload
	movq	%rax, -24(%rbp)
	leaq	-24(%rbp), %rdi
	callq	__ZNKSt3__19nullptr_tcvPT_IKcEEv
	movq	%rax, -8(%rbp)
	jmp	LBB105_17
LBB105_15:
Ltmp165:
	movq	%rax, %rcx
	movl	%edx, %eax
	movq	%rcx, -32(%rbp)
	movl	%eax, -36(%rbp)
## %bb.16:
	movq	-32(%rbp), %rdi
	callq	___cxa_call_unexpected
LBB105_17:
	movq	-8(%rbp), %rax
	addq	$64, %rsp
	popq	%rbp
	retq
Lfunc_end13:
	.cfi_endproc
	.p2align	2, 0x90
	.data_region jt32
.set L105_0_set_2, LBB105_2-LJTI105_0
.set L105_0_set_13, LBB105_13-LJTI105_0
.set L105_0_set_8, LBB105_8-LJTI105_0
.set L105_0_set_3, LBB105_3-LJTI105_0
.set L105_0_set_6, LBB105_6-LJTI105_0
.set L105_0_set_9, LBB105_9-LJTI105_0
.set L105_0_set_12, LBB105_12-LJTI105_0
.set L105_0_set_1, LBB105_1-LJTI105_0
.set L105_0_set_7, LBB105_7-LJTI105_0
.set L105_0_set_4, LBB105_4-LJTI105_0
.set L105_0_set_10, LBB105_10-LJTI105_0
.set L105_0_set_5, LBB105_5-LJTI105_0
.set L105_0_set_11, LBB105_11-LJTI105_0
LJTI105_0:
	.long	L105_0_set_2
	.long	L105_0_set_13
	.long	L105_0_set_13
	.long	L105_0_set_13
	.long	L105_0_set_8
	.long	L105_0_set_13
	.long	L105_0_set_13
	.long	L105_0_set_3
	.long	L105_0_set_6
	.long	L105_0_set_13
	.long	L105_0_set_13
	.long	L105_0_set_9
	.long	L105_0_set_12
	.long	L105_0_set_13
	.long	L105_0_set_13
	.long	L105_0_set_1
	.long	L105_0_set_2
	.long	L105_0_set_13
	.long	L105_0_set_13
	.long	L105_0_set_7
	.long	L105_0_set_8
	.long	L105_0_set_13
	.long	L105_0_set_13
	.long	L105_0_set_4
	.long	L105_0_set_6
	.long	L105_0_set_13
	.long	L105_0_set_13
	.long	L105_0_set_10
	.long	L105_0_set_12
	.long	L105_0_set_13
	.long	L105_0_set_13
	.long	L105_0_set_13
	.long	L105_0_set_13
	.long	L105_0_set_13
	.long	L105_0_set_13
	.long	L105_0_set_13
	.long	L105_0_set_13
	.long	L105_0_set_13
	.long	L105_0_set_13
	.long	L105_0_set_13
	.long	L105_0_set_13
	.long	L105_0_set_13
	.long	L105_0_set_13
	.long	L105_0_set_13
	.long	L105_0_set_13
	.long	L105_0_set_13
	.long	L105_0_set_13
	.long	L105_0_set_1
	.long	L105_0_set_13
	.long	L105_0_set_13
	.long	L105_0_set_13
	.long	L105_0_set_7
	.long	L105_0_set_13
	.long	L105_0_set_13
	.long	L105_0_set_13
	.long	L105_0_set_5
	.long	L105_0_set_13
	.long	L105_0_set_13
	.long	L105_0_set_13
	.long	L105_0_set_11
	.end_data_region
	.section	__TEXT,__gcc_except_tab
	.p2align	2
GCC_except_table105:
Lexception13:
	.byte	255                             ## @LPStart Encoding = omit
	.byte	155                             ## @TType Encoding = indirect pcrel sdata4
	.uleb128 Lttbase11-Lttbaseref11
Lttbaseref11:
	.byte	1                               ## Call site Encoding = uleb128
	.uleb128 Lcst_end13-Lcst_begin13
Lcst_begin13:
	.uleb128 Ltmp163-Lfunc_begin13          ## >> Call Site 1 <<
	.uleb128 Ltmp164-Ltmp163                ##   Call between Ltmp163 and Ltmp164
	.uleb128 Ltmp165-Lfunc_begin13          ##     jumps to Ltmp165
	.byte	1                               ##   On action: 1
	.uleb128 Ltmp164-Lfunc_begin13          ## >> Call Site 2 <<
	.uleb128 Lfunc_end13-Ltmp164            ##   Call between Ltmp164 and Lfunc_end13
	.byte	0                               ##     has no landing pad
	.byte	0                               ##   On action: cleanup
Lcst_end13:
	.byte	127                             ## >> Action Record 1 <<
                                        ##   Filter TypeInfo -1
	.byte	0                               ##   No further actions
	.p2align	2
Lttbase11:
                                        ## >> Filter TypeInfos <<
	.byte	0
	.p2align	2
                                        ## -- End function
	.section	__TEXT,__text,regular,pure_instructions
	.p2align	4, 0x90                         ## -- Begin function _ZNSt3__18ios_base8setstateEj
__ZNSt3__18ios_base8setstateEj:         ## @_ZNSt3__18ios_base8setstateEj
	.cfi_startproc
## %bb.0:
	pushq	%rbp
	.cfi_def_cfa_offset 16
	.cfi_offset %rbp, -16
	movq	%rsp, %rbp
	.cfi_def_cfa_register %rbp
	subq	$16, %rsp
	movq	%rdi, -8(%rbp)
	movl	%esi, -12(%rbp)
	movq	-8(%rbp), %rdi
	movl	32(%rdi), %esi
	orl	-12(%rbp), %esi
	callq	__ZNSt3__18ios_base5clearEj
	addq	$16, %rsp
	popq	%rbp
	retq
	.cfi_endproc
                                        ## -- End function
	.p2align	4, 0x90                         ## -- Begin function _ZNSt3__112basic_stringIcNS_11char_traitsIcEENS_9allocatorIcEEEC2Ev
__ZNSt3__112basic_stringIcNS_11char_traitsIcEENS_9allocatorIcEEEC2Ev: ## @_ZNSt3__112basic_stringIcNS_11char_traitsIcEENS_9allocatorIcEEEC2Ev
	.cfi_startproc
## %bb.0:
	pushq	%rbp
	.cfi_def_cfa_offset 16
	.cfi_offset %rbp, -16
	movq	%rsp, %rbp
	.cfi_def_cfa_register %rbp
	subq	$32, %rsp
	movq	%rdi, -8(%rbp)
	movq	-8(%rbp), %rdi
	movq	%rdi, -32(%rbp)                 ## 8-byte Spill
	leaq	-16(%rbp), %rsi
	leaq	-24(%rbp), %rdx
	callq	__ZNSt3__117__compressed_pairINS_12basic_stringIcNS_11char_traitsIcEENS_9allocatorIcEEE5__repES5_EC1INS_18__default_init_tagESA_EEOT_OT0_
	movq	-32(%rbp), %rdi                 ## 8-byte Reload
	callq	__ZNSt3__112basic_stringIcNS_11char_traitsIcEENS_9allocatorIcEEE6__zeroEv
	addq	$32, %rsp
	popq	%rbp
	retq
	.cfi_endproc
                                        ## -- End function
	.p2align	4, 0x90                         ## -- Begin function _ZNSt3__117__compressed_pairINS_12basic_stringIcNS_11char_traitsIcEENS_9allocatorIcEEE5__repES5_EC1INS_18__default_init_tagESA_EEOT_OT0_
__ZNSt3__117__compressed_pairINS_12basic_stringIcNS_11char_traitsIcEENS_9allocatorIcEEE5__repES5_EC1INS_18__default_init_tagESA_EEOT_OT0_: ## @_ZNSt3__117__compressed_pairINS_12basic_stringIcNS_11char_traitsIcEENS_9allocatorIcEEE5__repES5_EC1INS_18__default_init_tagESA_EEOT_OT0_
	.cfi_startproc
## %bb.0:
	pushq	%rbp
	.cfi_def_cfa_offset 16
	.cfi_offset %rbp, -16
	movq	%rsp, %rbp
	.cfi_def_cfa_register %rbp
	subq	$32, %rsp
	movq	%rdi, -8(%rbp)
	movq	%rsi, -16(%rbp)
	movq	%rdx, -24(%rbp)
	movq	-8(%rbp), %rdi
	movq	-16(%rbp), %rsi
	movq	-24(%rbp), %rdx
	callq	__ZNSt3__117__compressed_pairINS_12basic_stringIcNS_11char_traitsIcEENS_9allocatorIcEEE5__repES5_EC2INS_18__default_init_tagESA_EEOT_OT0_
	addq	$32, %rsp
	popq	%rbp
	retq
	.cfi_endproc
                                        ## -- End function
	.p2align	4, 0x90                         ## -- Begin function _ZNSt3__112basic_stringIcNS_11char_traitsIcEENS_9allocatorIcEEE6__zeroEv
__ZNSt3__112basic_stringIcNS_11char_traitsIcEENS_9allocatorIcEEE6__zeroEv: ## @_ZNSt3__112basic_stringIcNS_11char_traitsIcEENS_9allocatorIcEEE6__zeroEv
	.cfi_startproc
## %bb.0:
	pushq	%rbp
	.cfi_def_cfa_offset 16
	.cfi_offset %rbp, -16
	movq	%rsp, %rbp
	.cfi_def_cfa_register %rbp
	subq	$32, %rsp
	movq	%rdi, -8(%rbp)
	movq	-8(%rbp), %rdi
	callq	__ZNSt3__117__compressed_pairINS_12basic_stringIcNS_11char_traitsIcEENS_9allocatorIcEEE5__repES5_E5firstEv
	movq	%rax, -16(%rbp)
	movl	$0, -20(%rbp)
LBB109_1:                               ## =>This Inner Loop Header: Depth=1
	cmpl	$3, -20(%rbp)
	jae	LBB109_4
## %bb.2:                               ##   in Loop: Header=BB109_1 Depth=1
	movq	-16(%rbp), %rax
	movl	-20(%rbp), %ecx
                                        ## kill: def $rcx killed $ecx
	movq	$0, (%rax,%rcx,8)
## %bb.3:                               ##   in Loop: Header=BB109_1 Depth=1
	movl	-20(%rbp), %eax
	addl	$1, %eax
	movl	%eax, -20(%rbp)
	jmp	LBB109_1
LBB109_4:
	addq	$32, %rsp
	popq	%rbp
	retq
	.cfi_endproc
                                        ## -- End function
	.p2align	4, 0x90                         ## -- Begin function _ZNSt3__117__compressed_pairINS_12basic_stringIcNS_11char_traitsIcEENS_9allocatorIcEEE5__repES5_EC2INS_18__default_init_tagESA_EEOT_OT0_
__ZNSt3__117__compressed_pairINS_12basic_stringIcNS_11char_traitsIcEENS_9allocatorIcEEE5__repES5_EC2INS_18__default_init_tagESA_EEOT_OT0_: ## @_ZNSt3__117__compressed_pairINS_12basic_stringIcNS_11char_traitsIcEENS_9allocatorIcEEE5__repES5_EC2INS_18__default_init_tagESA_EEOT_OT0_
	.cfi_startproc
## %bb.0:
	pushq	%rbp
	.cfi_def_cfa_offset 16
	.cfi_offset %rbp, -16
	movq	%rsp, %rbp
	.cfi_def_cfa_register %rbp
	subq	$64, %rsp
	movq	%rdi, -8(%rbp)
	movq	%rsi, -16(%rbp)
	movq	%rdx, -24(%rbp)
	movq	-8(%rbp), %rax
	movq	%rax, -56(%rbp)                 ## 8-byte Spill
	movq	%rax, -64(%rbp)                 ## 8-byte Spill
	movq	-16(%rbp), %rdi
	callq	__ZNSt3__1L7forwardINS_18__default_init_tagEEEOT_RNS_16remove_referenceIS2_E4typeE
	movq	-64(%rbp), %rdi                 ## 8-byte Reload
	callq	__ZNSt3__122__compressed_pair_elemINS_12basic_stringIcNS_11char_traitsIcEENS_9allocatorIcEEE5__repELi0ELb0EEC2ENS_18__default_init_tagE
	movq	-56(%rbp), %rax                 ## 8-byte Reload
	movq	%rax, -48(%rbp)                 ## 8-byte Spill
	movq	-24(%rbp), %rdi
	callq	__ZNSt3__1L7forwardINS_18__default_init_tagEEEOT_RNS_16remove_referenceIS2_E4typeE
	movq	-48(%rbp), %rdi                 ## 8-byte Reload
	callq	__ZNSt3__122__compressed_pair_elemINS_9allocatorIcEELi1ELb1EEC2ENS_18__default_init_tagE
	addq	$64, %rsp
	popq	%rbp
	retq
	.cfi_endproc
                                        ## -- End function
	.p2align	4, 0x90                         ## -- Begin function _ZNSt3__1L7forwardINS_18__default_init_tagEEEOT_RNS_16remove_referenceIS2_E4typeE
__ZNSt3__1L7forwardINS_18__default_init_tagEEEOT_RNS_16remove_referenceIS2_E4typeE: ## @_ZNSt3__1L7forwardINS_18__default_init_tagEEEOT_RNS_16remove_referenceIS2_E4typeE
	.cfi_startproc
## %bb.0:
	pushq	%rbp
	.cfi_def_cfa_offset 16
	.cfi_offset %rbp, -16
	movq	%rsp, %rbp
	.cfi_def_cfa_register %rbp
	movq	%rdi, -8(%rbp)
	movq	-8(%rbp), %rax
	popq	%rbp
	retq
	.cfi_endproc
                                        ## -- End function
	.p2align	4, 0x90                         ## -- Begin function _ZNSt3__122__compressed_pair_elemINS_12basic_stringIcNS_11char_traitsIcEENS_9allocatorIcEEE5__repELi0ELb0EEC2ENS_18__default_init_tagE
__ZNSt3__122__compressed_pair_elemINS_12basic_stringIcNS_11char_traitsIcEENS_9allocatorIcEEE5__repELi0ELb0EEC2ENS_18__default_init_tagE: ## @_ZNSt3__122__compressed_pair_elemINS_12basic_stringIcNS_11char_traitsIcEENS_9allocatorIcEEE5__repELi0ELb0EEC2ENS_18__default_init_tagE
	.cfi_startproc
## %bb.0:
	pushq	%rbp
	.cfi_def_cfa_offset 16
	.cfi_offset %rbp, -16
	movq	%rsp, %rbp
	.cfi_def_cfa_register %rbp
	movq	%rdi, -16(%rbp)
	popq	%rbp
	retq
	.cfi_endproc
                                        ## -- End function
	.p2align	4, 0x90                         ## -- Begin function _ZNSt3__122__compressed_pair_elemINS_9allocatorIcEELi1ELb1EEC2ENS_18__default_init_tagE
__ZNSt3__122__compressed_pair_elemINS_9allocatorIcEELi1ELb1EEC2ENS_18__default_init_tagE: ## @_ZNSt3__122__compressed_pair_elemINS_9allocatorIcEELi1ELb1EEC2ENS_18__default_init_tagE
	.cfi_startproc
## %bb.0:
	pushq	%rbp
	.cfi_def_cfa_offset 16
	.cfi_offset %rbp, -16
	movq	%rsp, %rbp
	.cfi_def_cfa_register %rbp
	subq	$16, %rsp
	movq	%rdi, -16(%rbp)
	movq	-16(%rbp), %rdi
	callq	__ZNSt3__19allocatorIcEC2Ev
	addq	$16, %rsp
	popq	%rbp
	retq
	.cfi_endproc
                                        ## -- End function
	.p2align	4, 0x90                         ## -- Begin function _ZNSt3__19allocatorIcEC2Ev
__ZNSt3__19allocatorIcEC2Ev:            ## @_ZNSt3__19allocatorIcEC2Ev
	.cfi_startproc
## %bb.0:
	pushq	%rbp
	.cfi_def_cfa_offset 16
	.cfi_offset %rbp, -16
	movq	%rsp, %rbp
	.cfi_def_cfa_register %rbp
	subq	$16, %rsp
	movq	%rdi, -8(%rbp)
	movq	-8(%rbp), %rdi
	callq	__ZNSt3__116__non_trivial_ifILb1ENS_9allocatorIcEEEC2Ev
	addq	$16, %rsp
	popq	%rbp
	retq
	.cfi_endproc
                                        ## -- End function
	.p2align	4, 0x90                         ## -- Begin function _ZNSt3__116__non_trivial_ifILb1ENS_9allocatorIcEEEC2Ev
__ZNSt3__116__non_trivial_ifILb1ENS_9allocatorIcEEEC2Ev: ## @_ZNSt3__116__non_trivial_ifILb1ENS_9allocatorIcEEEC2Ev
	.cfi_startproc
## %bb.0:
	pushq	%rbp
	.cfi_def_cfa_offset 16
	.cfi_offset %rbp, -16
	movq	%rsp, %rbp
	.cfi_def_cfa_register %rbp
	movq	%rdi, -8(%rbp)
	popq	%rbp
	retq
	.cfi_endproc
                                        ## -- End function
	.p2align	4, 0x90                         ## -- Begin function _ZNSt3__117__compressed_pairINS_12basic_stringIcNS_11char_traitsIcEENS_9allocatorIcEEE5__repES5_E5firstEv
__ZNSt3__117__compressed_pairINS_12basic_stringIcNS_11char_traitsIcEENS_9allocatorIcEEE5__repES5_E5firstEv: ## @_ZNSt3__117__compressed_pairINS_12basic_stringIcNS_11char_traitsIcEENS_9allocatorIcEEE5__repES5_E5firstEv
	.cfi_startproc
## %bb.0:
	pushq	%rbp
	.cfi_def_cfa_offset 16
	.cfi_offset %rbp, -16
	movq	%rsp, %rbp
	.cfi_def_cfa_register %rbp
	subq	$16, %rsp
	movq	%rdi, -8(%rbp)
	movq	-8(%rbp), %rdi
	callq	__ZNSt3__122__compressed_pair_elemINS_12basic_stringIcNS_11char_traitsIcEENS_9allocatorIcEEE5__repELi0ELb0EE5__getEv
	addq	$16, %rsp
	popq	%rbp
	retq
	.cfi_endproc
                                        ## -- End function
	.p2align	4, 0x90                         ## -- Begin function _ZNSt3__122__compressed_pair_elemINS_12basic_stringIcNS_11char_traitsIcEENS_9allocatorIcEEE5__repELi0ELb0EE5__getEv
__ZNSt3__122__compressed_pair_elemINS_12basic_stringIcNS_11char_traitsIcEENS_9allocatorIcEEE5__repELi0ELb0EE5__getEv: ## @_ZNSt3__122__compressed_pair_elemINS_12basic_stringIcNS_11char_traitsIcEENS_9allocatorIcEEE5__repELi0ELb0EE5__getEv
	.cfi_startproc
## %bb.0:
	pushq	%rbp
	.cfi_def_cfa_offset 16
	.cfi_offset %rbp, -16
	movq	%rsp, %rbp
	.cfi_def_cfa_register %rbp
	movq	%rdi, -8(%rbp)
	movq	-8(%rbp), %rax
	popq	%rbp
	retq
	.cfi_endproc
                                        ## -- End function
	.p2align	4, 0x90                         ## -- Begin function _ZNKSt3__113basic_istreamIcNS_11char_traitsIcEEE6sentrycvbEv
__ZNKSt3__113basic_istreamIcNS_11char_traitsIcEEE6sentrycvbEv: ## @_ZNKSt3__113basic_istreamIcNS_11char_traitsIcEEE6sentrycvbEv
	.cfi_startproc
## %bb.0:
	pushq	%rbp
	.cfi_def_cfa_offset 16
	.cfi_offset %rbp, -16
	movq	%rsp, %rbp
	.cfi_def_cfa_register %rbp
	movq	%rdi, -8(%rbp)
	movq	-8(%rbp), %rax
	movb	(%rax), %al
	andb	$1, %al
	movzbl	%al, %eax
	popq	%rbp
	retq
	.cfi_endproc
                                        ## -- End function
	.p2align	4, 0x90                         ## -- Begin function _ZNSt3__1L9use_facetINS_5ctypeIcEEEERKT_RKNS_6localeE
__ZNSt3__1L9use_facetINS_5ctypeIcEEEERKT_RKNS_6localeE: ## @_ZNSt3__1L9use_facetINS_5ctypeIcEEEERKT_RKNS_6localeE
	.cfi_startproc
## %bb.0:
	pushq	%rbp
	.cfi_def_cfa_offset 16
	.cfi_offset %rbp, -16
	movq	%rsp, %rbp
	.cfi_def_cfa_register %rbp
	subq	$16, %rsp
	movq	__ZNSt3__15ctypeIcE2idE@GOTPCREL(%rip), %rsi
	movq	%rdi, -8(%rbp)
	movq	-8(%rbp), %rdi
	callq	__ZNKSt3__16locale9use_facetERNS0_2idE
	addq	$16, %rsp
	popq	%rbp
	retq
	.cfi_endproc
                                        ## -- End function
	.p2align	4, 0x90                         ## -- Begin function _ZNKSt3__19basic_iosIcNS_11char_traitsIcEEE5rdbufEv
__ZNKSt3__19basic_iosIcNS_11char_traitsIcEEE5rdbufEv: ## @_ZNKSt3__19basic_iosIcNS_11char_traitsIcEEE5rdbufEv
	.cfi_startproc
## %bb.0:
	pushq	%rbp
	.cfi_def_cfa_offset 16
	.cfi_offset %rbp, -16
	movq	%rsp, %rbp
	.cfi_def_cfa_register %rbp
	subq	$16, %rsp
	movq	%rdi, -8(%rbp)
	movq	-8(%rbp), %rdi
	callq	__ZNKSt3__18ios_base5rdbufEv
	addq	$16, %rsp
	popq	%rbp
	retq
	.cfi_endproc
                                        ## -- End function
	.p2align	4, 0x90                         ## -- Begin function _ZNSt3__115basic_streambufIcNS_11char_traitsIcEEE5sgetcEv
__ZNSt3__115basic_streambufIcNS_11char_traitsIcEEE5sgetcEv: ## @_ZNSt3__115basic_streambufIcNS_11char_traitsIcEEE5sgetcEv
	.cfi_startproc
## %bb.0:
	pushq	%rbp
	.cfi_def_cfa_offset 16
	.cfi_offset %rbp, -16
	movq	%rsp, %rbp
	.cfi_def_cfa_register %rbp
	subq	$32, %rsp
	movq	%rdi, -16(%rbp)
	movq	-16(%rbp), %rcx
	movq	%rcx, -24(%rbp)                 ## 8-byte Spill
	movq	24(%rcx), %rax
	cmpq	32(%rcx), %rax
	jne	LBB121_2
## %bb.1:
	movq	-24(%rbp), %rdi                 ## 8-byte Reload
	movq	(%rdi), %rax
	callq	*72(%rax)
	movl	%eax, -4(%rbp)
	jmp	LBB121_3
LBB121_2:
	movq	-24(%rbp), %rax                 ## 8-byte Reload
	movq	24(%rax), %rax
	movsbl	(%rax), %edi
	callq	__ZNSt3__111char_traitsIcE11to_int_typeEc
	movl	%eax, -4(%rbp)
LBB121_3:
	movl	-4(%rbp), %eax
	addq	$32, %rsp
	popq	%rbp
	retq
	.cfi_endproc
                                        ## -- End function
	.p2align	4, 0x90                         ## -- Begin function _ZNKSt3__15ctypeIcE2isEjc
__ZNKSt3__15ctypeIcE2isEjc:             ## @_ZNKSt3__15ctypeIcE2isEjc
	.cfi_startproc
## %bb.0:
	pushq	%rbp
	.cfi_def_cfa_offset 16
	.cfi_offset %rbp, -16
	movq	%rsp, %rbp
	.cfi_def_cfa_register %rbp
	subq	$32, %rsp
	movb	%dl, %al
	movq	%rdi, -8(%rbp)
	movl	%esi, -12(%rbp)
	movb	%al, -13(%rbp)
	movq	-8(%rbp), %rax
	movq	%rax, -24(%rbp)                 ## 8-byte Spill
	movsbl	-13(%rbp), %edi
	callq	__Z7isasciii
	cmpl	$0, %eax
	je	LBB122_2
## %bb.1:
	movq	-24(%rbp), %rax                 ## 8-byte Reload
	movq	16(%rax), %rax
	movsbl	-13(%rbp), %ecx
	movslq	%ecx, %rcx
	movl	(%rax,%rcx,4), %eax
	andl	-12(%rbp), %eax
	cmpl	$0, %eax
	setne	%al
	movb	%al, -25(%rbp)                  ## 1-byte Spill
	jmp	LBB122_3
LBB122_2:
	xorl	%eax, %eax
                                        ## kill: def $al killed $al killed $eax
	movb	%al, -25(%rbp)                  ## 1-byte Spill
	jmp	LBB122_3
LBB122_3:
	movb	-25(%rbp), %al                  ## 1-byte Reload
	andb	$1, %al
	movzbl	%al, %eax
	addq	$32, %rsp
	popq	%rbp
	retq
	.cfi_endproc
                                        ## -- End function
	.p2align	4, 0x90                         ## -- Begin function _ZNSt3__115basic_streambufIcNS_11char_traitsIcEEE6sbumpcEv
__ZNSt3__115basic_streambufIcNS_11char_traitsIcEEE6sbumpcEv: ## @_ZNSt3__115basic_streambufIcNS_11char_traitsIcEEE6sbumpcEv
	.cfi_startproc
## %bb.0:
	pushq	%rbp
	.cfi_def_cfa_offset 16
	.cfi_offset %rbp, -16
	movq	%rsp, %rbp
	.cfi_def_cfa_register %rbp
	subq	$32, %rsp
	movq	%rdi, -16(%rbp)
	movq	-16(%rbp), %rcx
	movq	%rcx, -24(%rbp)                 ## 8-byte Spill
	movq	24(%rcx), %rax
	cmpq	32(%rcx), %rax
	jne	LBB123_2
## %bb.1:
	movq	-24(%rbp), %rdi                 ## 8-byte Reload
	movq	(%rdi), %rax
	callq	*80(%rax)
	movl	%eax, -4(%rbp)
	jmp	LBB123_3
LBB123_2:
	movq	-24(%rbp), %rcx                 ## 8-byte Reload
	movq	24(%rcx), %rax
	movq	%rax, %rdx
	addq	$1, %rdx
	movq	%rdx, 24(%rcx)
	movsbl	(%rax), %edi
	callq	__ZNSt3__111char_traitsIcE11to_int_typeEc
	movl	%eax, -4(%rbp)
LBB123_3:
	movl	-4(%rbp), %eax
	addq	$32, %rsp
	popq	%rbp
	retq
	.cfi_endproc
                                        ## -- End function
	.p2align	4, 0x90                         ## -- Begin function _ZNSt3__18ios_base18__setstate_nothrowEj
__ZNSt3__18ios_base18__setstate_nothrowEj: ## @_ZNSt3__18ios_base18__setstate_nothrowEj
	.cfi_startproc
## %bb.0:
	pushq	%rbp
	.cfi_def_cfa_offset 16
	.cfi_offset %rbp, -16
	movq	%rsp, %rbp
	.cfi_def_cfa_register %rbp
	movq	%rdi, -8(%rbp)
	movl	%esi, -12(%rbp)
	movq	-8(%rbp), %rax
	movq	%rax, -24(%rbp)                 ## 8-byte Spill
	cmpq	$0, 40(%rax)
	je	LBB124_2
## %bb.1:
	movq	-24(%rbp), %rax                 ## 8-byte Reload
	movl	-12(%rbp), %ecx
	orl	32(%rax), %ecx
	movl	%ecx, 32(%rax)
	jmp	LBB124_3
LBB124_2:
	movq	-24(%rbp), %rax                 ## 8-byte Reload
	movl	-12(%rbp), %ecx
	orl	$1, %ecx
	orl	32(%rax), %ecx
	movl	%ecx, 32(%rax)
LBB124_3:
	popq	%rbp
	retq
	.cfi_endproc
                                        ## -- End function
	.p2align	4, 0x90                         ## -- Begin function _ZNKSt3__19basic_iosIcNS_11char_traitsIcEEE10exceptionsEv
__ZNKSt3__19basic_iosIcNS_11char_traitsIcEEE10exceptionsEv: ## @_ZNKSt3__19basic_iosIcNS_11char_traitsIcEEE10exceptionsEv
	.cfi_startproc
## %bb.0:
	pushq	%rbp
	.cfi_def_cfa_offset 16
	.cfi_offset %rbp, -16
	movq	%rsp, %rbp
	.cfi_def_cfa_register %rbp
	subq	$16, %rsp
	movq	%rdi, -8(%rbp)
	movq	-8(%rbp), %rdi
	callq	__ZNKSt3__18ios_base10exceptionsEv
	addq	$16, %rsp
	popq	%rbp
	retq
	.cfi_endproc
                                        ## -- End function
	.p2align	4, 0x90                         ## -- Begin function _ZNKSt3__18ios_base5rdbufEv
__ZNKSt3__18ios_base5rdbufEv:           ## @_ZNKSt3__18ios_base5rdbufEv
	.cfi_startproc
## %bb.0:
	pushq	%rbp
	.cfi_def_cfa_offset 16
	.cfi_offset %rbp, -16
	movq	%rsp, %rbp
	.cfi_def_cfa_register %rbp
	movq	%rdi, -8(%rbp)
	movq	-8(%rbp), %rax
	movq	40(%rax), %rax
	popq	%rbp
	retq
	.cfi_endproc
                                        ## -- End function
	.globl	__Z7isasciii                    ## -- Begin function _Z7isasciii
	.weak_definition	__Z7isasciii
	.p2align	4, 0x90
__Z7isasciii:                           ## @_Z7isasciii
	.cfi_startproc
## %bb.0:
	pushq	%rbp
	.cfi_def_cfa_offset 16
	.cfi_offset %rbp, -16
	movq	%rsp, %rbp
	.cfi_def_cfa_register %rbp
	movl	%edi, -4(%rbp)
	movl	-4(%rbp), %eax
	andl	$-128, %eax
	cmpl	$0, %eax
	sete	%al
	andb	$1, %al
	movzbl	%al, %eax
	popq	%rbp
	retq
	.cfi_endproc
                                        ## -- End function
	.p2align	4, 0x90                         ## -- Begin function _ZNKSt3__18ios_base10exceptionsEv
__ZNKSt3__18ios_base10exceptionsEv:     ## @_ZNKSt3__18ios_base10exceptionsEv
	.cfi_startproc
## %bb.0:
	pushq	%rbp
	.cfi_def_cfa_offset 16
	.cfi_offset %rbp, -16
	movq	%rsp, %rbp
	.cfi_def_cfa_register %rbp
	movq	%rdi, -8(%rbp)
	movq	-8(%rbp), %rax
	movl	36(%rax), %eax
	popq	%rbp
	retq
	.cfi_endproc
                                        ## -- End function
	.globl	__ZNSt3__17getlineIcNS_11char_traitsIcEENS_9allocatorIcEEEERNS_13basic_istreamIT_T0_EES9_RNS_12basic_stringIS6_S7_T1_EES6_ ## -- Begin function _ZNSt3__17getlineIcNS_11char_traitsIcEENS_9allocatorIcEEEERNS_13basic_istreamIT_T0_EES9_RNS_12basic_stringIS6_S7_T1_EES6_
	.weak_definition	__ZNSt3__17getlineIcNS_11char_traitsIcEENS_9allocatorIcEEEERNS_13basic_istreamIT_T0_EES9_RNS_12basic_stringIS6_S7_T1_EES6_
	.p2align	4, 0x90
__ZNSt3__17getlineIcNS_11char_traitsIcEENS_9allocatorIcEEEERNS_13basic_istreamIT_T0_EES9_RNS_12basic_stringIS6_S7_T1_EES6_: ## @_ZNSt3__17getlineIcNS_11char_traitsIcEENS_9allocatorIcEEEERNS_13basic_istreamIT_T0_EES9_RNS_12basic_stringIS6_S7_T1_EES6_
Lfunc_begin14:
	.cfi_startproc
	.cfi_personality 155, ___gxx_personality_v0
	.cfi_lsda 16, Lexception14
## %bb.0:
	pushq	%rbp
	.cfi_def_cfa_offset 16
	.cfi_offset %rbp, -16
	movq	%rsp, %rbp
	.cfi_def_cfa_register %rbp
	subq	$96, %rsp
	movb	%dl, %al
	movq	%rdi, -8(%rbp)
	movq	%rsi, -16(%rbp)
	movb	%al, -17(%rbp)
	movl	$0, -24(%rbp)
	movq	-8(%rbp), %rsi
	leaq	-32(%rbp), %rdi
	movl	$1, %edx
	callq	__ZNSt3__113basic_istreamIcNS_11char_traitsIcEEE6sentryC1ERS3_b
	leaq	-32(%rbp), %rdi
	callq	__ZNKSt3__113basic_istreamIcNS_11char_traitsIcEEE6sentrycvbEv
	testb	$1, %al
	jne	LBB129_1
	jmp	LBB129_24
LBB129_1:
	movq	-16(%rbp), %rdi
	callq	__ZNSt3__112basic_stringIcNS_11char_traitsIcEENS_9allocatorIcEEE5clearEv
	movq	$0, -40(%rbp)
LBB129_2:                               ## =>This Inner Loop Header: Depth=1
	jmp	LBB129_3
LBB129_3:                               ##   in Loop: Header=BB129_2 Depth=1
	movq	-8(%rbp), %rdi
	movq	(%rdi), %rax
	movq	-24(%rax), %rax
	addq	%rax, %rdi
Ltmp166:
	callq	__ZNKSt3__19basic_iosIcNS_11char_traitsIcEEE5rdbufEv
	movq	%rax, %rcx
Ltmp167:
	movq	%rcx, -72(%rbp)                 ## 8-byte Spill
	jmp	LBB129_4
LBB129_4:                               ##   in Loop: Header=BB129_2 Depth=1
Ltmp168:
	movq	-72(%rbp), %rdi                 ## 8-byte Reload
	callq	__ZNSt3__115basic_streambufIcNS_11char_traitsIcEEE6sbumpcEv
	movl	%eax, %ecx
Ltmp169:
	movl	%ecx, -76(%rbp)                 ## 4-byte Spill
	jmp	LBB129_5
LBB129_5:                               ##   in Loop: Header=BB129_2 Depth=1
	movl	-76(%rbp), %eax                 ## 4-byte Reload
	movl	%eax, -44(%rbp)
	movl	-44(%rbp), %eax
	movl	%eax, -80(%rbp)                 ## 4-byte Spill
	callq	__ZNSt3__111char_traitsIcE3eofEv
	movl	-80(%rbp), %edi                 ## 4-byte Reload
	movl	%eax, %esi
	callq	__ZNSt3__111char_traitsIcE11eq_int_typeEii
	testb	$1, %al
	jne	LBB129_6
	jmp	LBB129_11
LBB129_6:
	movl	-24(%rbp), %eax
	orl	$2, %eax
	movl	%eax, -24(%rbp)
	jmp	LBB129_17
LBB129_7:
Ltmp172:
	movq	%rax, %rcx
	movl	%edx, %eax
	movq	%rcx, -56(%rbp)
	movl	%eax, -60(%rbp)
## %bb.8:
	movq	-56(%rbp), %rdi
	callq	___cxa_begin_catch
	movb	-24(%rbp), %al
	orb	$1, %al
	movb	%al, -24(%rbp)
	movq	-8(%rbp), %rdi
	movq	(%rdi), %rax
	movq	-24(%rax), %rax
	addq	%rax, %rdi
	movl	-24(%rbp), %esi
	callq	__ZNSt3__18ios_base18__setstate_nothrowEj
	movq	-8(%rbp), %rdi
	movq	(%rdi), %rax
	movq	-24(%rax), %rax
	addq	%rax, %rdi
Ltmp173:
	callq	__ZNKSt3__19basic_iosIcNS_11char_traitsIcEEE10exceptionsEv
	movl	%eax, %ecx
Ltmp174:
	movl	%ecx, -84(%rbp)                 ## 4-byte Spill
	jmp	LBB129_9
LBB129_9:
	movl	-84(%rbp), %eax                 ## 4-byte Reload
	andl	$1, %eax
	cmpl	$0, %eax
	je	LBB129_21
## %bb.10:
Ltmp175:
	callq	___cxa_rethrow
Ltmp176:
	jmp	LBB129_27
LBB129_11:                              ##   in Loop: Header=BB129_2 Depth=1
	movq	-40(%rbp), %rax
	addq	$1, %rax
	movq	%rax, -40(%rbp)
	movl	-44(%rbp), %edi
	callq	__ZNSt3__111char_traitsIcE12to_char_typeEi
	movb	%al, -61(%rbp)
	movb	-61(%rbp), %al
	movsbl	%al, %edi
	movsbl	-17(%rbp), %esi
	callq	__ZNSt3__111char_traitsIcE2eqEcc
	testb	$1, %al
	jne	LBB129_12
	jmp	LBB129_13
LBB129_12:
	jmp	LBB129_17
LBB129_13:                              ##   in Loop: Header=BB129_2 Depth=1
	movq	-16(%rbp), %rdi
	movsbl	-61(%rbp), %esi
Ltmp170:
	callq	__ZNSt3__112basic_stringIcNS_11char_traitsIcEENS_9allocatorIcEEE9push_backEc
Ltmp171:
	jmp	LBB129_14
LBB129_14:                              ##   in Loop: Header=BB129_2 Depth=1
	movq	-16(%rbp), %rdi
	callq	__ZNKSt3__112basic_stringIcNS_11char_traitsIcEENS_9allocatorIcEEE4sizeEv
	movq	%rax, -96(%rbp)                 ## 8-byte Spill
	movq	-16(%rbp), %rdi
	callq	__ZNKSt3__112basic_stringIcNS_11char_traitsIcEENS_9allocatorIcEEE8max_sizeEv
	movq	%rax, %rcx
	movq	-96(%rbp), %rax                 ## 8-byte Reload
	cmpq	%rcx, %rax
	jne	LBB129_16
## %bb.15:
	movl	-24(%rbp), %eax
	orl	$4, %eax
	movl	%eax, -24(%rbp)
	jmp	LBB129_17
LBB129_16:                              ##   in Loop: Header=BB129_2 Depth=1
	jmp	LBB129_2
LBB129_17:
	cmpq	$0, -40(%rbp)
	jne	LBB129_19
## %bb.18:
	movl	-24(%rbp), %eax
	orl	$4, %eax
	movl	%eax, -24(%rbp)
LBB129_19:
	jmp	LBB129_22
LBB129_20:
Ltmp177:
	movq	%rdx, %rcx
	movq	%rax, %rsi
                                        ## kill: def $ecx killed $ecx killed $rcx
	movq	%rsi, -56(%rbp)
	movl	%ecx, -60(%rbp)
Ltmp178:
	callq	___cxa_end_catch
Ltmp179:
	jmp	LBB129_23
LBB129_21:
	callq	___cxa_end_catch
LBB129_22:
	movq	-8(%rbp), %rdi
	movq	(%rdi), %rax
	movq	-24(%rax), %rax
	addq	%rax, %rdi
	movl	-24(%rbp), %esi
	callq	__ZNSt3__19basic_iosIcNS_11char_traitsIcEEE8setstateEj
	jmp	LBB129_24
LBB129_23:
	jmp	LBB129_25
LBB129_24:
	movq	-8(%rbp), %rax
	addq	$96, %rsp
	popq	%rbp
	retq
LBB129_25:
	movq	-56(%rbp), %rdi
	callq	__Unwind_Resume
LBB129_26:
Ltmp180:
	movq	%rax, %rdi
	callq	___clang_call_terminate
LBB129_27:
	ud2
Lfunc_end14:
	.cfi_endproc
	.section	__TEXT,__gcc_except_tab
	.p2align	2
GCC_except_table129:
Lexception14:
	.byte	255                             ## @LPStart Encoding = omit
	.byte	155                             ## @TType Encoding = indirect pcrel sdata4
	.uleb128 Lttbase12-Lttbaseref12
Lttbaseref12:
	.byte	1                               ## Call site Encoding = uleb128
	.uleb128 Lcst_end14-Lcst_begin14
Lcst_begin14:
	.uleb128 Lfunc_begin14-Lfunc_begin14    ## >> Call Site 1 <<
	.uleb128 Ltmp166-Lfunc_begin14          ##   Call between Lfunc_begin14 and Ltmp166
	.byte	0                               ##     has no landing pad
	.byte	0                               ##   On action: cleanup
	.uleb128 Ltmp166-Lfunc_begin14          ## >> Call Site 2 <<
	.uleb128 Ltmp169-Ltmp166                ##   Call between Ltmp166 and Ltmp169
	.uleb128 Ltmp172-Lfunc_begin14          ##     jumps to Ltmp172
	.byte	1                               ##   On action: 1
	.uleb128 Ltmp169-Lfunc_begin14          ## >> Call Site 3 <<
	.uleb128 Ltmp173-Ltmp169                ##   Call between Ltmp169 and Ltmp173
	.byte	0                               ##     has no landing pad
	.byte	0                               ##   On action: cleanup
	.uleb128 Ltmp173-Lfunc_begin14          ## >> Call Site 4 <<
	.uleb128 Ltmp176-Ltmp173                ##   Call between Ltmp173 and Ltmp176
	.uleb128 Ltmp177-Lfunc_begin14          ##     jumps to Ltmp177
	.byte	0                               ##   On action: cleanup
	.uleb128 Ltmp170-Lfunc_begin14          ## >> Call Site 5 <<
	.uleb128 Ltmp171-Ltmp170                ##   Call between Ltmp170 and Ltmp171
	.uleb128 Ltmp172-Lfunc_begin14          ##     jumps to Ltmp172
	.byte	1                               ##   On action: 1
	.uleb128 Ltmp178-Lfunc_begin14          ## >> Call Site 6 <<
	.uleb128 Ltmp179-Ltmp178                ##   Call between Ltmp178 and Ltmp179
	.uleb128 Ltmp180-Lfunc_begin14          ##     jumps to Ltmp180
	.byte	1                               ##   On action: 1
	.uleb128 Ltmp179-Lfunc_begin14          ## >> Call Site 7 <<
	.uleb128 Lfunc_end14-Ltmp179            ##   Call between Ltmp179 and Lfunc_end14
	.byte	0                               ##     has no landing pad
	.byte	0                               ##   On action: cleanup
Lcst_end14:
	.byte	1                               ## >> Action Record 1 <<
                                        ##   Catch TypeInfo 1
	.byte	0                               ##   No further actions
	.p2align	2
                                        ## >> Catch TypeInfos <<
	.long	0                               ## TypeInfo 1
Lttbase12:
	.p2align	2
                                        ## -- End function
	.section	__TEXT,__text,regular,pure_instructions
	.p2align	4, 0x90                         ## -- Begin function _ZNKSt3__19basic_iosIcNS_11char_traitsIcEEE5widenEc
__ZNKSt3__19basic_iosIcNS_11char_traitsIcEEE5widenEc: ## @_ZNKSt3__19basic_iosIcNS_11char_traitsIcEEE5widenEc
Lfunc_begin15:
	.cfi_startproc
	.cfi_personality 155, ___gxx_personality_v0
	.cfi_lsda 16, Lexception15
## %bb.0:
	pushq	%rbp
	.cfi_def_cfa_offset 16
	.cfi_offset %rbp, -16
	movq	%rsp, %rbp
	.cfi_def_cfa_register %rbp
	subq	$64, %rsp
	movb	%sil, %al
	movq	%rdi, -8(%rbp)
	movb	%al, -9(%rbp)
	movq	-8(%rbp), %rsi
	leaq	-24(%rbp), %rdi
	movq	%rdi, -56(%rbp)                 ## 8-byte Spill
	callq	__ZNKSt3__18ios_base6getlocEv
	movq	-56(%rbp), %rdi                 ## 8-byte Reload
Ltmp181:
	callq	__ZNSt3__1L9use_facetINS_5ctypeIcEEEERKT_RKNS_6localeE
	movq	%rax, %rcx
Ltmp182:
	movq	%rcx, -48(%rbp)                 ## 8-byte Spill
	jmp	LBB130_1
LBB130_1:
	movq	-48(%rbp), %rdi                 ## 8-byte Reload
	movsbl	-9(%rbp), %esi
Ltmp183:
	callq	__ZNKSt3__15ctypeIcE5widenEc
	movb	%al, %cl
Ltmp184:
	movb	%cl, -57(%rbp)                  ## 1-byte Spill
	jmp	LBB130_2
LBB130_2:
	leaq	-24(%rbp), %rdi
	callq	__ZNSt3__16localeD1Ev
	movb	-57(%rbp), %al                  ## 1-byte Reload
	movsbl	%al, %eax
	addq	$64, %rsp
	popq	%rbp
	retq
LBB130_3:
Ltmp185:
	movq	%rdx, %rcx
	movq	%rax, %rsi
                                        ## kill: def $ecx killed $ecx killed $rcx
	movq	%rsi, -32(%rbp)
	movl	%ecx, -36(%rbp)
Ltmp186:
	leaq	-24(%rbp), %rdi
	callq	__ZNSt3__16localeD1Ev
Ltmp187:
	jmp	LBB130_4
LBB130_4:
	jmp	LBB130_5
LBB130_5:
	movq	-32(%rbp), %rdi
	callq	__Unwind_Resume
LBB130_6:
Ltmp188:
	movq	%rax, %rdi
	callq	___clang_call_terminate
Lfunc_end15:
	.cfi_endproc
	.section	__TEXT,__gcc_except_tab
	.p2align	2
GCC_except_table130:
Lexception15:
	.byte	255                             ## @LPStart Encoding = omit
	.byte	155                             ## @TType Encoding = indirect pcrel sdata4
	.uleb128 Lttbase13-Lttbaseref13
Lttbaseref13:
	.byte	1                               ## Call site Encoding = uleb128
	.uleb128 Lcst_end15-Lcst_begin15
Lcst_begin15:
	.uleb128 Lfunc_begin15-Lfunc_begin15    ## >> Call Site 1 <<
	.uleb128 Ltmp181-Lfunc_begin15          ##   Call between Lfunc_begin15 and Ltmp181
	.byte	0                               ##     has no landing pad
	.byte	0                               ##   On action: cleanup
	.uleb128 Ltmp181-Lfunc_begin15          ## >> Call Site 2 <<
	.uleb128 Ltmp184-Ltmp181                ##   Call between Ltmp181 and Ltmp184
	.uleb128 Ltmp185-Lfunc_begin15          ##     jumps to Ltmp185
	.byte	0                               ##   On action: cleanup
	.uleb128 Ltmp184-Lfunc_begin15          ## >> Call Site 3 <<
	.uleb128 Ltmp186-Ltmp184                ##   Call between Ltmp184 and Ltmp186
	.byte	0                               ##     has no landing pad
	.byte	0                               ##   On action: cleanup
	.uleb128 Ltmp186-Lfunc_begin15          ## >> Call Site 4 <<
	.uleb128 Ltmp187-Ltmp186                ##   Call between Ltmp186 and Ltmp187
	.uleb128 Ltmp188-Lfunc_begin15          ##     jumps to Ltmp188
	.byte	1                               ##   On action: 1
	.uleb128 Ltmp187-Lfunc_begin15          ## >> Call Site 5 <<
	.uleb128 Lfunc_end15-Ltmp187            ##   Call between Ltmp187 and Lfunc_end15
	.byte	0                               ##     has no landing pad
	.byte	0                               ##   On action: cleanup
Lcst_end15:
	.byte	1                               ## >> Action Record 1 <<
                                        ##   Catch TypeInfo 1
	.byte	0                               ##   No further actions
	.p2align	2
                                        ## >> Catch TypeInfos <<
	.long	0                               ## TypeInfo 1
Lttbase13:
	.p2align	2
                                        ## -- End function
	.section	__TEXT,__text,regular,pure_instructions
	.p2align	4, 0x90                         ## -- Begin function _ZNSt3__112basic_stringIcNS_11char_traitsIcEENS_9allocatorIcEEE5clearEv
__ZNSt3__112basic_stringIcNS_11char_traitsIcEENS_9allocatorIcEEE5clearEv: ## @_ZNSt3__112basic_stringIcNS_11char_traitsIcEENS_9allocatorIcEEE5clearEv
Lfunc_begin16:
	.cfi_startproc
	.cfi_personality 155, ___gxx_personality_v0
	.cfi_lsda 16, Lexception16
## %bb.0:
	pushq	%rbp
	.cfi_def_cfa_offset 16
	.cfi_offset %rbp, -16
	movq	%rsp, %rbp
	.cfi_def_cfa_register %rbp
	subq	$32, %rsp
	movq	%rdi, -8(%rbp)
	movq	-8(%rbp), %rdi
	movq	%rdi, -32(%rbp)                 ## 8-byte Spill
Ltmp189:
	callq	__ZNSt3__112basic_stringIcNS_11char_traitsIcEENS_9allocatorIcEEE26__invalidate_all_iteratorsEv
Ltmp190:
	jmp	LBB131_1
LBB131_1:
	movq	-32(%rbp), %rdi                 ## 8-byte Reload
	callq	__ZNKSt3__112basic_stringIcNS_11char_traitsIcEENS_9allocatorIcEEE9__is_longEv
	testb	$1, %al
	jne	LBB131_2
	jmp	LBB131_5
LBB131_2:
	movq	-32(%rbp), %rdi                 ## 8-byte Reload
	callq	__ZNSt3__112basic_stringIcNS_11char_traitsIcEENS_9allocatorIcEEE18__get_long_pointerEv
	movq	%rax, %rdi
	movb	$0, -21(%rbp)
	leaq	-21(%rbp), %rsi
	callq	__ZNSt3__111char_traitsIcE6assignERcRKc
	movq	-32(%rbp), %rdi                 ## 8-byte Reload
	xorl	%eax, %eax
	movl	%eax, %esi
	callq	__ZNSt3__112basic_stringIcNS_11char_traitsIcEENS_9allocatorIcEEE15__set_long_sizeEm
	jmp	LBB131_6
LBB131_3:
Ltmp191:
	movq	%rax, %rcx
	movl	%edx, %eax
	movq	%rcx, -16(%rbp)
	movl	%eax, -20(%rbp)
## %bb.4:
	movq	-16(%rbp), %rdi
	callq	___cxa_call_unexpected
LBB131_5:
	movq	-32(%rbp), %rdi                 ## 8-byte Reload
	callq	__ZNSt3__112basic_stringIcNS_11char_traitsIcEENS_9allocatorIcEEE19__get_short_pointerEv
	movq	%rax, %rdi
	movb	$0, -22(%rbp)
	leaq	-22(%rbp), %rsi
	callq	__ZNSt3__111char_traitsIcE6assignERcRKc
	movq	-32(%rbp), %rdi                 ## 8-byte Reload
	xorl	%eax, %eax
	movl	%eax, %esi
	callq	__ZNSt3__112basic_stringIcNS_11char_traitsIcEENS_9allocatorIcEEE16__set_short_sizeEm
LBB131_6:
	addq	$32, %rsp
	popq	%rbp
	retq
Lfunc_end16:
	.cfi_endproc
	.section	__TEXT,__gcc_except_tab
	.p2align	2
GCC_except_table131:
Lexception16:
	.byte	255                             ## @LPStart Encoding = omit
	.byte	155                             ## @TType Encoding = indirect pcrel sdata4
	.uleb128 Lttbase14-Lttbaseref14
Lttbaseref14:
	.byte	1                               ## Call site Encoding = uleb128
	.uleb128 Lcst_end16-Lcst_begin16
Lcst_begin16:
	.uleb128 Ltmp189-Lfunc_begin16          ## >> Call Site 1 <<
	.uleb128 Ltmp190-Ltmp189                ##   Call between Ltmp189 and Ltmp190
	.uleb128 Ltmp191-Lfunc_begin16          ##     jumps to Ltmp191
	.byte	1                               ##   On action: 1
	.uleb128 Ltmp190-Lfunc_begin16          ## >> Call Site 2 <<
	.uleb128 Lfunc_end16-Ltmp190            ##   Call between Ltmp190 and Lfunc_end16
	.byte	0                               ##     has no landing pad
	.byte	0                               ##   On action: cleanup
Lcst_end16:
	.byte	127                             ## >> Action Record 1 <<
                                        ##   Filter TypeInfo -1
	.byte	0                               ##   No further actions
	.p2align	2
Lttbase14:
                                        ## >> Filter TypeInfos <<
	.byte	0
	.p2align	2
                                        ## -- End function
	.section	__TEXT,__text,regular,pure_instructions
	.p2align	4, 0x90                         ## -- Begin function _ZNKSt3__112basic_stringIcNS_11char_traitsIcEENS_9allocatorIcEEE4sizeEv
__ZNKSt3__112basic_stringIcNS_11char_traitsIcEENS_9allocatorIcEEE4sizeEv: ## @_ZNKSt3__112basic_stringIcNS_11char_traitsIcEENS_9allocatorIcEEE4sizeEv
	.cfi_startproc
## %bb.0:
	pushq	%rbp
	.cfi_def_cfa_offset 16
	.cfi_offset %rbp, -16
	movq	%rsp, %rbp
	.cfi_def_cfa_register %rbp
	subq	$32, %rsp
	movq	%rdi, -8(%rbp)
	movq	-8(%rbp), %rdi
	movq	%rdi, -16(%rbp)                 ## 8-byte Spill
	callq	__ZNKSt3__112basic_stringIcNS_11char_traitsIcEENS_9allocatorIcEEE9__is_longEv
	testb	$1, %al
	jne	LBB132_1
	jmp	LBB132_2
LBB132_1:
	movq	-16(%rbp), %rdi                 ## 8-byte Reload
	callq	__ZNKSt3__112basic_stringIcNS_11char_traitsIcEENS_9allocatorIcEEE15__get_long_sizeEv
	movq	%rax, -24(%rbp)                 ## 8-byte Spill
	jmp	LBB132_3
LBB132_2:
	movq	-16(%rbp), %rdi                 ## 8-byte Reload
	callq	__ZNKSt3__112basic_stringIcNS_11char_traitsIcEENS_9allocatorIcEEE16__get_short_sizeEv
	movq	%rax, -24(%rbp)                 ## 8-byte Spill
LBB132_3:
	movq	-24(%rbp), %rax                 ## 8-byte Reload
	addq	$32, %rsp
	popq	%rbp
	retq
	.cfi_endproc
                                        ## -- End function
	.p2align	4, 0x90                         ## -- Begin function _ZNKSt3__112basic_stringIcNS_11char_traitsIcEENS_9allocatorIcEEE8max_sizeEv
__ZNKSt3__112basic_stringIcNS_11char_traitsIcEENS_9allocatorIcEEE8max_sizeEv: ## @_ZNKSt3__112basic_stringIcNS_11char_traitsIcEENS_9allocatorIcEEE8max_sizeEv
	.cfi_startproc
## %bb.0:
	pushq	%rbp
	.cfi_def_cfa_offset 16
	.cfi_offset %rbp, -16
	movq	%rsp, %rbp
	.cfi_def_cfa_register %rbp
	subq	$16, %rsp
	movq	%rdi, -8(%rbp)
	movq	-8(%rbp), %rdi
	callq	__ZNKSt3__112basic_stringIcNS_11char_traitsIcEENS_9allocatorIcEEE7__allocEv
	movq	%rax, %rdi
	callq	__ZNSt3__116allocator_traitsINS_9allocatorIcEEE8max_sizeIS2_vEEmRKS2_
	movq	%rax, -16(%rbp)
	movq	-16(%rbp), %rax
	subq	$16, %rax
	addq	$16, %rsp
	popq	%rbp
	retq
	.cfi_endproc
                                        ## -- End function
	.p2align	4, 0x90                         ## -- Begin function _ZNSt3__112basic_stringIcNS_11char_traitsIcEENS_9allocatorIcEEE26__invalidate_all_iteratorsEv
__ZNSt3__112basic_stringIcNS_11char_traitsIcEENS_9allocatorIcEEE26__invalidate_all_iteratorsEv: ## @_ZNSt3__112basic_stringIcNS_11char_traitsIcEENS_9allocatorIcEEE26__invalidate_all_iteratorsEv
	.cfi_startproc
## %bb.0:
	pushq	%rbp
	.cfi_def_cfa_offset 16
	.cfi_offset %rbp, -16
	movq	%rsp, %rbp
	.cfi_def_cfa_register %rbp
	movq	%rdi, -8(%rbp)
	popq	%rbp
	retq
	.cfi_endproc
                                        ## -- End function
	.p2align	4, 0x90                         ## -- Begin function _ZNKSt3__112basic_stringIcNS_11char_traitsIcEENS_9allocatorIcEEE9__is_longEv
__ZNKSt3__112basic_stringIcNS_11char_traitsIcEENS_9allocatorIcEEE9__is_longEv: ## @_ZNKSt3__112basic_stringIcNS_11char_traitsIcEENS_9allocatorIcEEE9__is_longEv
	.cfi_startproc
## %bb.0:
	pushq	%rbp
	.cfi_def_cfa_offset 16
	.cfi_offset %rbp, -16
	movq	%rsp, %rbp
	.cfi_def_cfa_register %rbp
	subq	$16, %rsp
	movq	%rdi, -8(%rbp)
	movq	-8(%rbp), %rdi
	callq	__ZNKSt3__117__compressed_pairINS_12basic_stringIcNS_11char_traitsIcEENS_9allocatorIcEEE5__repES5_E5firstEv
	movzbl	(%rax), %eax
                                        ## kill: def $rax killed $eax
	andq	$1, %rax
	cmpq	$0, %rax
	setne	%al
	andb	$1, %al
	movzbl	%al, %eax
	addq	$16, %rsp
	popq	%rbp
	retq
	.cfi_endproc
                                        ## -- End function
	.globl	__ZNSt3__111char_traitsIcE6assignERcRKc ## -- Begin function _ZNSt3__111char_traitsIcE6assignERcRKc
	.weak_definition	__ZNSt3__111char_traitsIcE6assignERcRKc
	.p2align	4, 0x90
__ZNSt3__111char_traitsIcE6assignERcRKc: ## @_ZNSt3__111char_traitsIcE6assignERcRKc
	.cfi_startproc
## %bb.0:
	pushq	%rbp
	.cfi_def_cfa_offset 16
	.cfi_offset %rbp, -16
	movq	%rsp, %rbp
	.cfi_def_cfa_register %rbp
	movq	%rdi, -8(%rbp)
	movq	%rsi, -16(%rbp)
	movq	-16(%rbp), %rax
	movb	(%rax), %cl
	movq	-8(%rbp), %rax
	movb	%cl, (%rax)
	popq	%rbp
	retq
	.cfi_endproc
                                        ## -- End function
	.p2align	4, 0x90                         ## -- Begin function _ZNSt3__112basic_stringIcNS_11char_traitsIcEENS_9allocatorIcEEE18__get_long_pointerEv
__ZNSt3__112basic_stringIcNS_11char_traitsIcEENS_9allocatorIcEEE18__get_long_pointerEv: ## @_ZNSt3__112basic_stringIcNS_11char_traitsIcEENS_9allocatorIcEEE18__get_long_pointerEv
	.cfi_startproc
## %bb.0:
	pushq	%rbp
	.cfi_def_cfa_offset 16
	.cfi_offset %rbp, -16
	movq	%rsp, %rbp
	.cfi_def_cfa_register %rbp
	subq	$16, %rsp
	movq	%rdi, -8(%rbp)
	movq	-8(%rbp), %rdi
	callq	__ZNSt3__117__compressed_pairINS_12basic_stringIcNS_11char_traitsIcEENS_9allocatorIcEEE5__repES5_E5firstEv
	movq	16(%rax), %rax
	addq	$16, %rsp
	popq	%rbp
	retq
	.cfi_endproc
                                        ## -- End function
	.p2align	4, 0x90                         ## -- Begin function _ZNSt3__112basic_stringIcNS_11char_traitsIcEENS_9allocatorIcEEE15__set_long_sizeEm
__ZNSt3__112basic_stringIcNS_11char_traitsIcEENS_9allocatorIcEEE15__set_long_sizeEm: ## @_ZNSt3__112basic_stringIcNS_11char_traitsIcEENS_9allocatorIcEEE15__set_long_sizeEm
	.cfi_startproc
## %bb.0:
	pushq	%rbp
	.cfi_def_cfa_offset 16
	.cfi_offset %rbp, -16
	movq	%rsp, %rbp
	.cfi_def_cfa_register %rbp
	subq	$32, %rsp
	movq	%rdi, -8(%rbp)
	movq	%rsi, -16(%rbp)
	movq	-8(%rbp), %rdi
	movq	-16(%rbp), %rax
	movq	%rax, -24(%rbp)                 ## 8-byte Spill
	callq	__ZNSt3__117__compressed_pairINS_12basic_stringIcNS_11char_traitsIcEENS_9allocatorIcEEE5__repES5_E5firstEv
	movq	-24(%rbp), %rcx                 ## 8-byte Reload
	movq	%rcx, 8(%rax)
	addq	$32, %rsp
	popq	%rbp
	retq
	.cfi_endproc
                                        ## -- End function
	.p2align	4, 0x90                         ## -- Begin function _ZNSt3__112basic_stringIcNS_11char_traitsIcEENS_9allocatorIcEEE19__get_short_pointerEv
__ZNSt3__112basic_stringIcNS_11char_traitsIcEENS_9allocatorIcEEE19__get_short_pointerEv: ## @_ZNSt3__112basic_stringIcNS_11char_traitsIcEENS_9allocatorIcEEE19__get_short_pointerEv
	.cfi_startproc
## %bb.0:
	pushq	%rbp
	.cfi_def_cfa_offset 16
	.cfi_offset %rbp, -16
	movq	%rsp, %rbp
	.cfi_def_cfa_register %rbp
	subq	$16, %rsp
	movq	%rdi, -8(%rbp)
	movq	-8(%rbp), %rdi
	callq	__ZNSt3__117__compressed_pairINS_12basic_stringIcNS_11char_traitsIcEENS_9allocatorIcEEE5__repES5_E5firstEv
	movq	%rax, %rdi
	addq	$1, %rdi
	callq	__ZNSt3__114pointer_traitsIPcE10pointer_toERc
	addq	$16, %rsp
	popq	%rbp
	retq
	.cfi_endproc
                                        ## -- End function
	.p2align	4, 0x90                         ## -- Begin function _ZNSt3__112basic_stringIcNS_11char_traitsIcEENS_9allocatorIcEEE16__set_short_sizeEm
__ZNSt3__112basic_stringIcNS_11char_traitsIcEENS_9allocatorIcEEE16__set_short_sizeEm: ## @_ZNSt3__112basic_stringIcNS_11char_traitsIcEENS_9allocatorIcEEE16__set_short_sizeEm
	.cfi_startproc
## %bb.0:
	pushq	%rbp
	.cfi_def_cfa_offset 16
	.cfi_offset %rbp, -16
	movq	%rsp, %rbp
	.cfi_def_cfa_register %rbp
	subq	$32, %rsp
	movq	%rdi, -8(%rbp)
	movq	%rsi, -16(%rbp)
	movq	-8(%rbp), %rdi
	movq	-16(%rbp), %rax
	shlq	$1, %rax
                                        ## kill: def $al killed $al killed $rax
	movb	%al, -17(%rbp)                  ## 1-byte Spill
	callq	__ZNSt3__117__compressed_pairINS_12basic_stringIcNS_11char_traitsIcEENS_9allocatorIcEEE5__repES5_E5firstEv
	movb	-17(%rbp), %cl                  ## 1-byte Reload
	movb	%cl, (%rax)
	addq	$32, %rsp
	popq	%rbp
	retq
	.cfi_endproc
                                        ## -- End function
	.p2align	4, 0x90                         ## -- Begin function _ZNKSt3__117__compressed_pairINS_12basic_stringIcNS_11char_traitsIcEENS_9allocatorIcEEE5__repES5_E5firstEv
__ZNKSt3__117__compressed_pairINS_12basic_stringIcNS_11char_traitsIcEENS_9allocatorIcEEE5__repES5_E5firstEv: ## @_ZNKSt3__117__compressed_pairINS_12basic_stringIcNS_11char_traitsIcEENS_9allocatorIcEEE5__repES5_E5firstEv
	.cfi_startproc
## %bb.0:
	pushq	%rbp
	.cfi_def_cfa_offset 16
	.cfi_offset %rbp, -16
	movq	%rsp, %rbp
	.cfi_def_cfa_register %rbp
	subq	$16, %rsp
	movq	%rdi, -8(%rbp)
	movq	-8(%rbp), %rdi
	callq	__ZNKSt3__122__compressed_pair_elemINS_12basic_stringIcNS_11char_traitsIcEENS_9allocatorIcEEE5__repELi0ELb0EE5__getEv
	addq	$16, %rsp
	popq	%rbp
	retq
	.cfi_endproc
                                        ## -- End function
	.p2align	4, 0x90                         ## -- Begin function _ZNKSt3__122__compressed_pair_elemINS_12basic_stringIcNS_11char_traitsIcEENS_9allocatorIcEEE5__repELi0ELb0EE5__getEv
__ZNKSt3__122__compressed_pair_elemINS_12basic_stringIcNS_11char_traitsIcEENS_9allocatorIcEEE5__repELi0ELb0EE5__getEv: ## @_ZNKSt3__122__compressed_pair_elemINS_12basic_stringIcNS_11char_traitsIcEENS_9allocatorIcEEE5__repELi0ELb0EE5__getEv
	.cfi_startproc
## %bb.0:
	pushq	%rbp
	.cfi_def_cfa_offset 16
	.cfi_offset %rbp, -16
	movq	%rsp, %rbp
	.cfi_def_cfa_register %rbp
	movq	%rdi, -8(%rbp)
	movq	-8(%rbp), %rax
	popq	%rbp
	retq
	.cfi_endproc
                                        ## -- End function
	.p2align	4, 0x90                         ## -- Begin function _ZNSt3__114pointer_traitsIPcE10pointer_toERc
__ZNSt3__114pointer_traitsIPcE10pointer_toERc: ## @_ZNSt3__114pointer_traitsIPcE10pointer_toERc
	.cfi_startproc
## %bb.0:
	pushq	%rbp
	.cfi_def_cfa_offset 16
	.cfi_offset %rbp, -16
	movq	%rsp, %rbp
	.cfi_def_cfa_register %rbp
	subq	$16, %rsp
	movq	%rdi, -8(%rbp)
	movq	-8(%rbp), %rdi
	callq	__ZNSt3__1L9addressofIcEEPT_RS1_
	addq	$16, %rsp
	popq	%rbp
	retq
	.cfi_endproc
                                        ## -- End function
	.p2align	4, 0x90                         ## -- Begin function _ZNSt3__1L9addressofIcEEPT_RS1_
__ZNSt3__1L9addressofIcEEPT_RS1_:       ## @_ZNSt3__1L9addressofIcEEPT_RS1_
	.cfi_startproc
## %bb.0:
	pushq	%rbp
	.cfi_def_cfa_offset 16
	.cfi_offset %rbp, -16
	movq	%rsp, %rbp
	.cfi_def_cfa_register %rbp
	movq	%rdi, -8(%rbp)
	movq	-8(%rbp), %rax
	popq	%rbp
	retq
	.cfi_endproc
                                        ## -- End function
	.p2align	4, 0x90                         ## -- Begin function _ZNKSt3__112basic_stringIcNS_11char_traitsIcEENS_9allocatorIcEEE15__get_long_sizeEv
__ZNKSt3__112basic_stringIcNS_11char_traitsIcEENS_9allocatorIcEEE15__get_long_sizeEv: ## @_ZNKSt3__112basic_stringIcNS_11char_traitsIcEENS_9allocatorIcEEE15__get_long_sizeEv
	.cfi_startproc
## %bb.0:
	pushq	%rbp
	.cfi_def_cfa_offset 16
	.cfi_offset %rbp, -16
	movq	%rsp, %rbp
	.cfi_def_cfa_register %rbp
	subq	$16, %rsp
	movq	%rdi, -8(%rbp)
	movq	-8(%rbp), %rdi
	callq	__ZNKSt3__117__compressed_pairINS_12basic_stringIcNS_11char_traitsIcEENS_9allocatorIcEEE5__repES5_E5firstEv
	movq	8(%rax), %rax
	addq	$16, %rsp
	popq	%rbp
	retq
	.cfi_endproc
                                        ## -- End function
	.p2align	4, 0x90                         ## -- Begin function _ZNKSt3__112basic_stringIcNS_11char_traitsIcEENS_9allocatorIcEEE16__get_short_sizeEv
__ZNKSt3__112basic_stringIcNS_11char_traitsIcEENS_9allocatorIcEEE16__get_short_sizeEv: ## @_ZNKSt3__112basic_stringIcNS_11char_traitsIcEENS_9allocatorIcEEE16__get_short_sizeEv
	.cfi_startproc
## %bb.0:
	pushq	%rbp
	.cfi_def_cfa_offset 16
	.cfi_offset %rbp, -16
	movq	%rsp, %rbp
	.cfi_def_cfa_register %rbp
	subq	$16, %rsp
	movq	%rdi, -8(%rbp)
	movq	-8(%rbp), %rdi
	callq	__ZNKSt3__117__compressed_pairINS_12basic_stringIcNS_11char_traitsIcEENS_9allocatorIcEEE5__repES5_E5firstEv
	movzbl	(%rax), %eax
	sarl	$1, %eax
	cltq
	addq	$16, %rsp
	popq	%rbp
	retq
	.cfi_endproc
                                        ## -- End function
	.p2align	4, 0x90                         ## -- Begin function _ZNSt3__116allocator_traitsINS_9allocatorIcEEE8max_sizeIS2_vEEmRKS2_
__ZNSt3__116allocator_traitsINS_9allocatorIcEEE8max_sizeIS2_vEEmRKS2_: ## @_ZNSt3__116allocator_traitsINS_9allocatorIcEEE8max_sizeIS2_vEEmRKS2_
	.cfi_startproc
## %bb.0:
	pushq	%rbp
	.cfi_def_cfa_offset 16
	.cfi_offset %rbp, -16
	movq	%rsp, %rbp
	.cfi_def_cfa_register %rbp
	subq	$16, %rsp
	movq	%rdi, -8(%rbp)
	movq	-8(%rbp), %rdi
	callq	__ZNKSt3__19allocatorIcE8max_sizeEv
	addq	$16, %rsp
	popq	%rbp
	retq
	.cfi_endproc
                                        ## -- End function
	.p2align	4, 0x90                         ## -- Begin function _ZNKSt3__112basic_stringIcNS_11char_traitsIcEENS_9allocatorIcEEE7__allocEv
__ZNKSt3__112basic_stringIcNS_11char_traitsIcEENS_9allocatorIcEEE7__allocEv: ## @_ZNKSt3__112basic_stringIcNS_11char_traitsIcEENS_9allocatorIcEEE7__allocEv
	.cfi_startproc
## %bb.0:
	pushq	%rbp
	.cfi_def_cfa_offset 16
	.cfi_offset %rbp, -16
	movq	%rsp, %rbp
	.cfi_def_cfa_register %rbp
	subq	$16, %rsp
	movq	%rdi, -8(%rbp)
	movq	-8(%rbp), %rdi
	callq	__ZNKSt3__117__compressed_pairINS_12basic_stringIcNS_11char_traitsIcEENS_9allocatorIcEEE5__repES5_E6secondEv
	addq	$16, %rsp
	popq	%rbp
	retq
	.cfi_endproc
                                        ## -- End function
	.p2align	4, 0x90                         ## -- Begin function _ZNKSt3__19allocatorIcE8max_sizeEv
__ZNKSt3__19allocatorIcE8max_sizeEv:    ## @_ZNKSt3__19allocatorIcE8max_sizeEv
	.cfi_startproc
## %bb.0:
	pushq	%rbp
	.cfi_def_cfa_offset 16
	.cfi_offset %rbp, -16
	movq	%rsp, %rbp
	.cfi_def_cfa_register %rbp
	movq	%rdi, -8(%rbp)
	movq	$-1, %rax
	popq	%rbp
	retq
	.cfi_endproc
                                        ## -- End function
	.p2align	4, 0x90                         ## -- Begin function _ZNKSt3__117__compressed_pairINS_12basic_stringIcNS_11char_traitsIcEENS_9allocatorIcEEE5__repES5_E6secondEv
__ZNKSt3__117__compressed_pairINS_12basic_stringIcNS_11char_traitsIcEENS_9allocatorIcEEE5__repES5_E6secondEv: ## @_ZNKSt3__117__compressed_pairINS_12basic_stringIcNS_11char_traitsIcEENS_9allocatorIcEEE5__repES5_E6secondEv
	.cfi_startproc
## %bb.0:
	pushq	%rbp
	.cfi_def_cfa_offset 16
	.cfi_offset %rbp, -16
	movq	%rsp, %rbp
	.cfi_def_cfa_register %rbp
	subq	$16, %rsp
	movq	%rdi, -8(%rbp)
	movq	-8(%rbp), %rdi
	callq	__ZNKSt3__122__compressed_pair_elemINS_9allocatorIcEELi1ELb1EE5__getEv
	addq	$16, %rsp
	popq	%rbp
	retq
	.cfi_endproc
                                        ## -- End function
	.p2align	4, 0x90                         ## -- Begin function _ZNKSt3__122__compressed_pair_elemINS_9allocatorIcEELi1ELb1EE5__getEv
__ZNKSt3__122__compressed_pair_elemINS_9allocatorIcEELi1ELb1EE5__getEv: ## @_ZNKSt3__122__compressed_pair_elemINS_9allocatorIcEELi1ELb1EE5__getEv
	.cfi_startproc
## %bb.0:
	pushq	%rbp
	.cfi_def_cfa_offset 16
	.cfi_offset %rbp, -16
	movq	%rsp, %rbp
	.cfi_def_cfa_register %rbp
	movq	%rdi, -8(%rbp)
	movq	-8(%rbp), %rax
	popq	%rbp
	retq
	.cfi_endproc
                                        ## -- End function
	.p2align	4, 0x90                         ## -- Begin function _ZNKSt3__15ctypeIcE5widenEc
__ZNKSt3__15ctypeIcE5widenEc:           ## @_ZNKSt3__15ctypeIcE5widenEc
	.cfi_startproc
## %bb.0:
	pushq	%rbp
	.cfi_def_cfa_offset 16
	.cfi_offset %rbp, -16
	movq	%rsp, %rbp
	.cfi_def_cfa_register %rbp
	subq	$16, %rsp
	movb	%sil, %al
	movq	%rdi, -8(%rbp)
	movb	%al, -9(%rbp)
	movq	-8(%rbp), %rdi
	movb	-9(%rbp), %cl
	movq	(%rdi), %rax
	movsbl	%cl, %esi
	callq	*56(%rax)
	movsbl	%al, %eax
	addq	$16, %rsp
	popq	%rbp
	retq
	.cfi_endproc
                                        ## -- End function
	.globl	__ZNSt3__124__put_character_sequenceIcNS_11char_traitsIcEEEERNS_13basic_ostreamIT_T0_EES7_PKS4_m ## -- Begin function _ZNSt3__124__put_character_sequenceIcNS_11char_traitsIcEEEERNS_13basic_ostreamIT_T0_EES7_PKS4_m
	.weak_definition	__ZNSt3__124__put_character_sequenceIcNS_11char_traitsIcEEEERNS_13basic_ostreamIT_T0_EES7_PKS4_m
	.p2align	4, 0x90
__ZNSt3__124__put_character_sequenceIcNS_11char_traitsIcEEEERNS_13basic_ostreamIT_T0_EES7_PKS4_m: ## @_ZNSt3__124__put_character_sequenceIcNS_11char_traitsIcEEEERNS_13basic_ostreamIT_T0_EES7_PKS4_m
Lfunc_begin17:
	.cfi_startproc
	.cfi_personality 155, ___gxx_personality_v0
	.cfi_lsda 16, Lexception17
## %bb.0:
	pushq	%rbp
	.cfi_def_cfa_offset 16
	.cfi_offset %rbp, -16
	movq	%rsp, %rbp
	.cfi_def_cfa_register %rbp
	subq	$144, %rsp
	movq	%rdx, %rcx
	movq	%rdi, -8(%rbp)
	movq	%rsi, -16(%rbp)
	movq	%rcx, -24(%rbp)
	movq	-8(%rbp), %rsi
Ltmp192:
	leaq	-40(%rbp), %rdi
	callq	__ZNSt3__113basic_ostreamIcNS_11char_traitsIcEEE6sentryC1ERS3_
Ltmp193:
	jmp	LBB153_1
LBB153_1:
Ltmp194:
	leaq	-40(%rbp), %rdi
	callq	__ZNKSt3__113basic_ostreamIcNS_11char_traitsIcEEE6sentrycvbEv
	movb	%al, %cl
Ltmp195:
	movb	%cl, -73(%rbp)                  ## 1-byte Spill
	jmp	LBB153_2
LBB153_2:
	movb	-73(%rbp), %al                  ## 1-byte Reload
	testb	$1, %al
	jne	LBB153_3
	jmp	LBB153_15
LBB153_3:
	movq	-8(%rbp), %rsi
	leaq	-72(%rbp), %rdi
	callq	__ZNSt3__119ostreambuf_iteratorIcNS_11char_traitsIcEEEC1ERNS_13basic_ostreamIcS2_EE
	movq	-16(%rbp), %rax
	movq	%rax, -88(%rbp)                 ## 8-byte Spill
	movq	-8(%rbp), %rdi
	movq	(%rdi), %rax
	movq	-24(%rax), %rax
	addq	%rax, %rdi
Ltmp196:
	callq	__ZNKSt3__18ios_base5flagsEv
	movl	%eax, %ecx
Ltmp197:
	movl	%ecx, -80(%rbp)                 ## 4-byte Spill
	jmp	LBB153_4
LBB153_4:
	movl	-80(%rbp), %eax                 ## 4-byte Reload
	andl	$176, %eax
	cmpl	$32, %eax
	jne	LBB153_6
## %bb.5:
	movq	-16(%rbp), %rax
	addq	-24(%rbp), %rax
	movq	%rax, -96(%rbp)                 ## 8-byte Spill
	jmp	LBB153_7
LBB153_6:
	movq	-16(%rbp), %rax
	movq	%rax, -96(%rbp)                 ## 8-byte Spill
LBB153_7:
	movq	-96(%rbp), %rcx                 ## 8-byte Reload
	movq	%rcx, -128(%rbp)                ## 8-byte Spill
	movq	-16(%rbp), %rcx
	movq	-24(%rbp), %rsi
	addq	%rsi, %rcx
	movq	%rcx, -120(%rbp)                ## 8-byte Spill
	movq	-8(%rbp), %rdi
	movq	(%rdi), %rcx
	movq	-24(%rcx), %rcx
	addq	%rcx, %rdi
	movq	%rdi, -112(%rbp)                ## 8-byte Spill
Ltmp198:
	callq	__ZNKSt3__19basic_iosIcNS_11char_traitsIcEEE4fillEv
	movb	%al, %cl
Ltmp199:
	movb	%cl, -97(%rbp)                  ## 1-byte Spill
	jmp	LBB153_8
LBB153_8:
	movq	-112(%rbp), %r8                 ## 8-byte Reload
	movq	-120(%rbp), %rcx                ## 8-byte Reload
	movq	-128(%rbp), %rdx                ## 8-byte Reload
	movq	-88(%rbp), %rsi                 ## 8-byte Reload
	movb	-97(%rbp), %al                  ## 1-byte Reload
	movq	-72(%rbp), %rdi
Ltmp200:
	movsbl	%al, %r9d
	callq	__ZNSt3__116__pad_and_outputIcNS_11char_traitsIcEEEENS_19ostreambuf_iteratorIT_T0_EES6_PKS4_S8_S8_RNS_8ios_baseES4_
	movq	%rax, %rcx
Ltmp201:
	movq	%rcx, -136(%rbp)                ## 8-byte Spill
	jmp	LBB153_9
LBB153_9:
	movq	-136(%rbp), %rax                ## 8-byte Reload
	movq	%rax, -64(%rbp)
	leaq	-64(%rbp), %rdi
	callq	__ZNKSt3__119ostreambuf_iteratorIcNS_11char_traitsIcEEE6failedEv
	testb	$1, %al
	jne	LBB153_10
	jmp	LBB153_14
LBB153_10:
	movq	-8(%rbp), %rdi
	movq	(%rdi), %rcx
	movq	-24(%rcx), %rcx
	addq	%rcx, %rdi
Ltmp202:
	movl	$5, %esi
	callq	__ZNSt3__19basic_iosIcNS_11char_traitsIcEEE8setstateEj
Ltmp203:
	jmp	LBB153_11
LBB153_11:
	jmp	LBB153_14
LBB153_12:
Ltmp209:
	movq	%rax, %rcx
	movl	%edx, %eax
	movq	%rcx, -48(%rbp)
	movl	%eax, -52(%rbp)
	jmp	LBB153_18
LBB153_13:
Ltmp204:
	movq	%rdx, %rcx
	movq	%rax, %rsi
                                        ## kill: def $ecx killed $ecx killed $rcx
	movq	%rsi, -48(%rbp)
	movl	%ecx, -52(%rbp)
Ltmp205:
	leaq	-40(%rbp), %rdi
	callq	__ZNSt3__113basic_ostreamIcNS_11char_traitsIcEEE6sentryD1Ev
Ltmp206:
	jmp	LBB153_17
LBB153_14:
	jmp	LBB153_15
LBB153_15:
Ltmp207:
	leaq	-40(%rbp), %rdi
	callq	__ZNSt3__113basic_ostreamIcNS_11char_traitsIcEEE6sentryD1Ev
Ltmp208:
	jmp	LBB153_16
LBB153_16:
	jmp	LBB153_20
LBB153_17:
	jmp	LBB153_18
LBB153_18:
	movq	-48(%rbp), %rdi
	callq	___cxa_begin_catch
                                        ## kill: def $rcx killed $rax
	movq	-8(%rbp), %rdi
	movq	(%rdi), %rcx
	movq	-24(%rcx), %rcx
	addq	%rcx, %rdi
Ltmp210:
	callq	__ZNSt3__18ios_base33__set_badbit_and_consider_rethrowEv
Ltmp211:
	jmp	LBB153_19
LBB153_19:
	callq	___cxa_end_catch
LBB153_20:
	movq	-8(%rbp), %rax
	addq	$144, %rsp
	popq	%rbp
	retq
LBB153_21:
Ltmp212:
	movq	%rdx, %rcx
	movq	%rax, %rsi
                                        ## kill: def $ecx killed $ecx killed $rcx
	movq	%rsi, -48(%rbp)
	movl	%ecx, -52(%rbp)
Ltmp213:
	callq	___cxa_end_catch
Ltmp214:
	jmp	LBB153_22
LBB153_22:
	jmp	LBB153_23
LBB153_23:
	movq	-48(%rbp), %rdi
	callq	__Unwind_Resume
LBB153_24:
Ltmp215:
	movq	%rax, %rdi
	callq	___clang_call_terminate
Lfunc_end17:
	.cfi_endproc
	.section	__TEXT,__gcc_except_tab
	.p2align	2
GCC_except_table153:
Lexception17:
	.byte	255                             ## @LPStart Encoding = omit
	.byte	155                             ## @TType Encoding = indirect pcrel sdata4
	.uleb128 Lttbase15-Lttbaseref15
Lttbaseref15:
	.byte	1                               ## Call site Encoding = uleb128
	.uleb128 Lcst_end17-Lcst_begin17
Lcst_begin17:
	.uleb128 Ltmp192-Lfunc_begin17          ## >> Call Site 1 <<
	.uleb128 Ltmp193-Ltmp192                ##   Call between Ltmp192 and Ltmp193
	.uleb128 Ltmp209-Lfunc_begin17          ##     jumps to Ltmp209
	.byte	1                               ##   On action: 1
	.uleb128 Ltmp194-Lfunc_begin17          ## >> Call Site 2 <<
	.uleb128 Ltmp203-Ltmp194                ##   Call between Ltmp194 and Ltmp203
	.uleb128 Ltmp204-Lfunc_begin17          ##     jumps to Ltmp204
	.byte	1                               ##   On action: 1
	.uleb128 Ltmp205-Lfunc_begin17          ## >> Call Site 3 <<
	.uleb128 Ltmp206-Ltmp205                ##   Call between Ltmp205 and Ltmp206
	.uleb128 Ltmp215-Lfunc_begin17          ##     jumps to Ltmp215
	.byte	1                               ##   On action: 1
	.uleb128 Ltmp207-Lfunc_begin17          ## >> Call Site 4 <<
	.uleb128 Ltmp208-Ltmp207                ##   Call between Ltmp207 and Ltmp208
	.uleb128 Ltmp209-Lfunc_begin17          ##     jumps to Ltmp209
	.byte	1                               ##   On action: 1
	.uleb128 Ltmp208-Lfunc_begin17          ## >> Call Site 5 <<
	.uleb128 Ltmp210-Ltmp208                ##   Call between Ltmp208 and Ltmp210
	.byte	0                               ##     has no landing pad
	.byte	0                               ##   On action: cleanup
	.uleb128 Ltmp210-Lfunc_begin17          ## >> Call Site 6 <<
	.uleb128 Ltmp211-Ltmp210                ##   Call between Ltmp210 and Ltmp211
	.uleb128 Ltmp212-Lfunc_begin17          ##     jumps to Ltmp212
	.byte	0                               ##   On action: cleanup
	.uleb128 Ltmp211-Lfunc_begin17          ## >> Call Site 7 <<
	.uleb128 Ltmp213-Ltmp211                ##   Call between Ltmp211 and Ltmp213
	.byte	0                               ##     has no landing pad
	.byte	0                               ##   On action: cleanup
	.uleb128 Ltmp213-Lfunc_begin17          ## >> Call Site 8 <<
	.uleb128 Ltmp214-Ltmp213                ##   Call between Ltmp213 and Ltmp214
	.uleb128 Ltmp215-Lfunc_begin17          ##     jumps to Ltmp215
	.byte	1                               ##   On action: 1
	.uleb128 Ltmp214-Lfunc_begin17          ## >> Call Site 9 <<
	.uleb128 Lfunc_end17-Ltmp214            ##   Call between Ltmp214 and Lfunc_end17
	.byte	0                               ##     has no landing pad
	.byte	0                               ##   On action: cleanup
Lcst_end17:
	.byte	1                               ## >> Action Record 1 <<
                                        ##   Catch TypeInfo 1
	.byte	0                               ##   No further actions
	.p2align	2
                                        ## >> Catch TypeInfos <<
	.long	0                               ## TypeInfo 1
Lttbase15:
	.p2align	2
                                        ## -- End function
	.section	__TEXT,__text,regular,pure_instructions
	.globl	__ZNSt3__111char_traitsIcE6lengthEPKc ## -- Begin function _ZNSt3__111char_traitsIcE6lengthEPKc
	.weak_definition	__ZNSt3__111char_traitsIcE6lengthEPKc
	.p2align	4, 0x90
__ZNSt3__111char_traitsIcE6lengthEPKc:  ## @_ZNSt3__111char_traitsIcE6lengthEPKc
	.cfi_startproc
## %bb.0:
	pushq	%rbp
	.cfi_def_cfa_offset 16
	.cfi_offset %rbp, -16
	movq	%rsp, %rbp
	.cfi_def_cfa_register %rbp
	subq	$16, %rsp
	movq	%rdi, -8(%rbp)
	movq	-8(%rbp), %rdi
	callq	_strlen
	addq	$16, %rsp
	popq	%rbp
	retq
	.cfi_endproc
                                        ## -- End function
	.p2align	4, 0x90                         ## -- Begin function _ZNKSt3__113basic_ostreamIcNS_11char_traitsIcEEE6sentrycvbEv
__ZNKSt3__113basic_ostreamIcNS_11char_traitsIcEEE6sentrycvbEv: ## @_ZNKSt3__113basic_ostreamIcNS_11char_traitsIcEEE6sentrycvbEv
	.cfi_startproc
## %bb.0:
	pushq	%rbp
	.cfi_def_cfa_offset 16
	.cfi_offset %rbp, -16
	movq	%rsp, %rbp
	.cfi_def_cfa_register %rbp
	movq	%rdi, -8(%rbp)
	movq	-8(%rbp), %rax
	movb	(%rax), %al
	andb	$1, %al
	movzbl	%al, %eax
	popq	%rbp
	retq
	.cfi_endproc
                                        ## -- End function
	.private_extern	__ZNSt3__116__pad_and_outputIcNS_11char_traitsIcEEEENS_19ostreambuf_iteratorIT_T0_EES6_PKS4_S8_S8_RNS_8ios_baseES4_ ## -- Begin function _ZNSt3__116__pad_and_outputIcNS_11char_traitsIcEEEENS_19ostreambuf_iteratorIT_T0_EES6_PKS4_S8_S8_RNS_8ios_baseES4_
	.globl	__ZNSt3__116__pad_and_outputIcNS_11char_traitsIcEEEENS_19ostreambuf_iteratorIT_T0_EES6_PKS4_S8_S8_RNS_8ios_baseES4_
	.weak_definition	__ZNSt3__116__pad_and_outputIcNS_11char_traitsIcEEEENS_19ostreambuf_iteratorIT_T0_EES6_PKS4_S8_S8_RNS_8ios_baseES4_
	.p2align	4, 0x90
__ZNSt3__116__pad_and_outputIcNS_11char_traitsIcEEEENS_19ostreambuf_iteratorIT_T0_EES6_PKS4_S8_S8_RNS_8ios_baseES4_: ## @_ZNSt3__116__pad_and_outputIcNS_11char_traitsIcEEEENS_19ostreambuf_iteratorIT_T0_EES6_PKS4_S8_S8_RNS_8ios_baseES4_
Lfunc_begin18:
	.cfi_startproc
	.cfi_personality 155, ___gxx_personality_v0
	.cfi_lsda 16, Lexception18
## %bb.0:
	pushq	%rbp
	.cfi_def_cfa_offset 16
	.cfi_offset %rbp, -16
	movq	%rsp, %rbp
	.cfi_def_cfa_register %rbp
	subq	$208, %rsp
	movb	%r9b, %al
	movq	%rdi, -16(%rbp)
	movq	%rsi, -24(%rbp)
	movq	%rdx, -32(%rbp)
	movq	%rcx, -40(%rbp)
	movq	%r8, -48(%rbp)
	movb	%al, -49(%rbp)
	movq	-16(%rbp), %rax
	movq	%rax, -168(%rbp)                ## 8-byte Spill
	callq	__ZNSt3__1L15__get_nullptr_tEv
	movq	%rax, -64(%rbp)
	leaq	-64(%rbp), %rdi
	callq	__ZNKSt3__19nullptr_tcvPT_INS_15basic_streambufIcNS_11char_traitsIcEEEEEEv
	movq	%rax, %rcx
	movq	-168(%rbp), %rax                ## 8-byte Reload
	cmpq	%rcx, %rax
	jne	LBB156_2
## %bb.1:
	movq	-16(%rbp), %rax
	movq	%rax, -8(%rbp)
	jmp	LBB156_25
LBB156_2:
	movq	-40(%rbp), %rax
	movq	-24(%rbp), %rcx
	subq	%rcx, %rax
	movq	%rax, -72(%rbp)
	movq	-48(%rbp), %rdi
	callq	__ZNKSt3__18ios_base5widthEv
	movq	%rax, -80(%rbp)
	movq	-80(%rbp), %rax
	cmpq	-72(%rbp), %rax
	jle	LBB156_4
## %bb.3:
	movq	-72(%rbp), %rcx
	movq	-80(%rbp), %rax
	subq	%rcx, %rax
	movq	%rax, -80(%rbp)
	jmp	LBB156_5
LBB156_4:
	movq	$0, -80(%rbp)
LBB156_5:
	movq	-32(%rbp), %rax
	movq	-24(%rbp), %rcx
	subq	%rcx, %rax
	movq	%rax, -88(%rbp)
	cmpq	$0, -88(%rbp)
	jle	LBB156_9
## %bb.6:
	movq	-16(%rbp), %rdi
	movq	-24(%rbp), %rsi
	movq	-88(%rbp), %rdx
	callq	__ZNSt3__115basic_streambufIcNS_11char_traitsIcEEE5sputnEPKcl
	cmpq	-88(%rbp), %rax
	je	LBB156_8
## %bb.7:
	callq	__ZNSt3__1L15__get_nullptr_tEv
	movq	%rax, -96(%rbp)
	leaq	-96(%rbp), %rdi
	callq	__ZNKSt3__19nullptr_tcvPT_INS_15basic_streambufIcNS_11char_traitsIcEEEEEEv
	movq	%rax, -16(%rbp)
	movq	-16(%rbp), %rax
	movq	%rax, -8(%rbp)
	jmp	LBB156_25
LBB156_8:
	jmp	LBB156_9
LBB156_9:
	cmpq	$0, -80(%rbp)
	jle	LBB156_20
## %bb.10:
	movq	-80(%rbp), %rsi
	movsbl	-49(%rbp), %edx
	leaq	-120(%rbp), %rdi
	movq	%rdi, -192(%rbp)                ## 8-byte Spill
	callq	__ZNSt3__112basic_stringIcNS_11char_traitsIcEENS_9allocatorIcEEEC1Emc
	movq	-192(%rbp), %rdi                ## 8-byte Reload
	movq	-16(%rbp), %rax
	movq	%rax, -184(%rbp)                ## 8-byte Spill
	callq	__ZNKSt3__112basic_stringIcNS_11char_traitsIcEENS_9allocatorIcEEE4dataEv
	movq	-184(%rbp), %rdi                ## 8-byte Reload
	movq	%rax, %rsi
	movq	-80(%rbp), %rdx
Ltmp216:
	callq	__ZNSt3__115basic_streambufIcNS_11char_traitsIcEEE5sputnEPKcl
	movq	%rax, %rcx
Ltmp217:
	movq	%rcx, -176(%rbp)                ## 8-byte Spill
	jmp	LBB156_11
LBB156_11:
	movq	-176(%rbp), %rax                ## 8-byte Reload
	cmpq	-80(%rbp), %rax
	je	LBB156_16
## %bb.12:
Ltmp218:
	callq	__ZNSt3__1L15__get_nullptr_tEv
	movq	%rax, %rcx
Ltmp219:
	movq	%rcx, -200(%rbp)                ## 8-byte Spill
	jmp	LBB156_13
LBB156_13:
	movq	-200(%rbp), %rax                ## 8-byte Reload
	movq	%rax, -144(%rbp)
Ltmp220:
	leaq	-144(%rbp), %rdi
	callq	__ZNKSt3__19nullptr_tcvPT_INS_15basic_streambufIcNS_11char_traitsIcEEEEEEv
	movq	%rax, %rcx
Ltmp221:
	movq	%rcx, -208(%rbp)                ## 8-byte Spill
	jmp	LBB156_14
LBB156_14:
	movq	-208(%rbp), %rax                ## 8-byte Reload
	movq	%rax, -16(%rbp)
	movq	-16(%rbp), %rax
	movq	%rax, -8(%rbp)
	movl	$1, -148(%rbp)
	jmp	LBB156_17
LBB156_15:
Ltmp222:
	movq	%rdx, %rcx
	movq	%rax, %rsi
                                        ## kill: def $ecx killed $ecx killed $rcx
	movq	%rsi, -128(%rbp)
	movl	%ecx, -132(%rbp)
Ltmp223:
	leaq	-120(%rbp), %rdi
	callq	__ZNSt3__112basic_stringIcNS_11char_traitsIcEENS_9allocatorIcEEED1Ev
Ltmp224:
	jmp	LBB156_19
LBB156_16:
	movl	$0, -148(%rbp)
LBB156_17:
	leaq	-120(%rbp), %rdi
	callq	__ZNSt3__112basic_stringIcNS_11char_traitsIcEENS_9allocatorIcEEED1Ev
	movl	-148(%rbp), %eax
	testl	%eax, %eax
	je	LBB156_18
	jmp	LBB156_29
LBB156_29:
	jmp	LBB156_25
LBB156_18:
	jmp	LBB156_20
LBB156_19:
	jmp	LBB156_26
LBB156_20:
	movq	-40(%rbp), %rax
	movq	-32(%rbp), %rcx
	subq	%rcx, %rax
	movq	%rax, -88(%rbp)
	cmpq	$0, -88(%rbp)
	jle	LBB156_24
## %bb.21:
	movq	-16(%rbp), %rdi
	movq	-32(%rbp), %rsi
	movq	-88(%rbp), %rdx
	callq	__ZNSt3__115basic_streambufIcNS_11char_traitsIcEEE5sputnEPKcl
	cmpq	-88(%rbp), %rax
	je	LBB156_23
## %bb.22:
	callq	__ZNSt3__1L15__get_nullptr_tEv
	movq	%rax, -160(%rbp)
	leaq	-160(%rbp), %rdi
	callq	__ZNKSt3__19nullptr_tcvPT_INS_15basic_streambufIcNS_11char_traitsIcEEEEEEv
	movq	%rax, -16(%rbp)
	movq	-16(%rbp), %rax
	movq	%rax, -8(%rbp)
	jmp	LBB156_25
LBB156_23:
	jmp	LBB156_24
LBB156_24:
	xorl	%eax, %eax
	movl	%eax, %esi
	movq	-48(%rbp), %rdi
	callq	__ZNSt3__18ios_base5widthEl
	movq	-16(%rbp), %rax
	movq	%rax, -8(%rbp)
LBB156_25:
	movq	-8(%rbp), %rax
	addq	$208, %rsp
	popq	%rbp
	retq
LBB156_26:
	movq	-128(%rbp), %rdi
	callq	__Unwind_Resume
LBB156_27:
Ltmp225:
	movq	%rax, %rdi
	callq	___clang_call_terminate
## %bb.28:
	ud2
Lfunc_end18:
	.cfi_endproc
	.section	__TEXT,__gcc_except_tab
	.p2align	2
GCC_except_table156:
Lexception18:
	.byte	255                             ## @LPStart Encoding = omit
	.byte	155                             ## @TType Encoding = indirect pcrel sdata4
	.uleb128 Lttbase16-Lttbaseref16
Lttbaseref16:
	.byte	1                               ## Call site Encoding = uleb128
	.uleb128 Lcst_end18-Lcst_begin18
Lcst_begin18:
	.uleb128 Lfunc_begin18-Lfunc_begin18    ## >> Call Site 1 <<
	.uleb128 Ltmp216-Lfunc_begin18          ##   Call between Lfunc_begin18 and Ltmp216
	.byte	0                               ##     has no landing pad
	.byte	0                               ##   On action: cleanup
	.uleb128 Ltmp216-Lfunc_begin18          ## >> Call Site 2 <<
	.uleb128 Ltmp221-Ltmp216                ##   Call between Ltmp216 and Ltmp221
	.uleb128 Ltmp222-Lfunc_begin18          ##     jumps to Ltmp222
	.byte	0                               ##   On action: cleanup
	.uleb128 Ltmp223-Lfunc_begin18          ## >> Call Site 3 <<
	.uleb128 Ltmp224-Ltmp223                ##   Call between Ltmp223 and Ltmp224
	.uleb128 Ltmp225-Lfunc_begin18          ##     jumps to Ltmp225
	.byte	1                               ##   On action: 1
	.uleb128 Ltmp224-Lfunc_begin18          ## >> Call Site 4 <<
	.uleb128 Lfunc_end18-Ltmp224            ##   Call between Ltmp224 and Lfunc_end18
	.byte	0                               ##     has no landing pad
	.byte	0                               ##   On action: cleanup
Lcst_end18:
	.byte	1                               ## >> Action Record 1 <<
                                        ##   Catch TypeInfo 1
	.byte	0                               ##   No further actions
	.p2align	2
                                        ## >> Catch TypeInfos <<
	.long	0                               ## TypeInfo 1
Lttbase16:
	.p2align	2
                                        ## -- End function
	.section	__TEXT,__text,regular,pure_instructions
